ARM GAS  /cygdrive/c/Users/Zbyszko/AppData/Local/Temp/cc6jOyxc.s 			page 1


   1              		.code	16
   2              		.file	"M6502.c"
   3              		.section	.debug_abbrev,"",%progbits
   4              	.Ldebug_abbrev0:
   5              		.section	.debug_info,"",%progbits
   6              	.Ldebug_info0:
   7              		.section	.debug_line,"",%progbits
   8              	.Ldebug_line0:
   9 0000 F8010000 		.text
   9      02004000 
   9      00000201 
   9      FB0E0D00 
   9      01010101 
  10              	.Ltext0:
  11              		.align	2
  12              		.global	Reset6502
  13              		.code 16
  14              		.thumb_func
  15              		.type	Reset6502, %function
  16              	Reset6502:
  17              	.LFB2:
  18              		.file 1 "M6502.c"
   1:M6502.c       **** /** M6502: portable 6502 emulator ****************************/
   2:M6502.c       **** /**                                                         **/
   3:M6502.c       **** /**                         M6502.c                         **/
   4:M6502.c       **** /**                                                         **/
   5:M6502.c       **** /** This file contains implementation for 6502 CPU. Don't   **/
   6:M6502.c       **** /** forget to provide Rd6502(), Wr6502(), Loop6502(), and   **/
   7:M6502.c       **** /** possibly Op6502() functions to accomodate the emulated  **/
   8:M6502.c       **** /** machine's architecture.                                 **/
   9:M6502.c       **** /**                                                         **/
  10:M6502.c       **** /** Copyright (C) Marat Fayzullin 1996-2002                 **/
  11:M6502.c       **** /**               Alex Krasivsky  1996                      **/
  12:M6502.c       **** /**     You are not allowed to distribute this software     **/
  13:M6502.c       **** /**     commercially. Please, notify me, if you make any    **/
  14:M6502.c       **** /**     changes to this file.                               **/
  15:M6502.c       **** /*************************************************************/
  16:M6502.c       **** 
  17:M6502.c       **** #include "M6502.h"
  18:M6502.c       **** #include "Tables.h"
  19:M6502.c       **** #include "printf_P.h"
  20:M6502.c       **** //#include <stdio.h>
  21:M6502.c       **** 
  22:M6502.c       **** /** INLINE ***************************************************/
  23:M6502.c       **** /** Different compilers inline C functions differently.     **/
  24:M6502.c       **** /*************************************************************/
  25:M6502.c       **** #ifdef __GNUC__
  26:M6502.c       **** #define INLINE inline
  27:M6502.c       **** #else
  28:M6502.c       **** #define INLINE static
  29:M6502.c       **** #endif
  30:M6502.c       **** 
  31:M6502.c       **** /** System-Dependent Stuff ***********************************/
  32:M6502.c       **** /** This is system-dependent code put here to speed things  **/
  33:M6502.c       **** /** up. It has to stay inlined to be fast.                  **/
  34:M6502.c       **** /*************************************************************/
  35:M6502.c       **** #ifdef INES
ARM GAS  /cygdrive/c/Users/Zbyszko/AppData/Local/Temp/cc6jOyxc.s 			page 2


  36:M6502.c       **** #define FAST_RDOP
  37:M6502.c       **** extern byte *Page[];
  38:M6502.c       **** INLINE byte Op6502(register word A) { return(Page[A>>13][A&0x1FFF]); }
  39:M6502.c       **** #endif
  40:M6502.c       **** 
  41:M6502.c       **** /** FAST_RDOP ************************************************/
  42:M6502.c       **** /** With this #define not present, Rd6502() should perform  **/
  43:M6502.c       **** /** the functions of Rd6502().                              **/
  44:M6502.c       **** /*************************************************************/
  45:M6502.c       **** #ifndef FAST_RDOP
  46:M6502.c       **** #define Op6502(A) Rd6502(A)
  47:M6502.c       **** #endif
  48:M6502.c       **** 
  49:M6502.c       **** /** Addressing Methods ***************************************/
  50:M6502.c       **** /** These macros calculate and return effective addresses.  **/
  51:M6502.c       **** /*************************************************************/
  52:M6502.c       **** #define MC_Ab(Rg)	M_LDWORD(Rg)
  53:M6502.c       **** #define MC_Zp(Rg)       Rg.W=Op6502(R->PC.W++)
  54:M6502.c       **** #define MC_Zx(Rg)       Rg.W=(byte)(Op6502(R->PC.W++)+R->X)
  55:M6502.c       **** #define MC_Zy(Rg)       Rg.W=(byte)(Op6502(R->PC.W++)+R->Y)
  56:M6502.c       **** #define MC_Ax(Rg)	M_LDWORD(Rg);Rg.W+=R->X
  57:M6502.c       **** #define MC_Ay(Rg)	M_LDWORD(Rg);Rg.W+=R->Y
  58:M6502.c       **** #define MC_Ix(Rg)       K.W=(byte)(Op6502(R->PC.W++)+R->X); \
  59:M6502.c       **** 			Rg.B.l=Op6502(K.W++);Rg.B.h=Op6502(K.W)
  60:M6502.c       **** #define MC_Iy(Rg)       K.W=Op6502(R->PC.W++); \
  61:M6502.c       **** 			Rg.B.l=Op6502(K.W++);Rg.B.h=Op6502(K.W); \
  62:M6502.c       **** 			Rg.W+=R->Y
  63:M6502.c       **** 
  64:M6502.c       **** /** Reading From Memory **************************************/
  65:M6502.c       **** /** These macros calculate address and read from it.        **/
  66:M6502.c       **** /*************************************************************/
  67:M6502.c       **** #define MR_Ab(Rg)	MC_Ab(J);Rg=Rd6502(J.W)
  68:M6502.c       **** #define MR_Im(Rg)	Rg=Op6502(R->PC.W++)
  69:M6502.c       **** #define	MR_Zp(Rg)	MC_Zp(J);Rg=Rd6502(J.W)
  70:M6502.c       **** #define MR_Zx(Rg)	MC_Zx(J);Rg=Rd6502(J.W)
  71:M6502.c       **** #define MR_Zy(Rg)	MC_Zy(J);Rg=Rd6502(J.W)
  72:M6502.c       **** #define	MR_Ax(Rg)	MC_Ax(J);Rg=Rd6502(J.W)
  73:M6502.c       **** #define MR_Ay(Rg)	MC_Ay(J);Rg=Rd6502(J.W)
  74:M6502.c       **** #define MR_Ix(Rg)	MC_Ix(J);Rg=Rd6502(J.W)
  75:M6502.c       **** #define MR_Iy(Rg)	MC_Iy(J);Rg=Rd6502(J.W)
  76:M6502.c       **** 
  77:M6502.c       **** /** Writing To Memory ****************************************/
  78:M6502.c       **** /** These macros calculate address and write to it.         **/
  79:M6502.c       **** /*************************************************************/
  80:M6502.c       **** #define MW_Ab(Rg)	MC_Ab(J);Wr6502(J.W,Rg)
  81:M6502.c       **** #define MW_Zp(Rg)	MC_Zp(J);Wr6502(J.W,Rg)
  82:M6502.c       **** #define MW_Zx(Rg)	MC_Zx(J);Wr6502(J.W,Rg)
  83:M6502.c       **** #define MW_Zy(Rg)	MC_Zy(J);Wr6502(J.W,Rg)
  84:M6502.c       **** #define MW_Ax(Rg)	MC_Ax(J);Wr6502(J.W,Rg)
  85:M6502.c       **** #define MW_Ay(Rg)	MC_Ay(J);Wr6502(J.W,Rg)
  86:M6502.c       **** #define MW_Ix(Rg)	MC_Ix(J);Wr6502(J.W,Rg)
  87:M6502.c       **** #define MW_Iy(Rg)	MC_Iy(J);Wr6502(J.W,Rg)
  88:M6502.c       **** 
  89:M6502.c       **** /** Modifying Memory *****************************************/
  90:M6502.c       **** /** These macros calculate address and modify it.           **/
  91:M6502.c       **** /*************************************************************/
  92:M6502.c       **** #define MM_Ab(Cmd)	MC_Ab(J);I=Rd6502(J.W);Cmd(I);Wr6502(J.W,I)
ARM GAS  /cygdrive/c/Users/Zbyszko/AppData/Local/Temp/cc6jOyxc.s 			page 3


  93:M6502.c       **** #define MM_Zp(Cmd)	MC_Zp(J);I=Rd6502(J.W);Cmd(I);Wr6502(J.W,I)
  94:M6502.c       **** #define MM_Zx(Cmd)	MC_Zx(J);I=Rd6502(J.W);Cmd(I);Wr6502(J.W,I)
  95:M6502.c       **** #define MM_Ax(Cmd)	MC_Ax(J);I=Rd6502(J.W);Cmd(I);Wr6502(J.W,I)
  96:M6502.c       **** 
  97:M6502.c       **** /** Other Macros *********************************************/
  98:M6502.c       **** /** Calculating flags, stack, jumps, arithmetics, etc.      **/
  99:M6502.c       **** /*************************************************************/
 100:M6502.c       **** #define M_FL(Rg)	R->P=(R->P&~(Z_FLAG|N_FLAG))|ZNTable[Rg]
 101:M6502.c       **** #define M_LDWORD(Rg)	Rg.B.l=Op6502(R->PC.W++);Rg.B.h=Op6502(R->PC.W++)
 102:M6502.c       **** 
 103:M6502.c       **** #define M_PUSH(Rg)	Wr6502(0x0100|R->S,Rg);R->S--
 104:M6502.c       **** #define M_POP(Rg)	R->S++;Rg=Op6502(0x0100|R->S)
 105:M6502.c       **** #define M_JR		R->PC.W+=(offset)Op6502(R->PC.W)+1;R->ICount--
 106:M6502.c       **** 
 107:M6502.c       **** #ifdef NO_DECIMAL
 108:M6502.c       **** 
 109:M6502.c       **** #define M_ADC(Rg) \
 110:M6502.c       ****   K.W=R->A+Rg+(R->P&C_FLAG); \
 111:M6502.c       ****   R->P&=~(N_FLAG|V_FLAG|Z_FLAG|C_FLAG); \
 112:M6502.c       ****   R->P|=(~(R->A^Rg)&(R->A^K.B.l)&0x80? V_FLAG:0)| \
 113:M6502.c       ****         (K.B.h? C_FLAG:0)|ZNTable[K.B.l]; \
 114:M6502.c       ****   R->A=K.B.l
 115:M6502.c       **** 
 116:M6502.c       **** /* Warning! C_FLAG is inverted before SBC and after it */
 117:M6502.c       **** #define M_SBC(Rg) \
 118:M6502.c       ****   K.W=R->A-Rg-(~R->P&C_FLAG); \
 119:M6502.c       ****   R->P&=~(N_FLAG|V_FLAG|Z_FLAG|C_FLAG); \
 120:M6502.c       ****   R->P|=((R->A^Rg)&(R->A^K.B.l)&0x80? V_FLAG:0)| \
 121:M6502.c       ****         (K.B.h? 0:C_FLAG)|ZNTable[K.B.l]; \
 122:M6502.c       ****   R->A=K.B.l
 123:M6502.c       **** 
 124:M6502.c       **** #else /* NO_DECIMAL */
 125:M6502.c       **** 
 126:M6502.c       **** #define M_ADC(Rg) \
 127:M6502.c       ****   if(R->P&D_FLAG) \
 128:M6502.c       ****   { \
 129:M6502.c       ****     K.B.l=(R->A&0x0F)+(Rg&0x0F)+(R->P&C_FLAG); \
 130:M6502.c       ****     if(K.B.l>9) K.B.l+=6; \
 131:M6502.c       ****     K.B.h=(R->A>>4)+(Rg>>4)+(K.B.l>15? 1:0); \
 132:M6502.c       ****     R->A=(K.B.l&0x0F)|(K.B.h<<4); \
 133:M6502.c       ****     R->P=(R->P&~C_FLAG)|(K.B.h>15? C_FLAG:0); \
 134:M6502.c       ****   } \
 135:M6502.c       ****   else \
 136:M6502.c       ****   { \
 137:M6502.c       ****     K.W=R->A+Rg+(R->P&C_FLAG); \
 138:M6502.c       ****     R->P&=~(N_FLAG|V_FLAG|Z_FLAG|C_FLAG); \
 139:M6502.c       ****     R->P|=(~(R->A^Rg)&(R->A^K.B.l)&0x80? V_FLAG:0)| \
 140:M6502.c       ****           (K.B.h? C_FLAG:0)|ZNTable[K.B.l]; \
 141:M6502.c       ****     R->A=K.B.l; \
 142:M6502.c       ****   }
 143:M6502.c       **** 
 144:M6502.c       **** /* Warning! C_FLAG is inverted before SBC and after it */
 145:M6502.c       **** #define M_SBC(Rg) \
 146:M6502.c       ****   if(R->P&D_FLAG) \
 147:M6502.c       ****   { \
 148:M6502.c       ****     K.B.l=(R->A&0x0F)-(Rg&0x0F)-(~R->P&C_FLAG); \
 149:M6502.c       ****     if(K.B.l&0x10) K.B.l-=6; \
ARM GAS  /cygdrive/c/Users/Zbyszko/AppData/Local/Temp/cc6jOyxc.s 			page 4


 150:M6502.c       ****     K.B.h=(R->A>>4)-(Rg>>4)-((K.B.l&0x10)>>4); \
 151:M6502.c       ****     if(K.B.h&0x10) K.B.h-=6; \
 152:M6502.c       ****     R->A=(K.B.l&0x0F)|(K.B.h<<4); \
 153:M6502.c       ****     R->P=(R->P&~C_FLAG)|(K.B.h>15? 0:C_FLAG); \
 154:M6502.c       ****   } \
 155:M6502.c       ****   else \
 156:M6502.c       ****   { \
 157:M6502.c       ****     K.W=R->A-Rg-(~R->P&C_FLAG); \
 158:M6502.c       ****     R->P&=~(N_FLAG|V_FLAG|Z_FLAG|C_FLAG); \
 159:M6502.c       ****     R->P|=((R->A^Rg)&(R->A^K.B.l)&0x80? V_FLAG:0)| \
 160:M6502.c       ****           (K.B.h? 0:C_FLAG)|ZNTable[K.B.l]; \
 161:M6502.c       ****     R->A=K.B.l; \
 162:M6502.c       ****   }
 163:M6502.c       **** 
 164:M6502.c       **** #endif /* NO_DECIMAL */
 165:M6502.c       **** 
 166:M6502.c       **** #define M_CMP(Rg1,Rg2) \
 167:M6502.c       ****   K.W=Rg1-Rg2; \
 168:M6502.c       ****   R->P&=~(N_FLAG|Z_FLAG|C_FLAG); \
 169:M6502.c       ****   R->P|=ZNTable[K.B.l]|(K.B.h? 0:C_FLAG)
 170:M6502.c       **** #define M_BIT(Rg) \
 171:M6502.c       ****   R->P&=~(N_FLAG|V_FLAG|Z_FLAG); \
 172:M6502.c       ****   R->P|=(Rg&(N_FLAG|V_FLAG))|(Rg&R->A? 0:Z_FLAG)
 173:M6502.c       **** 
 174:M6502.c       **** #define M_AND(Rg)	R->A&=Rg;M_FL(R->A)
 175:M6502.c       **** #define M_ORA(Rg)	R->A|=Rg;M_FL(R->A)
 176:M6502.c       **** #define M_EOR(Rg)	R->A^=Rg;M_FL(R->A)
 177:M6502.c       **** #define M_INC(Rg)	Rg++;M_FL(Rg)
 178:M6502.c       **** #define M_DEC(Rg)	Rg--;M_FL(Rg)
 179:M6502.c       **** 
 180:M6502.c       **** #define M_ASL(Rg)	R->P&=~C_FLAG;R->P|=Rg>>7;Rg<<=1;M_FL(Rg)
 181:M6502.c       **** #define M_LSR(Rg)	R->P&=~C_FLAG;R->P|=Rg&C_FLAG;Rg>>=1;M_FL(Rg)
 182:M6502.c       **** #define M_ROL(Rg)	K.B.l=(Rg<<1)|(R->P&C_FLAG); \
 183:M6502.c       **** 			R->P&=~C_FLAG;R->P|=Rg>>7;Rg=K.B.l; \
 184:M6502.c       **** 			M_FL(Rg)
 185:M6502.c       **** #define M_ROR(Rg)	K.B.l=(Rg>>1)|(R->P<<7); \
 186:M6502.c       **** 			R->P&=~C_FLAG;R->P|=Rg&C_FLAG;Rg=K.B.l; \
 187:M6502.c       **** 			M_FL(Rg)
 188:M6502.c       **** 
 189:M6502.c       **** /** Reset6502() **********************************************/
 190:M6502.c       **** /** This function can be used to reset the registers before **/
 191:M6502.c       **** /** starting execution with Run6502(). It sets registers to **/
 192:M6502.c       **** /** their initial values.                                   **/
 193:M6502.c       **** /*************************************************************/
 194:M6502.c       **** void Reset6502(M6502 *R)
 195:M6502.c       **** {
  19              		.loc 1 195 0
  20 0000 30B5     		push	{r4, r5, lr}
  21              	.LCFI0:
  22              	.LVL0:
 196:M6502.c       ****   R->A=R->X=R->Y=0x00;
 197:M6502.c       ****   R->P=Z_FLAG|R_FLAG;
  23              		.loc 1 197 0
  24 0002 2223     		mov	r3, #34
  25 0004 4370     		strb	r3, [r0, #1]
 198:M6502.c       ****   R->S=0xFF;
  26              		.loc 1 198 0
ARM GAS  /cygdrive/c/Users/Zbyszko/AppData/Local/Temp/cc6jOyxc.s 			page 5


  27 0006 0123     		mov	r3, #1
  28              		.loc 1 196 0
  29 0008 0025     		mov	r5, #0
  30              		.loc 1 198 0
  31 000a 5B42     		neg	r3, r3
  32              		.loc 1 195 0
  33 000c 041C     		mov	r4, r0
  34              		.loc 1 196 0
  35 000e C570     		strb	r5, [r0, #3]
  36 0010 8570     		strb	r5, [r0, #2]
  37 0012 0570     		strb	r5, [r0]
  38              		.loc 1 198 0
  39 0014 0371     		strb	r3, [r0, #4]
 199:M6502.c       ****   R->PC.B.l=Rd6502(0xFFFC);
  40              		.loc 1 199 0
  41 0016 0748     		ldr	r0, .L3
  42              	.LVL1:
  43 0018 FFF7FEFF 		bl	Rd6502
  44 001c 2072     		strb	r0, [r4, #8]
 200:M6502.c       ****   R->PC.B.h=Rd6502(0xFFFD);
  45              		.loc 1 200 0
  46 001e 0648     		ldr	r0, .L3+4
  47 0020 FFF7FEFF 		bl	Rd6502
 201:M6502.c       ****   R->ICount=R->IPeriod;
  48              		.loc 1 201 0
  49 0024 E368     		ldr	r3, [r4, #12]
 202:M6502.c       ****   R->IRequest=INT_NONE;
  50              		.loc 1 202 0
  51 0026 2575     		strb	r5, [r4, #20]
 203:M6502.c       ****   R->AfterCLI=0;
  52              		.loc 1 203 0
  53 0028 6575     		strb	r5, [r4, #21]
  54              		.loc 1 200 0
  55 002a 6072     		strb	r0, [r4, #9]
  56              		.loc 1 201 0
  57 002c 2361     		str	r3, [r4, #16]
 204:M6502.c       **** }
  58              		.loc 1 204 0
  59              		@ sp needed for prologue
  60              	.LVL2:
  61 002e 30BC     		pop	{r4, r5}
  62 0030 01BC     		pop	{r0}
  63 0032 0047     		bx	r0
  64              	.L4:
  65              		.align	2
  66              	.L3:
  67 0034 FCFF0000 		.word	65532
  68 0038 FDFF0000 		.word	65533
  69              	.LFE2:
  70              		.size	Reset6502, .-Reset6502
  71              		.section	.rodata.str1.4,"aMS",%progbits,1
  72              		.align	2
  73              	.LC3:
  74 0000 5B4D3635 		.ascii	"[M6502 %lX] Unrecognized instruction: $%02X at PC=$"
  74      30322025 
  74      6C585D20 
  74      556E7265 
ARM GAS  /cygdrive/c/Users/Zbyszko/AppData/Local/Temp/cc6jOyxc.s 			page 6


  74      636F676E 
  75 0033 25303458 		.ascii	"%04X\012\000"
  75      0A00
  76 0039 000000   		.text
  77              		.align	2
  78              		.global	Exec6502
  79              		.code 16
  80              		.thumb_func
  81              		.type	Exec6502, %function
  82              	Exec6502:
  83              	.LFB3:
 205:M6502.c       **** 
 206:M6502.c       **** /** Exec6502() ***********************************************/
 207:M6502.c       **** /** This function will execute a single 6502 opcode. It     **/
 208:M6502.c       **** /** will then return next PC, and current register values   **/
 209:M6502.c       **** /** in R.                                                   **/
 210:M6502.c       **** /*************************************************************/
 211:M6502.c       **** word Exec6502(M6502 *R)
 212:M6502.c       **** {
  84              		.loc 1 212 0
  85 003c F0B5     		push	{r4, r5, r6, r7, lr}
  86              	.LCFI1:
  87              	.LVL3:
  88 003e 061C     		mov	r6, r0
 213:M6502.c       ****   register pair J,K;
 214:M6502.c       ****   register byte I;
 215:M6502.c       **** 
 216:M6502.c       ****   I=Op6502(R->PC.W++);
  89              		.loc 1 216 0
  90 0040 0089     		ldrh	r0, [r0, #8]
  91              	.LVL4:
  92 0042 431C     		add	r3, r0, #1
  93 0044 3381     		strh	r3, [r6, #8]
  94              		.loc 1 212 0
  95 0046 81B0     		sub	sp, sp, #4
  96              	.LCFI2:
  97              		.loc 1 216 0
  98 0048 FFF7FEFF 		bl	Rd6502
 217:M6502.c       ****   R->ICount-=Cycles[I];
  99              		.loc 1 217 0
 100 004c E74B     		ldr	r3, .L372
 101 004e 1A5C     		ldrb	r2, [r3, r0]
 102 0050 3369     		ldr	r3, [r6, #16]
 103 0052 9B1A     		sub	r3, r3, r2
 104 0054 3361     		str	r3, [r6, #16]
 218:M6502.c       ****   switch(I)
 105              		.loc 1 218 0
 106 0056 FE28     		cmp	r0, #254
 107 0058 01D9     		bls	.LCB77
 108 005a 03F0B4F8 		bl	.L6	@far jump
 109              	.LCB77:
 110 005e E44A     		ldr	r2, .L372+4
 111 0060 8300     		lsl	r3, r0, #2
 112 0062 9B58     		ldr	r3, [r3, r2]
 113 0064 9F46     		mov	pc, r3
 114              		.section	.rodata
 115              		.align	2
ARM GAS  /cygdrive/c/Users/Zbyszko/AppData/Local/Temp/cc6jOyxc.s 			page 7


 116              		.align	2
 117              	.L158:
 118 0000 FA020000 		.word	.L7
 119 0004 3E270000 		.word	.L8
 120 0008 C6310000 		.word	.L6
 121 000c C6310000 		.word	.L6
 122 0010 C6310000 		.word	.L6
 123 0014 E0050000 		.word	.L9
 124 0018 0E060000 		.word	.L10
 125 001c C6310000 		.word	.L6
 126 0020 BA030000 		.word	.L11
 127 0024 6A130000 		.word	.L12
 128 0028 0A310000 		.word	.L13
 129 002c C6310000 		.word	.L6
 130 0030 C6310000 		.word	.L6
 131 0034 6E0B0000 		.word	.L14
 132 0038 BA0B0000 		.word	.L15
 133 003c C6310000 		.word	.L6
 134 0040 66000000 		.word	.L16
 135 0044 A8270000 		.word	.L17
 136 0048 C6310000 		.word	.L6
 137 004c C6310000 		.word	.L6
 138 0050 C6310000 		.word	.L6
 139 0054 D6160000 		.word	.L18
 140 0058 08170000 		.word	.L19
 141 005c C6310000 		.word	.L6
 142 0060 D2030000 		.word	.L20
 143 0064 2A1C0000 		.word	.L21
 144 0068 C6310000 		.word	.L6
 145 006c C6310000 		.word	.L6
 146 0070 C6310000 		.word	.L6
 147 0074 7A1C0000 		.word	.L22
 148 0078 CA1C0000 		.word	.L23
 149 007c C6310000 		.word	.L6
 150 0080 2E020000 		.word	.L24
 151 0084 14280000 		.word	.L25
 152 0088 C6310000 		.word	.L6
 153 008c C6310000 		.word	.L6
 154 0090 56050000 		.word	.L26
 155 0094 4C060000 		.word	.L27
 156 0098 76060000 		.word	.L28
 157 009c C6310000 		.word	.L6
 158 00a0 82030000 		.word	.L29
 159 00a4 90130000 		.word	.L30
 160 00a8 2E310000 		.word	.L31
 161 00ac C6310000 		.word	.L6
 162 00b0 8C050000 		.word	.L32
 163 00b4 240C0000 		.word	.L33
 164 00b8 6C0C0000 		.word	.L34
 165 00bc C6310000 		.word	.L6
 166 00c0 92000000 		.word	.L35
 167 00c4 7A280000 		.word	.L36
 168 00c8 C6310000 		.word	.L6
 169 00cc C6310000 		.word	.L6
 170 00d0 C6310000 		.word	.L6
 171 00d4 4A170000 		.word	.L37
 172 00d8 84170000 		.word	.L38
ARM GAS  /cygdrive/c/Users/Zbyszko/AppData/Local/Temp/cc6jOyxc.s 			page 8


 173 00dc C6310000 		.word	.L6
 174 00e0 0C040000 		.word	.L39
 175 00e4 2A1D0000 		.word	.L40
 176 00e8 C6310000 		.word	.L6
 177 00ec C6310000 		.word	.L6
 178 00f0 C6310000 		.word	.L6
 179 00f4 761D0000 		.word	.L41
 180 00f8 C21D0000 		.word	.L42
 181 00fc C6310000 		.word	.L6
 182 0100 BA010000 		.word	.L43
 183 0104 E2280000 		.word	.L44
 184 0108 C6310000 		.word	.L6
 185 010c C6310000 		.word	.L6
 186 0110 C6310000 		.word	.L6
 187 0114 CA060000 		.word	.L45
 188 0118 F8060000 		.word	.L46
 189 011c C6310000 		.word	.L6
 190 0120 30040000 		.word	.L47
 191 0124 C0130000 		.word	.L48
 192 0128 68310000 		.word	.L49
 193 012c C6310000 		.word	.L6
 194 0130 7E020000 		.word	.L50
 195 0134 DE0C0000 		.word	.L51
 196 0138 2A0D0000 		.word	.L52
 197 013c C6310000 		.word	.L6
 198 0140 66010000 		.word	.L53
 199 0144 58290000 		.word	.L54
 200 0148 C6310000 		.word	.L6
 201 014c C6310000 		.word	.L6
 202 0150 C6310000 		.word	.L6
 203 0154 DC170000 		.word	.L55
 204 0158 0E180000 		.word	.L56
 205 015c C6310000 		.word	.L6
 206 0160 60030000 		.word	.L57
 207 0164 381E0000 		.word	.L58
 208 0168 C6310000 		.word	.L6
 209 016c C6310000 		.word	.L6
 210 0170 C6310000 		.word	.L6
 211 0174 881E0000 		.word	.L59
 212 0178 E41E0000 		.word	.L60
 213 017c C6310000 		.word	.L6
 214 0180 FC010000 		.word	.L61
 215 0184 C4290000 		.word	.L62
 216 0188 C6310000 		.word	.L6
 217 018c C6310000 		.word	.L6
 218 0190 C6310000 		.word	.L6
 219 0194 32070000 		.word	.L63
 220 0198 28080000 		.word	.L64
 221 019c C6310000 		.word	.L6
 222 01a0 48040000 		.word	.L65
 223 01a4 E6130000 		.word	.L66
 224 01a8 8C310000 		.word	.L67
 225 01ac C6310000 		.word	.L6
 226 01b0 AC020000 		.word	.L68
 227 01b4 820D0000 		.word	.L69
 228 01b8 8C0E0000 		.word	.L70
 229 01bc C6310000 		.word	.L6
ARM GAS  /cygdrive/c/Users/Zbyszko/AppData/Local/Temp/cc6jOyxc.s 			page 9


 230 01c0 90010000 		.word	.L71
 231 01c4 E42A0000 		.word	.L72
 232 01c8 C6310000 		.word	.L6
 233 01cc C6310000 		.word	.L6
 234 01d0 C6310000 		.word	.L6
 235 01d4 4C180000 		.word	.L73
 236 01d8 3A190000 		.word	.L74
 237 01dc C6310000 		.word	.L6
 238 01e0 24040000 		.word	.L75
 239 01e4 401F0000 		.word	.L76
 240 01e8 C6310000 		.word	.L6
 241 01ec C6310000 		.word	.L6
 242 01f0 C6310000 		.word	.L6
 243 01f4 4C200000 		.word	.L77
 244 01f8 58210000 		.word	.L78
 245 01fc C6310000 		.word	.L6
 246 0200 C6310000 		.word	.L6
 247 0204 082C0000 		.word	.L79
 248 0208 C6310000 		.word	.L6
 249 020c C6310000 		.word	.L6
 250 0210 76080000 		.word	.L80
 251 0214 8E080000 		.word	.L81
 252 0218 A6080000 		.word	.L82
 253 021c C6310000 		.word	.L6
 254 0220 B8040000 		.word	.L83
 255 0224 C6310000 		.word	.L6
 256 0228 D4040000 		.word	.L84
 257 022c C6310000 		.word	.L6
 258 0230 F80E0000 		.word	.L85
 259 0234 2E0F0000 		.word	.L86
 260 0238 640F0000 		.word	.L87
 261 023c C6310000 		.word	.L6
 262 0240 12010000 		.word	.L88
 263 0244 5A2C0000 		.word	.L89
 264 0248 C6310000 		.word	.L6
 265 024c C6310000 		.word	.L6
 266 0250 8C190000 		.word	.L90
 267 0254 A8190000 		.word	.L91
 268 0258 C4190000 		.word	.L92
 269 025c C6310000 		.word	.L6
 270 0260 70040000 		.word	.L93
 271 0264 C8210000 		.word	.L94
 272 0268 38050000 		.word	.L95
 273 026c C6310000 		.word	.L6
 274 0270 C6310000 		.word	.L6
 275 0274 02220000 		.word	.L96
 276 0278 C6310000 		.word	.L6
 277 027c C6310000 		.word	.L6
 278 0280 C6140000 		.word	.L97
 279 0284 AE2C0000 		.word	.L98
 280 0288 E4140000 		.word	.L99
 281 028c C6310000 		.word	.L6
 282 0290 BE080000 		.word	.L100
 283 0294 E4080000 		.word	.L101
 284 0298 0A090000 		.word	.L102
 285 029c C6310000 		.word	.L6
 286 02a0 86040000 		.word	.L103
ARM GAS  /cygdrive/c/Users/Zbyszko/AppData/Local/Temp/cc6jOyxc.s 			page 10


 287 02a4 02150000 		.word	.L104
 288 02a8 EA040000 		.word	.L105
 289 02ac C6310000 		.word	.L6
 290 02b0 9A0F0000 		.word	.L106
 291 02b4 EC0F0000 		.word	.L107
 292 02b8 30100000 		.word	.L108
 293 02bc C6310000 		.word	.L6
 294 02c0 3C010000 		.word	.L109
 295 02c4 1C2D0000 		.word	.L110
 296 02c8 C6310000 		.word	.L6
 297 02cc C6310000 		.word	.L6
 298 02d0 E0190000 		.word	.L111
 299 02d4 0A1A0000 		.word	.L112
 300 02d8 341A0000 		.word	.L113
 301 02dc C6310000 		.word	.L6
 302 02e0 DE030000 		.word	.L114
 303 02e4 3C220000 		.word	.L115
 304 02e8 40050000 		.word	.L116
 305 02ec C6310000 		.word	.L6
 306 02f0 90220000 		.word	.L117
 307 02f4 D8220000 		.word	.L118
 308 02f8 20230000 		.word	.L119
 309 02fc C6310000 		.word	.L6
 310 0300 20150000 		.word	.L120
 311 0304 7E2D0000 		.word	.L121
 312 0308 C6310000 		.word	.L6
 313 030c C6310000 		.word	.L6
 314 0310 30090000 		.word	.L122
 315 0314 78090000 		.word	.L123
 316 0318 C0090000 		.word	.L124
 317 031c C6310000 		.word	.L6
 318 0320 9C040000 		.word	.L125
 319 0324 60150000 		.word	.L126
 320 0328 1C050000 		.word	.L127
 321 032c C6310000 		.word	.L6
 322 0330 74100000 		.word	.L128
 323 0334 DA100000 		.word	.L129
 324 0338 40110000 		.word	.L130
 325 033c C6310000 		.word	.L6
 326 0340 BE000000 		.word	.L131
 327 0344 002E0000 		.word	.L132
 328 0348 C6310000 		.word	.L6
 329 034c C6310000 		.word	.L6
 330 0350 C6310000 		.word	.L6
 331 0354 5E1A0000 		.word	.L133
 332 0358 AA1A0000 		.word	.L134
 333 035c C6310000 		.word	.L6
 334 0360 00040000 		.word	.L135
 335 0364 68230000 		.word	.L136
 336 0368 C6310000 		.word	.L6
 337 036c C6310000 		.word	.L6
 338 0370 C6310000 		.word	.L6
 339 0374 D2230000 		.word	.L137
 340 0378 3C240000 		.word	.L138
 341 037c C6310000 		.word	.L6
 342 0380 A0150000 		.word	.L139
 343 0384 862E0000 		.word	.L140
ARM GAS  /cygdrive/c/Users/Zbyszko/AppData/Local/Temp/cc6jOyxc.s 			page 11


 344 0388 C6310000 		.word	.L6
 345 038c C6310000 		.word	.L6
 346 0390 F4090000 		.word	.L141
 347 0394 3C0A0000 		.word	.L142
 348 0398 3A0B0000 		.word	.L143
 349 039c C6310000 		.word	.L6
 350 03a0 00050000 		.word	.L144
 351 03a4 E0150000 		.word	.L145
 352 03a8 02320000 		.word	.L146
 353 03ac C6310000 		.word	.L6
 354 03b0 92110000 		.word	.L147
 355 03b4 F8110000 		.word	.L148
 356 03b8 18130000 		.word	.L149
 357 03bc C6310000 		.word	.L6
 358 03c0 E8000000 		.word	.L150
 359 03c4 C02F0000 		.word	.L151
 360 03c8 C6310000 		.word	.L6
 361 03cc C6310000 		.word	.L6
 362 03d0 C6310000 		.word	.L6
 363 03d4 F01A0000 		.word	.L152
 364 03d8 F21B0000 		.word	.L153
 365 03dc C6310000 		.word	.L6
 366 03e0 18040000 		.word	.L154
 367 03e4 92240000 		.word	.L155
 368 03e8 C6310000 		.word	.L6
 369 03ec C6310000 		.word	.L6
 370 03f0 C6310000 		.word	.L6
 371 03f4 C4250000 		.word	.L156
 372 03f8 E8260000 		.word	.L157
 373              		.text
 374              	.L16:
 375              		.file 2 "Codes.h"
   1:Codes.h       **** /** M6502: portable 6502 emulator ****************************/
   2:Codes.h       **** /**                                                         **/
   3:Codes.h       **** /**                          Codes.h                        **/
   4:Codes.h       **** /**                                                         **/
   5:Codes.h       **** /** This file contains implementation for the main table of **/
   6:Codes.h       **** /** 6502 commands. It is included from 6502.c.              **/
   7:Codes.h       **** /**                                                         **/
   8:Codes.h       **** /** Copyright (C) Marat Fayzullin 1996-2002                 **/
   9:Codes.h       **** /**               Alex Krasivsky  1996                      **/
  10:Codes.h       **** /**     You are not allowed to distribute this software     **/
  11:Codes.h       **** /**     commercially. Please, notify me, if you make any    **/
  12:Codes.h       **** /**     changes to this file.                               **/
  13:Codes.h       **** /*************************************************************/
  14:Codes.h       **** 
  15:Codes.h       **** case 0x10: if(R->P&N_FLAG) R->PC.W++; else { M_JR; } break; /* BPL * REL */
 376              		.loc 2 15 0
 377 0066 0123     		mov	r3, #1
 378 0068 F356     		ldrsb	r3, [r6, r3]
 379 006a 3489     		ldrh	r4, [r6, #8]
 380 006c 002B     		cmp	r3, #0
 381 006e 03DA     		bge	.L159
 382 0070 631C     		add	r3, r4, #1
 383 0072 3381     		strh	r3, [r6, #8]
 384 0074 03F0C5F8 		bl	.L146	@ far jump
 385              	.L159:
ARM GAS  /cygdrive/c/Users/Zbyszko/AppData/Local/Temp/cc6jOyxc.s 			page 12


 386 0078 201C     		mov	r0, r4
 387 007a FFF7FEFF 		bl	Rd6502
 388 007e 0006     		lsl	r0, r0, #24
 389 0080 631C     		add	r3, r4, #1
 390 0082 0016     		asr	r0, r0, #24
 391 0084 C018     		add	r0, r0, r3
 392 0086 3369     		ldr	r3, [r6, #16]
 393 0088 013B     		sub	r3, r3, #1
 394 008a 3081     		strh	r0, [r6, #8]
 395 008c 3361     		str	r3, [r6, #16]
 396 008e 03F0B8F8 		bl	.L146	@ far jump
 397              	.L35:
  16:Codes.h       **** case 0x30: if(R->P&N_FLAG) { M_JR; } else R->PC.W++; break; /* BMI * REL */
 398              		.loc 2 16 0
 399 0092 0123     		mov	r3, #1
 400 0094 F356     		ldrsb	r3, [r6, r3]
 401 0096 3489     		ldrh	r4, [r6, #8]
 402 0098 002B     		cmp	r3, #0
 403 009a 0CDA     		bge	.L161
 404 009c 201C     		mov	r0, r4
 405 009e FFF7FEFF 		bl	Rd6502
 406 00a2 0006     		lsl	r0, r0, #24
 407 00a4 631C     		add	r3, r4, #1
 408 00a6 0016     		asr	r0, r0, #24
 409 00a8 C018     		add	r0, r0, r3
 410 00aa 3369     		ldr	r3, [r6, #16]
 411 00ac 013B     		sub	r3, r3, #1
 412 00ae 3081     		strh	r0, [r6, #8]
 413 00b0 3361     		str	r3, [r6, #16]
 414 00b2 03F0A6F8 		bl	.L146	@ far jump
 415              	.L161:
 416 00b6 631C     		add	r3, r4, #1
 417 00b8 3381     		strh	r3, [r6, #8]
 418 00ba 03F0A2F8 		bl	.L146	@ far jump
 419              	.L131:
  17:Codes.h       **** case 0xD0: if(R->P&Z_FLAG) R->PC.W++; else { M_JR; } break; /* BNE * REL */
 420              		.loc 2 17 0
 421 00be 7378     		ldrb	r3, [r6, #1]
 422 00c0 3489     		ldrh	r4, [r6, #8]
 423 00c2 9907     		lsl	r1, r3, #30
 424 00c4 03D5     		bpl	.L163
 425 00c6 631C     		add	r3, r4, #1
 426 00c8 3381     		strh	r3, [r6, #8]
 427 00ca 03F09AF8 		bl	.L146	@ far jump
 428              	.L163:
 429 00ce 201C     		mov	r0, r4
 430 00d0 FFF7FEFF 		bl	Rd6502
 431 00d4 0006     		lsl	r0, r0, #24
 432 00d6 631C     		add	r3, r4, #1
 433 00d8 0016     		asr	r0, r0, #24
 434 00da C018     		add	r0, r0, r3
 435 00dc 3369     		ldr	r3, [r6, #16]
 436 00de 013B     		sub	r3, r3, #1
 437 00e0 3081     		strh	r0, [r6, #8]
 438 00e2 3361     		str	r3, [r6, #16]
 439 00e4 03F08DF8 		bl	.L146	@ far jump
 440              	.L150:
ARM GAS  /cygdrive/c/Users/Zbyszko/AppData/Local/Temp/cc6jOyxc.s 			page 13


  18:Codes.h       **** case 0xF0: if(R->P&Z_FLAG) { M_JR; } else R->PC.W++; break; /* BEQ * REL */
 441              		.loc 2 18 0
 442 00e8 7378     		ldrb	r3, [r6, #1]
 443 00ea 3489     		ldrh	r4, [r6, #8]
 444 00ec 9A07     		lsl	r2, r3, #30
 445 00ee 0CD5     		bpl	.L165
 446 00f0 201C     		mov	r0, r4
 447 00f2 FFF7FEFF 		bl	Rd6502
 448 00f6 0006     		lsl	r0, r0, #24
 449 00f8 631C     		add	r3, r4, #1
 450 00fa 0016     		asr	r0, r0, #24
 451 00fc C018     		add	r0, r0, r3
 452 00fe 3369     		ldr	r3, [r6, #16]
 453 0100 013B     		sub	r3, r3, #1
 454 0102 3081     		strh	r0, [r6, #8]
 455 0104 3361     		str	r3, [r6, #16]
 456 0106 03F07CF8 		bl	.L146	@ far jump
 457              	.L165:
 458 010a 631C     		add	r3, r4, #1
 459 010c 3381     		strh	r3, [r6, #8]
 460 010e 03F078F8 		bl	.L146	@ far jump
 461              	.L88:
  19:Codes.h       **** case 0x90: if(R->P&C_FLAG) R->PC.W++; else { M_JR; } break; /* BCC * REL */
 462              		.loc 2 19 0
 463 0112 7378     		ldrb	r3, [r6, #1]
 464 0114 3489     		ldrh	r4, [r6, #8]
 465 0116 DF07     		lsl	r7, r3, #31
 466 0118 03D5     		bpl	.L167
 467 011a 631C     		add	r3, r4, #1
 468 011c 3381     		strh	r3, [r6, #8]
 469 011e 03F070F8 		bl	.L146	@ far jump
 470              	.L167:
 471 0122 201C     		mov	r0, r4
 472 0124 FFF7FEFF 		bl	Rd6502
 473 0128 0006     		lsl	r0, r0, #24
 474 012a 631C     		add	r3, r4, #1
 475 012c 0016     		asr	r0, r0, #24
 476 012e C018     		add	r0, r0, r3
 477 0130 3369     		ldr	r3, [r6, #16]
 478 0132 013B     		sub	r3, r3, #1
 479 0134 3081     		strh	r0, [r6, #8]
 480 0136 3361     		str	r3, [r6, #16]
 481 0138 03F063F8 		bl	.L146	@ far jump
 482              	.L109:
  20:Codes.h       **** case 0xB0: if(R->P&C_FLAG) { M_JR; } else R->PC.W++; break; /* BCS * REL */
 483              		.loc 2 20 0
 484 013c 7378     		ldrb	r3, [r6, #1]
 485 013e 3489     		ldrh	r4, [r6, #8]
 486 0140 D907     		lsl	r1, r3, #31
 487 0142 0CD5     		bpl	.L169
 488 0144 201C     		mov	r0, r4
 489 0146 FFF7FEFF 		bl	Rd6502
 490 014a 0006     		lsl	r0, r0, #24
 491 014c 631C     		add	r3, r4, #1
 492 014e 0016     		asr	r0, r0, #24
 493 0150 C018     		add	r0, r0, r3
 494 0152 3369     		ldr	r3, [r6, #16]
ARM GAS  /cygdrive/c/Users/Zbyszko/AppData/Local/Temp/cc6jOyxc.s 			page 14


 495 0154 013B     		sub	r3, r3, #1
 496 0156 3081     		strh	r0, [r6, #8]
 497 0158 3361     		str	r3, [r6, #16]
 498 015a 03F052F8 		bl	.L146	@ far jump
 499              	.L169:
 500 015e 631C     		add	r3, r4, #1
 501 0160 3381     		strh	r3, [r6, #8]
 502 0162 03F04EF8 		bl	.L146	@ far jump
 503              	.L53:
  21:Codes.h       **** case 0x50: if(R->P&V_FLAG) R->PC.W++; else { M_JR; } break; /* BVC * REL */
 504              		.loc 2 21 0
 505 0166 7378     		ldrb	r3, [r6, #1]
 506 0168 3489     		ldrh	r4, [r6, #8]
 507 016a 5A06     		lsl	r2, r3, #25
 508 016c 03D5     		bpl	.L171
 509 016e 631C     		add	r3, r4, #1
 510 0170 3381     		strh	r3, [r6, #8]
 511 0172 03F046F8 		bl	.L146	@ far jump
 512              	.L171:
 513 0176 201C     		mov	r0, r4
 514 0178 FFF7FEFF 		bl	Rd6502
 515 017c 0006     		lsl	r0, r0, #24
 516 017e 631C     		add	r3, r4, #1
 517 0180 0016     		asr	r0, r0, #24
 518 0182 C018     		add	r0, r0, r3
 519 0184 3369     		ldr	r3, [r6, #16]
 520 0186 013B     		sub	r3, r3, #1
 521 0188 3081     		strh	r0, [r6, #8]
 522 018a 3361     		str	r3, [r6, #16]
 523 018c 03F039F8 		bl	.L146	@ far jump
 524              	.L71:
  22:Codes.h       **** case 0x70: if(R->P&V_FLAG) { M_JR; } else R->PC.W++; break; /* BVS * REL */
 525              		.loc 2 22 0
 526 0190 7378     		ldrb	r3, [r6, #1]
 527 0192 3489     		ldrh	r4, [r6, #8]
 528 0194 5F06     		lsl	r7, r3, #25
 529 0196 0CD5     		bpl	.L173
 530 0198 201C     		mov	r0, r4
 531 019a FFF7FEFF 		bl	Rd6502
 532 019e 0006     		lsl	r0, r0, #24
 533 01a0 631C     		add	r3, r4, #1
 534 01a2 0016     		asr	r0, r0, #24
 535 01a4 C018     		add	r0, r0, r3
 536 01a6 3369     		ldr	r3, [r6, #16]
 537 01a8 013B     		sub	r3, r3, #1
 538 01aa 3081     		strh	r0, [r6, #8]
 539 01ac 3361     		str	r3, [r6, #16]
 540 01ae 03F028F8 		bl	.L146	@ far jump
 541              	.L173:
 542 01b2 631C     		add	r3, r4, #1
 543 01b4 3381     		strh	r3, [r6, #8]
 544 01b6 03F024F8 		bl	.L146	@ far jump
 545              	.L43:
  23:Codes.h       **** 
  24:Codes.h       **** /* RTI */
  25:Codes.h       **** case 0x40:
  26:Codes.h       ****   M_POP(R->P);R->P|=R_FLAG;M_POP(R->PC.B.l);M_POP(R->PC.B.h);
ARM GAS  /cygdrive/c/Users/Zbyszko/AppData/Local/Temp/cc6jOyxc.s 			page 15


 546              		.loc 2 26 0
 547 01ba 3079     		ldrb	r0, [r6, #4]
 548 01bc 0130     		add	r0, r0, #1
 549 01be 0006     		lsl	r0, r0, #24
 550 01c0 8024     		mov	r4, #128
 551 01c2 6400     		lsl	r4, r4, #1
 552 01c4 000E     		lsr	r0, r0, #24
 553 01c6 3071     		strb	r0, [r6, #4]
 554 01c8 2043     		orr	r0, r0, r4
 555 01ca FFF7FEFF 		bl	Rd6502
 556 01ce 2023     		mov	r3, #32
 557 01d0 1843     		orr	r0, r0, r3
 558 01d2 7070     		strb	r0, [r6, #1]
 559 01d4 3079     		ldrb	r0, [r6, #4]
 560 01d6 0130     		add	r0, r0, #1
 561 01d8 0006     		lsl	r0, r0, #24
 562 01da 000E     		lsr	r0, r0, #24
 563 01dc 3071     		strb	r0, [r6, #4]
 564 01de 2043     		orr	r0, r0, r4
 565 01e0 FFF7FEFF 		bl	Rd6502
 566 01e4 3072     		strb	r0, [r6, #8]
 567 01e6 3079     		ldrb	r0, [r6, #4]
 568 01e8 0130     		add	r0, r0, #1
 569 01ea 0006     		lsl	r0, r0, #24
 570 01ec 000E     		lsr	r0, r0, #24
 571 01ee 3071     		strb	r0, [r6, #4]
 572 01f0 2043     		orr	r0, r0, r4
 573 01f2 FFF7FEFF 		bl	Rd6502
 574 01f6 7072     		strb	r0, [r6, #9]
 575 01f8 03F003F8 		bl	.L146	@ far jump
 576              	.L61:
  27:Codes.h       ****   break;
  28:Codes.h       **** 
  29:Codes.h       **** /* RTS */
  30:Codes.h       **** case 0x60:
  31:Codes.h       ****   M_POP(R->PC.B.l);M_POP(R->PC.B.h);R->PC.W++;break;
 577              		.loc 2 31 0
 578 01fc 3079     		ldrb	r0, [r6, #4]
 579 01fe 0130     		add	r0, r0, #1
 580 0200 0006     		lsl	r0, r0, #24
 581 0202 8024     		mov	r4, #128
 582 0204 000E     		lsr	r0, r0, #24
 583 0206 6400     		lsl	r4, r4, #1
 584 0208 3071     		strb	r0, [r6, #4]
 585 020a 2043     		orr	r0, r0, r4
 586 020c FFF7FEFF 		bl	Rd6502
 587 0210 3072     		strb	r0, [r6, #8]
 588 0212 3079     		ldrb	r0, [r6, #4]
 589 0214 0130     		add	r0, r0, #1
 590 0216 0006     		lsl	r0, r0, #24
 591 0218 000E     		lsr	r0, r0, #24
 592 021a 3071     		strb	r0, [r6, #4]
 593 021c 2043     		orr	r0, r0, r4
 594 021e FFF7FEFF 		bl	Rd6502
 595 0222 7072     		strb	r0, [r6, #9]
 596 0224 3389     		ldrh	r3, [r6, #8]
 597 0226 0133     		add	r3, r3, #1
ARM GAS  /cygdrive/c/Users/Zbyszko/AppData/Local/Temp/cc6jOyxc.s 			page 16


 598 0228 3381     		strh	r3, [r6, #8]
 599 022a 02F0EAFF 		bl	.L146	@ far jump
 600              	.L24:
  32:Codes.h       **** 
  33:Codes.h       **** /* JSR $ssss ABS */
  34:Codes.h       **** case 0x20:
  35:Codes.h       ****   K.B.l=Op6502(R->PC.W++);
 601              		.loc 2 35 0
 602 022e 3089     		ldrh	r0, [r6, #8]
 603 0230 431C     		add	r3, r0, #1
 604 0232 3381     		strh	r3, [r6, #8]
 605 0234 FFF7FEFF 		bl	Rd6502
 606 0238 FF23     		mov	r3, #255
 607              	.LVL5:
 608 023a 291C     		mov	r1, r5
 609 023c 9943     		bic	r1, r1, r3
 610 023e 0D1C     		mov	r5, r1
 611 0240 0543     		orr	r5, r5, r0
  36:Codes.h       ****   K.B.h=Op6502(R->PC.W);
 612              		.loc 2 36 0
 613 0242 3089     		ldrh	r0, [r6, #8]
 614 0244 FFF7FEFF 		bl	Rd6502
 615 0248 6A4B     		ldr	r3, .L372+8
 616 024a 2B40     		and	r3, r3, r5
 617 024c 1D1C     		mov	r5, r3
 618 024e 0002     		lsl	r0, r0, #8
 619 0250 0543     		orr	r5, r5, r0
  37:Codes.h       ****   M_PUSH(R->PC.B.h);
 620              		.loc 2 37 0
 621 0252 8024     		mov	r4, #128
 622 0254 3079     		ldrb	r0, [r6, #4]
 623 0256 6400     		lsl	r4, r4, #1
 624 0258 2043     		orr	r0, r0, r4
 625 025a 717A     		ldrb	r1, [r6, #9]
 626 025c FFF7FEFF 		bl	Wr6502
 627 0260 3079     		ldrb	r0, [r6, #4]
 628 0262 0138     		sub	r0, r0, #1
 629 0264 0006     		lsl	r0, r0, #24
 630 0266 000E     		lsr	r0, r0, #24
 631 0268 3071     		strb	r0, [r6, #4]
  38:Codes.h       ****   M_PUSH(R->PC.B.l);
 632              		.loc 2 38 0
 633 026a 317A     		ldrb	r1, [r6, #8]
 634 026c 2043     		orr	r0, r0, r4
 635 026e FFF7FEFF 		bl	Wr6502
 636 0272 3379     		ldrb	r3, [r6, #4]
 637 0274 013B     		sub	r3, r3, #1
 638 0276 3371     		strb	r3, [r6, #4]
  39:Codes.h       ****   R->PC=K;break;
 639              		.loc 2 39 0
 640 0278 B560     		str	r5, [r6, #8]
 641 027a 02F0C2FF 		bl	.L146	@ far jump
 642              	.LVL6:
 643              	.L50:
  40:Codes.h       **** 
  41:Codes.h       **** /* JMP $ssss ABS */
  42:Codes.h       **** case 0x4C: M_LDWORD(K);R->PC=K;break;
ARM GAS  /cygdrive/c/Users/Zbyszko/AppData/Local/Temp/cc6jOyxc.s 			page 17


 644              		.loc 2 42 0
 645 027e 3089     		ldrh	r0, [r6, #8]
 646 0280 431C     		add	r3, r0, #1
 647 0282 3381     		strh	r3, [r6, #8]
 648 0284 FFF7FEFF 		bl	Rd6502
 649 0288 FF23     		mov	r3, #255
 650              	.LVL7:
 651 028a 2A1C     		mov	r2, r5
 652 028c 9A43     		bic	r2, r2, r3
 653 028e 151C     		mov	r5, r2
 654 0290 0543     		orr	r5, r5, r0
 655 0292 3089     		ldrh	r0, [r6, #8]
 656 0294 431C     		add	r3, r0, #1
 657 0296 3381     		strh	r3, [r6, #8]
 658 0298 FFF7FEFF 		bl	Rd6502
 659 029c 554B     		ldr	r3, .L372+8
 660 029e 2B40     		and	r3, r3, r5
 661 02a0 0002     		lsl	r0, r0, #8
 662 02a2 1D1C     		mov	r5, r3
 663 02a4 0543     		orr	r5, r5, r0
 664 02a6 B560     		str	r5, [r6, #8]
 665 02a8 02F0ABFF 		bl	.L146	@ far jump
 666              	.LVL8:
 667              	.L68:
  43:Codes.h       **** 
  44:Codes.h       **** /* JMP ($ssss) ABDINDIR */
  45:Codes.h       **** case 0x6C:
  46:Codes.h       ****   M_LDWORD(K);
 668              		.loc 2 46 0
 669 02ac 3089     		ldrh	r0, [r6, #8]
 670 02ae 431C     		add	r3, r0, #1
 671 02b0 3381     		strh	r3, [r6, #8]
 672 02b2 FFF7FEFF 		bl	Rd6502
 673 02b6 FF24     		mov	r4, #255
 674              	.LVL9:
 675 02b8 2B1C     		mov	r3, r5
 676 02ba A343     		bic	r3, r3, r4
 677 02bc 1D1C     		mov	r5, r3
 678 02be 0543     		orr	r5, r5, r0
 679 02c0 3089     		ldrh	r0, [r6, #8]
 680 02c2 431C     		add	r3, r0, #1
 681 02c4 3381     		strh	r3, [r6, #8]
 682 02c6 FFF7FEFF 		bl	Rd6502
 683 02ca 4A4B     		ldr	r3, .L372+8
 684 02cc 2B40     		and	r3, r3, r5
 685 02ce 1D1C     		mov	r5, r3
 686 02d0 0002     		lsl	r0, r0, #8
 687 02d2 0543     		orr	r5, r5, r0
  47:Codes.h       ****   R->PC.B.l=Rd6502(K.W);
 688              		.loc 2 47 0
 689 02d4 2804     		lsl	r0, r5, #16
 690 02d6 000C     		lsr	r0, r0, #16
 691 02d8 FFF7FEFF 		bl	Rd6502
  48:Codes.h       ****   K.B.l++;
 692              		.loc 2 48 0
 693 02dc 6B1C     		add	r3, r5, #1
 694 02de 2A1C     		mov	r2, r5
ARM GAS  /cygdrive/c/Users/Zbyszko/AppData/Local/Temp/cc6jOyxc.s 			page 18


 695 02e0 A243     		bic	r2, r2, r4
 696 02e2 1B06     		lsl	r3, r3, #24
 697 02e4 1B0E     		lsr	r3, r3, #24
 698 02e6 151C     		mov	r5, r2
 699 02e8 1D43     		orr	r5, r5, r3
 700              		.loc 2 47 0
 701 02ea 3072     		strb	r0, [r6, #8]
  49:Codes.h       ****   R->PC.B.h=Rd6502(K.W);
 702              		.loc 2 49 0
 703 02ec 2804     		lsl	r0, r5, #16
 704 02ee 000C     		lsr	r0, r0, #16
 705 02f0 FFF7FEFF 		bl	Rd6502
 706 02f4 7072     		strb	r0, [r6, #9]
 707 02f6 02F084FF 		bl	.L146	@ far jump
 708              	.LVL10:
 709              	.L7:
  50:Codes.h       ****   break;
  51:Codes.h       **** 
  52:Codes.h       **** /* BRK */
  53:Codes.h       **** case 0x00:
  54:Codes.h       ****   R->PC.W++;
 710              		.loc 2 54 0
 711 02fa 3389     		ldrh	r3, [r6, #8]
 712 02fc 0133     		add	r3, r3, #1
 713 02fe 3381     		strh	r3, [r6, #8]
  55:Codes.h       ****   M_PUSH(R->PC.B.h);M_PUSH(R->PC.B.l);
 714              		.loc 2 55 0
 715 0300 3079     		ldrb	r0, [r6, #4]
 716 0302 8024     		mov	r4, #128
 717 0304 6400     		lsl	r4, r4, #1
 718 0306 2043     		orr	r0, r0, r4
 719 0308 717A     		ldrb	r1, [r6, #9]
 720 030a FFF7FEFF 		bl	Wr6502
 721 030e 3079     		ldrb	r0, [r6, #4]
 722 0310 0138     		sub	r0, r0, #1
 723 0312 0006     		lsl	r0, r0, #24
 724 0314 000E     		lsr	r0, r0, #24
 725 0316 3071     		strb	r0, [r6, #4]
 726 0318 317A     		ldrb	r1, [r6, #8]
 727 031a 2043     		orr	r0, r0, r4
 728 031c FFF7FEFF 		bl	Wr6502
 729 0320 3079     		ldrb	r0, [r6, #4]
  56:Codes.h       ****   M_PUSH(R->P|B_FLAG);
 730              		.loc 2 56 0
 731 0322 7178     		ldrb	r1, [r6, #1]
 732 0324 1023     		mov	r3, #16
 733              		.loc 2 55 0
 734 0326 0138     		sub	r0, r0, #1
 735              		.loc 2 56 0
 736 0328 1943     		orr	r1, r1, r3
 737              		.loc 2 55 0
 738 032a 0006     		lsl	r0, r0, #24
 739 032c 000E     		lsr	r0, r0, #24
 740              		.loc 2 56 0
 741 032e 0906     		lsl	r1, r1, #24
 742 0330 090E     		lsr	r1, r1, #24
 743              		.loc 2 55 0
ARM GAS  /cygdrive/c/Users/Zbyszko/AppData/Local/Temp/cc6jOyxc.s 			page 19


 744 0332 3071     		strb	r0, [r6, #4]
 745              		.loc 2 56 0
 746 0334 2043     		orr	r0, r0, r4
 747 0336 FFF7FEFF 		bl	Wr6502
 748 033a 3379     		ldrb	r3, [r6, #4]
 749 033c 013B     		sub	r3, r3, #1
 750 033e 3371     		strb	r3, [r6, #4]
  57:Codes.h       ****   R->P=(R->P|I_FLAG)&~D_FLAG;
 751              		.loc 2 57 0
 752 0340 7378     		ldrb	r3, [r6, #1]
 753 0342 0422     		mov	r2, #4
 754 0344 1343     		orr	r3, r3, r2
 755 0346 0822     		mov	r2, #8
 756 0348 9343     		bic	r3, r3, r2
 757 034a 7370     		strb	r3, [r6, #1]
  58:Codes.h       ****   R->PC.B.l=Rd6502(0xFFFE);
 758              		.loc 2 58 0
 759 034c 2A48     		ldr	r0, .L372+12
 760 034e FFF7FEFF 		bl	Rd6502
 761 0352 3072     		strb	r0, [r6, #8]
  59:Codes.h       ****   R->PC.B.h=Rd6502(0xFFFF);
 762              		.loc 2 59 0
 763 0354 2948     		ldr	r0, .L372+16
 764 0356 FFF7FEFF 		bl	Rd6502
 765 035a 7072     		strb	r0, [r6, #9]
 766 035c 02F051FF 		bl	.L146	@ far jump
 767              	.L57:
  60:Codes.h       ****   break;
  61:Codes.h       **** 
  62:Codes.h       **** /* CLI */
  63:Codes.h       **** case 0x58:
  64:Codes.h       ****   if((R->IRequest!=INT_NONE)&&(R->P&I_FLAG))
 768              		.loc 2 64 0
 769 0360 337D     		ldrb	r3, [r6, #20]
 770 0362 002B     		cmp	r3, #0
 771 0364 07D0     		beq	.L175
 772 0366 7378     		ldrb	r3, [r6, #1]
 773 0368 5C07     		lsl	r4, r3, #29
 774 036a 04D5     		bpl	.L175
  65:Codes.h       ****   {
  66:Codes.h       ****     R->AfterCLI=1;
  67:Codes.h       ****     R->IBackup=R->ICount;
 775              		.loc 2 67 0
 776 036c 3369     		ldr	r3, [r6, #16]
 777              		.loc 2 66 0
 778 036e 0122     		mov	r2, #1
 779 0370 7275     		strb	r2, [r6, #21]
 780              		.loc 2 67 0
 781 0372 B361     		str	r3, [r6, #24]
  68:Codes.h       ****     R->ICount=1;
 782              		.loc 2 68 0
 783 0374 3261     		str	r2, [r6, #16]
 784              	.L175:
  69:Codes.h       ****   }
  70:Codes.h       ****   R->P&=~I_FLAG;
 785              		.loc 2 70 0
 786 0376 7378     		ldrb	r3, [r6, #1]
ARM GAS  /cygdrive/c/Users/Zbyszko/AppData/Local/Temp/cc6jOyxc.s 			page 20


 787 0378 0422     		mov	r2, #4
 788 037a 9343     		bic	r3, r3, r2
 789 037c 7370     		strb	r3, [r6, #1]
 790 037e 02F040FF 		bl	.L146	@ far jump
 791              	.L29:
  71:Codes.h       ****   break;
  72:Codes.h       **** 
  73:Codes.h       **** /* PLP */
  74:Codes.h       **** case 0x28:
  75:Codes.h       ****   M_POP(I);
 792              		.loc 2 75 0
 793 0382 3079     		ldrb	r0, [r6, #4]
 794 0384 0130     		add	r0, r0, #1
 795 0386 0006     		lsl	r0, r0, #24
 796 0388 8023     		mov	r3, #128
 797 038a 5B00     		lsl	r3, r3, #1
 798 038c 000E     		lsr	r0, r0, #24
 799 038e 3071     		strb	r0, [r6, #4]
 800 0390 1843     		orr	r0, r0, r3
 801 0392 FFF7FEFF 		bl	Rd6502
  76:Codes.h       ****   if((R->IRequest!=INT_NONE)&&((I^R->P)&~I&I_FLAG))
 802              		.loc 2 76 0
 803 0396 337D     		ldrb	r3, [r6, #20]
 804 0398 002B     		cmp	r3, #0
 805 039a 09D0     		beq	.L178
 806 039c 7378     		ldrb	r3, [r6, #1]
 807              	.LVL11:
 808 039e 4340     		eor	r3, r3, r0
 809 03a0 8343     		bic	r3, r3, r0
 810 03a2 5F07     		lsl	r7, r3, #29
 811 03a4 04D5     		bpl	.L178
  77:Codes.h       ****   {
  78:Codes.h       ****     R->AfterCLI=1;
  79:Codes.h       ****     R->IBackup=R->ICount;
 812              		.loc 2 79 0
 813 03a6 3369     		ldr	r3, [r6, #16]
 814              		.loc 2 78 0
 815 03a8 0122     		mov	r2, #1
 816 03aa 7275     		strb	r2, [r6, #21]
 817              		.loc 2 79 0
 818 03ac B361     		str	r3, [r6, #24]
  80:Codes.h       ****     R->ICount=1;
 819              		.loc 2 80 0
 820 03ae 3261     		str	r2, [r6, #16]
 821              	.L178:
  81:Codes.h       ****   }
  82:Codes.h       ****   R->P=I|R_FLAG|B_FLAG;
 822              		.loc 2 82 0
 823 03b0 3023     		mov	r3, #48
 824 03b2 0343     		orr	r3, r3, r0
 825 03b4 7370     		strb	r3, [r6, #1]
 826 03b6 02F024FF 		bl	.L146	@ far jump
 827              	.LVL12:
 828              	.L11:
  83:Codes.h       ****   break;
  84:Codes.h       **** 
  85:Codes.h       **** case 0x08: M_PUSH(R->P);break;               /* PHP */
ARM GAS  /cygdrive/c/Users/Zbyszko/AppData/Local/Temp/cc6jOyxc.s 			page 21


 829              		.loc 2 85 0
 830 03ba 3079     		ldrb	r0, [r6, #4]
 831 03bc 8023     		mov	r3, #128
 832 03be 5B00     		lsl	r3, r3, #1
 833 03c0 1843     		orr	r0, r0, r3
 834 03c2 7178     		ldrb	r1, [r6, #1]
 835 03c4 FFF7FEFF 		bl	Wr6502
 836 03c8 3379     		ldrb	r3, [r6, #4]
 837 03ca 013B     		sub	r3, r3, #1
 838 03cc 3371     		strb	r3, [r6, #4]
 839 03ce 02F018FF 		bl	.L146	@ far jump
 840              	.L20:
  86:Codes.h       **** case 0x18: R->P&=~C_FLAG;break;              /* CLC */
 841              		.loc 2 86 0
 842 03d2 7378     		ldrb	r3, [r6, #1]
 843 03d4 0122     		mov	r2, #1
 844 03d6 9343     		bic	r3, r3, r2
 845 03d8 7370     		strb	r3, [r6, #1]
 846 03da 02F012FF 		bl	.L146	@ far jump
 847              	.L114:
  87:Codes.h       **** case 0xB8: R->P&=~V_FLAG;break;              /* CLV */
 848              		.loc 2 87 0
 849 03de 7378     		ldrb	r3, [r6, #1]
 850 03e0 4022     		mov	r2, #64
 851 03e2 9343     		bic	r3, r3, r2
 852 03e4 7370     		strb	r3, [r6, #1]
 853 03e6 02F00CFF 		bl	.L146	@ far jump
 854              	.L373:
 855 03ea 0000     		.align	2
 856              	.L372:
 857 03ec FC030000 		.word	Cycles
 858 03f0 00000000 		.word	.L158
 859 03f4 FF00FFFF 		.word	-65281
 860 03f8 FEFF0000 		.word	65534
 861 03fc FFFF0000 		.word	65535
 862              	.L135:
  88:Codes.h       **** case 0xD8: R->P&=~D_FLAG;break;              /* CLD */
 863              		.loc 2 88 0
 864 0400 7378     		ldrb	r3, [r6, #1]
 865 0402 0822     		mov	r2, #8
 866 0404 9343     		bic	r3, r3, r2
 867 0406 7370     		strb	r3, [r6, #1]
 868 0408 02F0FBFE 		bl	.L146	@ far jump
 869              	.L39:
  89:Codes.h       **** case 0x38: R->P|=C_FLAG;break;               /* SEC */
 870              		.loc 2 89 0
 871 040c 7378     		ldrb	r3, [r6, #1]
 872 040e 0122     		mov	r2, #1
 873 0410 1343     		orr	r3, r3, r2
 874 0412 7370     		strb	r3, [r6, #1]
 875 0414 02F0F5FE 		bl	.L146	@ far jump
 876              	.L154:
  90:Codes.h       **** case 0xF8: R->P|=D_FLAG;break;               /* SED */
 877              		.loc 2 90 0
 878 0418 7378     		ldrb	r3, [r6, #1]
 879 041a 0822     		mov	r2, #8
 880 041c 1343     		orr	r3, r3, r2
ARM GAS  /cygdrive/c/Users/Zbyszko/AppData/Local/Temp/cc6jOyxc.s 			page 22


 881 041e 7370     		strb	r3, [r6, #1]
 882 0420 02F0EFFE 		bl	.L146	@ far jump
 883              	.L75:
  91:Codes.h       **** case 0x78: R->P|=I_FLAG;break;               /* SEI */
 884              		.loc 2 91 0
 885 0424 7378     		ldrb	r3, [r6, #1]
 886 0426 0422     		mov	r2, #4
 887 0428 1343     		orr	r3, r3, r2
 888 042a 7370     		strb	r3, [r6, #1]
 889 042c 02F0E9FE 		bl	.L146	@ far jump
 890              	.L47:
  92:Codes.h       **** case 0x48: M_PUSH(R->A);break;               /* PHA */
 891              		.loc 2 92 0
 892 0430 3079     		ldrb	r0, [r6, #4]
 893 0432 8023     		mov	r3, #128
 894 0434 5B00     		lsl	r3, r3, #1
 895 0436 1843     		orr	r0, r0, r3
 896 0438 3178     		ldrb	r1, [r6]
 897 043a FFF7FEFF 		bl	Wr6502
 898 043e 3379     		ldrb	r3, [r6, #4]
 899 0440 013B     		sub	r3, r3, #1
 900 0442 3371     		strb	r3, [r6, #4]
 901 0444 02F0DDFE 		bl	.L146	@ far jump
 902              	.L65:
  93:Codes.h       **** case 0x68: M_POP(R->A);M_FL(R->A);break;     /* PLA */
 903              		.loc 2 93 0
 904 0448 3079     		ldrb	r0, [r6, #4]
 905 044a 0130     		add	r0, r0, #1
 906 044c 0006     		lsl	r0, r0, #24
 907 044e 8023     		mov	r3, #128
 908 0450 5B00     		lsl	r3, r3, #1
 909 0452 000E     		lsr	r0, r0, #24
 910 0454 3071     		strb	r0, [r6, #4]
 911 0456 1843     		orr	r0, r0, r3
 912 0458 FFF7FEFF 		bl	Rd6502
 913 045c 7378     		ldrb	r3, [r6, #1]
 914 045e 7D22     		mov	r2, #125
 915 0460 1340     		and	r3, r3, r2
 916 0462 3070     		strb	r0, [r6]
 917 0464 ED4A     		ldr	r2, .L374
 918 0466 125C     		ldrb	r2, [r2, r0]
 919 0468 1343     		orr	r3, r3, r2
 920 046a 7370     		strb	r3, [r6, #1]
 921 046c 02F0C9FE 		bl	.L146	@ far jump
 922              	.L93:
  94:Codes.h       **** case 0x98: R->A=R->Y;M_FL(R->A);break;       /* TYA */
 923              		.loc 2 94 0
 924 0470 F178     		ldrb	r1, [r6, #3]
 925 0472 7378     		ldrb	r3, [r6, #1]
 926 0474 7D22     		mov	r2, #125
 927 0476 1340     		and	r3, r3, r2
 928 0478 3170     		strb	r1, [r6]
 929 047a E84A     		ldr	r2, .L374
 930 047c 525C     		ldrb	r2, [r2, r1]
 931 047e 1343     		orr	r3, r3, r2
 932 0480 7370     		strb	r3, [r6, #1]
 933 0482 02F0BEFE 		bl	.L146	@ far jump
ARM GAS  /cygdrive/c/Users/Zbyszko/AppData/Local/Temp/cc6jOyxc.s 			page 23


 934              	.L103:
  95:Codes.h       **** case 0xA8: R->Y=R->A;M_FL(R->Y);break;       /* TAY */
 935              		.loc 2 95 0
 936 0486 3178     		ldrb	r1, [r6]
 937 0488 7378     		ldrb	r3, [r6, #1]
 938 048a 7D22     		mov	r2, #125
 939 048c 1340     		and	r3, r3, r2
 940 048e F170     		strb	r1, [r6, #3]
 941 0490 E24A     		ldr	r2, .L374
 942 0492 525C     		ldrb	r2, [r2, r1]
 943 0494 1343     		orr	r3, r3, r2
 944 0496 7370     		strb	r3, [r6, #1]
 945 0498 02F0B3FE 		bl	.L146	@ far jump
 946              	.L125:
  96:Codes.h       **** case 0xC8: R->Y++;M_FL(R->Y);break;          /* INY */
 947              		.loc 2 96 0
 948 049c F378     		ldrb	r3, [r6, #3]
 949 049e 0133     		add	r3, r3, #1
 950 04a0 7278     		ldrb	r2, [r6, #1]
 951 04a2 1B06     		lsl	r3, r3, #24
 952 04a4 1B0E     		lsr	r3, r3, #24
 953 04a6 7D21     		mov	r1, #125
 954 04a8 0A40     		and	r2, r2, r1
 955 04aa F370     		strb	r3, [r6, #3]
 956 04ac DB49     		ldr	r1, .L374
 957 04ae CB5C     		ldrb	r3, [r1, r3]
 958 04b0 1A43     		orr	r2, r2, r3
 959 04b2 7270     		strb	r2, [r6, #1]
 960 04b4 02F0A5FE 		bl	.L146	@ far jump
 961              	.L83:
  97:Codes.h       **** case 0x88: R->Y--;M_FL(R->Y);break;          /* DEY */
 962              		.loc 2 97 0
 963 04b8 F378     		ldrb	r3, [r6, #3]
 964 04ba 013B     		sub	r3, r3, #1
 965 04bc 7278     		ldrb	r2, [r6, #1]
 966 04be 1B06     		lsl	r3, r3, #24
 967 04c0 1B0E     		lsr	r3, r3, #24
 968 04c2 7D21     		mov	r1, #125
 969 04c4 0A40     		and	r2, r2, r1
 970 04c6 F370     		strb	r3, [r6, #3]
 971 04c8 D449     		ldr	r1, .L374
 972 04ca CB5C     		ldrb	r3, [r1, r3]
 973 04cc 1A43     		orr	r2, r2, r3
 974 04ce 7270     		strb	r2, [r6, #1]
 975 04d0 02F097FE 		bl	.L146	@ far jump
 976              	.L84:
  98:Codes.h       **** case 0x8A: R->A=R->X;M_FL(R->A);break;       /* TXA */
 977              		.loc 2 98 0
 978 04d4 B178     		ldrb	r1, [r6, #2]
 979 04d6 7378     		ldrb	r3, [r6, #1]
 980 04d8 7D22     		mov	r2, #125
 981 04da 1340     		and	r3, r3, r2
 982 04dc 3170     		strb	r1, [r6]
 983 04de CF4A     		ldr	r2, .L374
 984 04e0 525C     		ldrb	r2, [r2, r1]
 985 04e2 1343     		orr	r3, r3, r2
 986 04e4 7370     		strb	r3, [r6, #1]
ARM GAS  /cygdrive/c/Users/Zbyszko/AppData/Local/Temp/cc6jOyxc.s 			page 24


 987 04e6 02F08CFE 		bl	.L146	@ far jump
 988              	.L105:
  99:Codes.h       **** case 0xAA: R->X=R->A;M_FL(R->X);break;       /* TAX */
 989              		.loc 2 99 0
 990 04ea 3178     		ldrb	r1, [r6]
 991 04ec 7378     		ldrb	r3, [r6, #1]
 992 04ee 7D22     		mov	r2, #125
 993 04f0 1340     		and	r3, r3, r2
 994 04f2 B170     		strb	r1, [r6, #2]
 995 04f4 C94A     		ldr	r2, .L374
 996 04f6 525C     		ldrb	r2, [r2, r1]
 997 04f8 1343     		orr	r3, r3, r2
 998 04fa 7370     		strb	r3, [r6, #1]
 999 04fc 02F081FE 		bl	.L146	@ far jump
 1000              	.L144:
 100:Codes.h       **** case 0xE8: R->X++;M_FL(R->X);break;          /* INX */
 1001              		.loc 2 100 0
 1002 0500 B378     		ldrb	r3, [r6, #2]
 1003 0502 0133     		add	r3, r3, #1
 1004 0504 7278     		ldrb	r2, [r6, #1]
 1005 0506 1B06     		lsl	r3, r3, #24
 1006 0508 1B0E     		lsr	r3, r3, #24
 1007 050a 7D21     		mov	r1, #125
 1008 050c 0A40     		and	r2, r2, r1
 1009 050e B370     		strb	r3, [r6, #2]
 1010 0510 C249     		ldr	r1, .L374
 1011 0512 CB5C     		ldrb	r3, [r1, r3]
 1012 0514 1A43     		orr	r2, r2, r3
 1013 0516 7270     		strb	r2, [r6, #1]
 1014 0518 02F073FE 		bl	.L146	@ far jump
 1015              	.L127:
 101:Codes.h       **** case 0xCA: R->X--;M_FL(R->X);break;          /* DEX */
 1016              		.loc 2 101 0
 1017 051c B378     		ldrb	r3, [r6, #2]
 1018 051e 013B     		sub	r3, r3, #1
 1019 0520 7278     		ldrb	r2, [r6, #1]
 1020 0522 1B06     		lsl	r3, r3, #24
 1021 0524 1B0E     		lsr	r3, r3, #24
 1022 0526 7D21     		mov	r1, #125
 1023 0528 0A40     		and	r2, r2, r1
 1024 052a B370     		strb	r3, [r6, #2]
 1025 052c BB49     		ldr	r1, .L374
 1026 052e CB5C     		ldrb	r3, [r1, r3]
 1027 0530 1A43     		orr	r2, r2, r3
 1028 0532 7270     		strb	r2, [r6, #1]
 1029 0534 02F065FE 		bl	.L146	@ far jump
 1030              	.L95:
 102:Codes.h       **** case 0xEA: break;                            /* NOP */
 103:Codes.h       **** case 0x9A: R->S=R->X;break;                  /* TXS */
 1031              		.loc 2 103 0
 1032 0538 B378     		ldrb	r3, [r6, #2]
 1033 053a 3371     		strb	r3, [r6, #4]
 1034 053c 02F061FE 		bl	.L146	@ far jump
 1035              	.L116:
 104:Codes.h       **** case 0xBA: R->X=R->S;M_FL(R->X);break;       /* TSX */
 1036              		.loc 2 104 0
 1037 0540 3179     		ldrb	r1, [r6, #4]
ARM GAS  /cygdrive/c/Users/Zbyszko/AppData/Local/Temp/cc6jOyxc.s 			page 25


 1038 0542 7378     		ldrb	r3, [r6, #1]
 1039 0544 7D22     		mov	r2, #125
 1040 0546 1340     		and	r3, r3, r2
 1041 0548 B170     		strb	r1, [r6, #2]
 1042 054a B44A     		ldr	r2, .L374
 1043 054c 525C     		ldrb	r2, [r2, r1]
 1044 054e 1343     		orr	r3, r3, r2
 1045 0550 7370     		strb	r3, [r6, #1]
 1046 0552 02F056FE 		bl	.L146	@ far jump
 1047              	.L26:
 105:Codes.h       **** 
 106:Codes.h       **** case 0x24: MR_Zp(I);M_BIT(I);break;       /* BIT $ss ZP */
 1048              		.loc 2 106 0
 1049 0556 3089     		ldrh	r0, [r6, #8]
 1050 0558 431C     		add	r3, r0, #1
 1051 055a 3381     		strh	r3, [r6, #8]
 1052 055c FFF7FEFF 		bl	Rd6502
 1053 0560 0004     		lsl	r0, r0, #16
 1054 0562 000C     		lsr	r0, r0, #16
 1055 0564 FFF7FEFF 		bl	Rd6502
 1056 0568 7278     		ldrb	r2, [r6, #1]
 1057 056a 3D23     		mov	r3, #61
 1058 056c 1A40     		and	r2, r2, r3
 1059 056e 3378     		ldrb	r3, [r6]
 1060 0570 7270     		strb	r2, [r6, #1]
 1061              	.LVL13:
 1062 0572 1842     		tst	r0, r3
 1063 0574 01D0     		beq	.L181
 1064 0576 0021     		mov	r1, #0
 1065 0578 00E0     		b	.L183
 1066              	.L181:
 1067 057a 0221     		mov	r1, #2
 1068              	.L183:
 1069 057c 4023     		mov	r3, #64
 1070 057e 5B42     		neg	r3, r3
 1071 0580 0340     		and	r3, r3, r0
 1072 0582 0A43     		orr	r2, r2, r1
 1073 0584 1343     		orr	r3, r3, r2
 1074 0586 7370     		strb	r3, [r6, #1]
 1075 0588 02F03BFE 		bl	.L146	@ far jump
 1076              	.LVL14:
 1077              	.L32:
 107:Codes.h       **** case 0x2C: MR_Ab(I);M_BIT(I);break;       /* BIT $ssss ABS */
 1078              		.loc 2 107 0
 1079 058c 3089     		ldrh	r0, [r6, #8]
 1080 058e 431C     		add	r3, r0, #1
 1081 0590 3381     		strh	r3, [r6, #8]
 1082 0592 FFF7FEFF 		bl	Rd6502
 1083 0596 FF23     		mov	r3, #255
 1084              	.LVL15:
 1085 0598 391C     		mov	r1, r7
 1086 059a 9943     		bic	r1, r1, r3
 1087 059c 0F1C     		mov	r7, r1
 1088 059e 0743     		orr	r7, r7, r0
 1089 05a0 3089     		ldrh	r0, [r6, #8]
 1090 05a2 431C     		add	r3, r0, #1
 1091 05a4 3381     		strh	r3, [r6, #8]
ARM GAS  /cygdrive/c/Users/Zbyszko/AppData/Local/Temp/cc6jOyxc.s 			page 26


 1092 05a6 FFF7FEFF 		bl	Rd6502
 1093 05aa 9D4B     		ldr	r3, .L374+4
 1094 05ac 3B40     		and	r3, r3, r7
 1095 05ae 1F1C     		mov	r7, r3
 1096 05b0 0002     		lsl	r0, r0, #8
 1097 05b2 0743     		orr	r7, r7, r0
 1098 05b4 3804     		lsl	r0, r7, #16
 1099 05b6 000C     		lsr	r0, r0, #16
 1100 05b8 FFF7FEFF 		bl	Rd6502
 1101 05bc 7278     		ldrb	r2, [r6, #1]
 1102 05be 3D23     		mov	r3, #61
 1103 05c0 1A40     		and	r2, r2, r3
 1104 05c2 3378     		ldrb	r3, [r6]
 1105 05c4 7270     		strb	r2, [r6, #1]
 1106              	.LVL16:
 1107 05c6 1842     		tst	r0, r3
 1108 05c8 01D0     		beq	.L184
 1109 05ca 0021     		mov	r1, #0
 1110 05cc 00E0     		b	.L186
 1111              	.L184:
 1112 05ce 0221     		mov	r1, #2
 1113              	.L186:
 1114 05d0 4023     		mov	r3, #64
 1115 05d2 5B42     		neg	r3, r3
 1116 05d4 0340     		and	r3, r3, r0
 1117 05d6 0A43     		orr	r2, r2, r1
 1118 05d8 1343     		orr	r3, r3, r2
 1119 05da 7370     		strb	r3, [r6, #1]
 1120 05dc 02F011FE 		bl	.L146	@ far jump
 1121              	.LVL17:
 1122              	.L9:
 108:Codes.h       **** 
 109:Codes.h       **** case 0x05: MR_Zp(I);M_ORA(I);break;       /* ORA $ss ZP */
 1123              		.loc 2 109 0
 1124 05e0 3089     		ldrh	r0, [r6, #8]
 1125 05e2 431C     		add	r3, r0, #1
 1126 05e4 3381     		strh	r3, [r6, #8]
 1127 05e6 FFF7FEFF 		bl	Rd6502
 1128 05ea 0004     		lsl	r0, r0, #16
 1129 05ec 000C     		lsr	r0, r0, #16
 1130 05ee FFF7FEFF 		bl	Rd6502
 1131 05f2 3378     		ldrb	r3, [r6]
 1132 05f4 0343     		orr	r3, r3, r0
 1133 05f6 7278     		ldrb	r2, [r6, #1]
 1134 05f8 1B06     		lsl	r3, r3, #24
 1135 05fa 1B0E     		lsr	r3, r3, #24
 1136 05fc 7D21     		mov	r1, #125
 1137 05fe 0A40     		and	r2, r2, r1
 1138 0600 3370     		strb	r3, [r6]
 1139 0602 8649     		ldr	r1, .L374
 1140 0604 CB5C     		ldrb	r3, [r1, r3]
 1141 0606 1A43     		orr	r2, r2, r3
 1142 0608 7270     		strb	r2, [r6, #1]
 1143 060a 02F0FAFD 		bl	.L146	@ far jump
 1144              	.L10:
 110:Codes.h       **** case 0x06: MM_Zp(M_ASL);break;            /* ASL $ss ZP */
 1145              		.loc 2 110 0
ARM GAS  /cygdrive/c/Users/Zbyszko/AppData/Local/Temp/cc6jOyxc.s 			page 27


 1146 060e 3089     		ldrh	r0, [r6, #8]
 1147 0610 431C     		add	r3, r0, #1
 1148 0612 3381     		strh	r3, [r6, #8]
 1149 0614 FFF7FEFF 		bl	Rd6502
 1150 0618 0404     		lsl	r4, r0, #16
 1151 061a 240C     		lsr	r4, r4, #16
 1152 061c 201C     		mov	r0, r4
 1153 061e FFF7FEFF 		bl	Rd6502
 1154 0622 7378     		ldrb	r3, [r6, #1]
 1155 0624 FE22     		mov	r2, #254
 1156 0626 1340     		and	r3, r3, r2
 1157 0628 C209     		lsr	r2, r0, #7
 1158 062a 1343     		orr	r3, r3, r2
 1159 062c 1B06     		lsl	r3, r3, #24
 1160 062e 1B0E     		lsr	r3, r3, #24
 1161 0630 7D22     		mov	r2, #125
 1162 0632 7370     		strb	r3, [r6, #1]
 1163 0634 4106     		lsl	r1, r0, #25
 1164 0636 1340     		and	r3, r3, r2
 1165 0638 784A     		ldr	r2, .L374
 1166 063a 090E     		lsr	r1, r1, #24
 1167 063c 525C     		ldrb	r2, [r2, r1]
 1168 063e 1343     		orr	r3, r3, r2
 1169 0640 7370     		strb	r3, [r6, #1]
 1170 0642 201C     		mov	r0, r4
 1171 0644 FFF7FEFF 		bl	Wr6502
 1172 0648 02F0DBFD 		bl	.L146	@ far jump
 1173              	.L27:
 111:Codes.h       **** case 0x25: MR_Zp(I);M_AND(I);break;       /* AND $ss ZP */
 1174              		.loc 2 111 0
 1175 064c 3089     		ldrh	r0, [r6, #8]
 1176 064e 431C     		add	r3, r0, #1
 1177 0650 3381     		strh	r3, [r6, #8]
 1178 0652 FFF7FEFF 		bl	Rd6502
 1179 0656 0004     		lsl	r0, r0, #16
 1180 0658 000C     		lsr	r0, r0, #16
 1181 065a FFF7FEFF 		bl	Rd6502
 1182 065e 3178     		ldrb	r1, [r6]
 1183 0660 7378     		ldrb	r3, [r6, #1]
 1184 0662 0140     		and	r1, r1, r0
 1185 0664 7D22     		mov	r2, #125
 1186 0666 1340     		and	r3, r3, r2
 1187 0668 3170     		strb	r1, [r6]
 1188 066a 6C4A     		ldr	r2, .L374
 1189 066c 525C     		ldrb	r2, [r2, r1]
 1190 066e 1343     		orr	r3, r3, r2
 1191 0670 7370     		strb	r3, [r6, #1]
 1192 0672 02F0C6FD 		bl	.L146	@ far jump
 1193              	.L28:
 112:Codes.h       **** case 0x26: MM_Zp(M_ROL);break;            /* ROL $ss ZP */
 1194              		.loc 2 112 0
 1195 0676 3089     		ldrh	r0, [r6, #8]
 1196 0678 431C     		add	r3, r0, #1
 1197 067a 3381     		strh	r3, [r6, #8]
 1198 067c FFF7FEFF 		bl	Rd6502
 1199 0680 0404     		lsl	r4, r0, #16
 1200 0682 240C     		lsr	r4, r4, #16
ARM GAS  /cygdrive/c/Users/Zbyszko/AppData/Local/Temp/cc6jOyxc.s 			page 28


 1201 0684 201C     		mov	r0, r4
 1202 0686 FFF7FEFF 		bl	Rd6502
 1203 068a 7278     		ldrb	r2, [r6, #1]
 1204 068c 0121     		mov	r1, #1
 1205 068e 1140     		and	r1, r1, r2
 1206 0690 4300     		lsl	r3, r0, #1
 1207 0692 0B43     		orr	r3, r3, r1
 1208              	.LVL18:
 1209 0694 2F1C     		mov	r7, r5
 1210 0696 FF21     		mov	r1, #255
 1211 0698 8F43     		bic	r7, r7, r1
 1212 069a 1B06     		lsl	r3, r3, #24
 1213 069c 1B0E     		lsr	r3, r3, #24
 1214 069e 3D1C     		mov	r5, r7
 1215 06a0 1D43     		orr	r5, r5, r3
 1216 06a2 FE23     		mov	r3, #254
 1217 06a4 1A40     		and	r2, r2, r3
 1218 06a6 C009     		lsr	r0, r0, #7
 1219 06a8 0243     		orr	r2, r2, r0
 1220 06aa 1206     		lsl	r2, r2, #24
 1221 06ac 120E     		lsr	r2, r2, #24
 1222 06ae 7D23     		mov	r3, #125
 1223 06b0 7270     		strb	r2, [r6, #1]
 1224 06b2 2906     		lsl	r1, r5, #24
 1225 06b4 1A40     		and	r2, r2, r3
 1226 06b6 594B     		ldr	r3, .L374
 1227 06b8 090E     		lsr	r1, r1, #24
 1228 06ba 5B5C     		ldrb	r3, [r3, r1]
 1229 06bc 1A43     		orr	r2, r2, r3
 1230 06be 7270     		strb	r2, [r6, #1]
 1231 06c0 201C     		mov	r0, r4
 1232 06c2 FFF7FEFF 		bl	Wr6502
 1233 06c6 02F09CFD 		bl	.L146	@ far jump
 1234              	.LVL19:
 1235              	.L45:
 113:Codes.h       **** case 0x45: MR_Zp(I);M_EOR(I);break;       /* EOR $ss ZP */
 1236              		.loc 2 113 0
 1237 06ca 3089     		ldrh	r0, [r6, #8]
 1238 06cc 431C     		add	r3, r0, #1
 1239 06ce 3381     		strh	r3, [r6, #8]
 1240 06d0 FFF7FEFF 		bl	Rd6502
 1241 06d4 0004     		lsl	r0, r0, #16
 1242 06d6 000C     		lsr	r0, r0, #16
 1243 06d8 FFF7FEFF 		bl	Rd6502
 1244 06dc 3378     		ldrb	r3, [r6]
 1245 06de 4340     		eor	r3, r3, r0
 1246 06e0 7278     		ldrb	r2, [r6, #1]
 1247 06e2 1B06     		lsl	r3, r3, #24
 1248 06e4 1B0E     		lsr	r3, r3, #24
 1249 06e6 7D21     		mov	r1, #125
 1250 06e8 0A40     		and	r2, r2, r1
 1251 06ea 3370     		strb	r3, [r6]
 1252 06ec 4B49     		ldr	r1, .L374
 1253 06ee CB5C     		ldrb	r3, [r1, r3]
 1254 06f0 1A43     		orr	r2, r2, r3
 1255 06f2 7270     		strb	r2, [r6, #1]
 1256 06f4 02F085FD 		bl	.L146	@ far jump
ARM GAS  /cygdrive/c/Users/Zbyszko/AppData/Local/Temp/cc6jOyxc.s 			page 29


 1257              	.L46:
 114:Codes.h       **** case 0x46: MM_Zp(M_LSR);break;            /* LSR $ss ZP */
 1258              		.loc 2 114 0
 1259 06f8 3089     		ldrh	r0, [r6, #8]
 1260 06fa 431C     		add	r3, r0, #1
 1261 06fc 3381     		strh	r3, [r6, #8]
 1262 06fe FFF7FEFF 		bl	Rd6502
 1263 0702 0404     		lsl	r4, r0, #16
 1264 0704 240C     		lsr	r4, r4, #16
 1265 0706 201C     		mov	r0, r4
 1266 0708 FFF7FEFF 		bl	Rd6502
 1267 070c 7378     		ldrb	r3, [r6, #1]
 1268 070e 0122     		mov	r2, #1
 1269 0710 9343     		bic	r3, r3, r2
 1270 0712 0240     		and	r2, r2, r0
 1271 0714 1343     		orr	r3, r3, r2
 1272 0716 7D22     		mov	r2, #125
 1273 0718 7370     		strb	r3, [r6, #1]
 1274 071a C105     		lsl	r1, r0, #23
 1275 071c 1340     		and	r3, r3, r2
 1276 071e 3F4A     		ldr	r2, .L374
 1277 0720 090E     		lsr	r1, r1, #24
 1278 0722 525C     		ldrb	r2, [r2, r1]
 1279 0724 1343     		orr	r3, r3, r2
 1280 0726 7370     		strb	r3, [r6, #1]
 1281 0728 201C     		mov	r0, r4
 1282 072a FFF7FEFF 		bl	Wr6502
 1283 072e 02F068FD 		bl	.L146	@ far jump
 1284              	.L63:
 115:Codes.h       **** case 0x65: MR_Zp(I);M_ADC(I);break;       /* ADC $ss ZP */
 1285              		.loc 2 115 0
 1286 0732 3089     		ldrh	r0, [r6, #8]
 1287 0734 431C     		add	r3, r0, #1
 1288 0736 3381     		strh	r3, [r6, #8]
 1289 0738 FFF7FEFF 		bl	Rd6502
 1290 073c 0004     		lsl	r0, r0, #16
 1291 073e 000C     		lsr	r0, r0, #16
 1292 0740 FFF7FEFF 		bl	Rd6502
 1293 0744 7778     		ldrb	r7, [r6, #1]
 1294 0746 3478     		ldrb	r4, [r6]
 1295 0748 3907     		lsl	r1, r7, #28
 1296 074a 3AD5     		bpl	.L187
 1297 074c 0F22     		mov	r2, #15
 1298 074e 111C     		mov	r1, r2
 1299 0750 131C     		mov	r3, r2
 1300 0752 9446     		mov	ip, r2
 1301 0754 0122     		mov	r2, #1
 1302 0756 3A40     		and	r2, r2, r7
 1303 0758 2340     		and	r3, r3, r4
 1304 075a 9B18     		add	r3, r3, r2
 1305              	.LVL20:
 1306 075c 0140     		and	r1, r1, r0
 1307 075e C918     		add	r1, r1, r3
 1308 0760 FF22     		mov	r2, #255
 1309              	.LVL21:
 1310 0762 2B1C     		mov	r3, r5
 1311 0764 9343     		bic	r3, r3, r2
ARM GAS  /cygdrive/c/Users/Zbyszko/AppData/Local/Temp/cc6jOyxc.s 			page 30


 1312 0766 1D1C     		mov	r5, r3
 1313 0768 0D43     		orr	r5, r5, r1
 1314 076a 2B06     		lsl	r3, r5, #24
 1315 076c 1B0E     		lsr	r3, r3, #24
 1316 076e 092B     		cmp	r3, #9
 1317 0770 06D9     		bls	.L189
 1318 0772 291C     		mov	r1, r5
 1319 0774 0633     		add	r3, r3, #6
 1320 0776 1B06     		lsl	r3, r3, #24
 1321 0778 9143     		bic	r1, r1, r2
 1322 077a 1B0E     		lsr	r3, r3, #24
 1323 077c 0D1C     		mov	r5, r1
 1324 077e 1D43     		orr	r5, r5, r3
 1325              	.L189:
 1326 0780 2B06     		lsl	r3, r5, #24
 1327 0782 1B0E     		lsr	r3, r3, #24
 1328 0784 2209     		lsr	r2, r4, #4
 1329 0786 0009     		lsr	r0, r0, #4
 1330              	.LVL22:
 1331 0788 0024     		mov	r4, #0
 1332 078a 0F2B     		cmp	r3, #15
 1333 078c 00D9     		bls	.L191
 1334 078e 0124     		mov	r4, #1
 1335              	.L191:
 1336 0790 1219     		add	r2, r2, r4
 1337 0792 8218     		add	r2, r0, r2
 1338 0794 224B     		ldr	r3, .L374+4
 1339 0796 1206     		lsl	r2, r2, #24
 1340 0798 120E     		lsr	r2, r2, #24
 1341 079a 2B40     		and	r3, r3, r5
 1342 079c 1102     		lsl	r1, r2, #8
 1343 079e 1D1C     		mov	r5, r3
 1344 07a0 0D43     		orr	r5, r5, r1
 1345 07a2 6346     		mov	r3, ip
 1346 07a4 1101     		lsl	r1, r2, #4
 1347 07a6 2B40     		and	r3, r3, r5
 1348 07a8 0B43     		orr	r3, r3, r1
 1349 07aa 3370     		strb	r3, [r6]
 1350 07ac 0124     		mov	r4, #1
 1351 07ae 3B1C     		mov	r3, r7
 1352 07b0 A343     		bic	r3, r3, r4
 1353 07b2 0021     		mov	r1, #0
 1354 07b4 0F2A     		cmp	r2, #15
 1355 07b6 00D9     		bls	.L192
 1356 07b8 0121     		mov	r1, #1
 1357              	.L192:
 1358 07ba 0B43     		orr	r3, r3, r1
 1359 07bc 7370     		strb	r3, [r6, #1]
 1360 07be 02F020FD 		bl	.L146	@ far jump
 1361              	.LVL23:
 1362              	.L187:
 1363 07c2 0123     		mov	r3, #1
 1364 07c4 3B40     		and	r3, r3, r7
 1365 07c6 E318     		add	r3, r4, r3
 1366 07c8 164A     		ldr	r2, .L374+8
 1367              	.LVL24:
 1368 07ca C318     		add	r3, r0, r3
ARM GAS  /cygdrive/c/Users/Zbyszko/AppData/Local/Temp/cc6jOyxc.s 			page 31


 1369              	.LVL25:
 1370 07cc 2A40     		and	r2, r2, r5
 1371 07ce 1B04     		lsl	r3, r3, #16
 1372 07d0 1B0C     		lsr	r3, r3, #16
 1373 07d2 151C     		mov	r5, r2
 1374 07d4 1D43     		orr	r5, r5, r3
 1375 07d6 3C23     		mov	r3, #60
 1376 07d8 1F40     		and	r7, r7, r3
 1377 07da 221C     		mov	r2, r4
 1378 07dc 2B06     		lsl	r3, r5, #24
 1379 07de BC46     		mov	ip, r7
 1380 07e0 7770     		strb	r7, [r6, #1]
 1381 07e2 4240     		eor	r2, r2, r0
 1382 07e4 1F0E     		lsr	r7, r3, #24
 1383 07e6 231C     		mov	r3, r4
 1384 07e8 1206     		lsl	r2, r2, #24
 1385 07ea 7B40     		eor	r3, r3, r7
 1386 07ec 8021     		mov	r1, #128
 1387 07ee 120E     		lsr	r2, r2, #24
 1388 07f0 0B40     		and	r3, r3, r1
 1389 07f2 9343     		bic	r3, r2
 1390 07f4 01D0     		beq	.L193
 1391 07f6 4022     		mov	r2, #64
 1392 07f8 00E0     		b	.L195
 1393              	.L193:
 1394 07fa 0022     		mov	r2, #0
 1395              	.L195:
 1396 07fc 2B04     		lsl	r3, r5, #16
 1397 07fe 1B0E     		lsr	r3, r3, #24
 1398 0800 0649     		ldr	r1, .L374
 1399 0802 0020     		mov	r0, #0
 1400              	.LVL26:
 1401 0804 002B     		cmp	r3, #0
 1402 0806 00D0     		beq	.L196
 1403 0808 0120     		mov	r0, #1
 1404              	.L196:
 1405 080a CB5D     		ldrb	r3, [r1, r7]
 1406 080c 6146     		mov	r1, ip
 1407 080e 0343     		orr	r3, r3, r0
 1408 0810 0A43     		orr	r2, r2, r1
 1409 0812 1343     		orr	r3, r3, r2
 1410 0814 7370     		strb	r3, [r6, #1]
 1411 0816 3770     		strb	r7, [r6]
 1412 0818 02F0F3FC 		bl	.L146	@ far jump
 1413              	.L375:
 1414              		.align	2
 1415              	.L374:
 1416 081c 00000000 		.word	ZNTable
 1417 0820 FF00FFFF 		.word	-65281
 1418 0824 0000FFFF 		.word	-65536
 1419              	.LVL27:
 1420              	.L64:
 116:Codes.h       **** case 0x66: MM_Zp(M_ROR);break;            /* ROR $ss ZP */
 1421              		.loc 2 116 0
 1422 0828 3089     		ldrh	r0, [r6, #8]
 1423 082a 431C     		add	r3, r0, #1
 1424 082c 3381     		strh	r3, [r6, #8]
ARM GAS  /cygdrive/c/Users/Zbyszko/AppData/Local/Temp/cc6jOyxc.s 			page 32


 1425 082e FFF7FEFF 		bl	Rd6502
 1426 0832 0304     		lsl	r3, r0, #16
 1427 0834 1F0C     		lsr	r7, r3, #16
 1428 0836 381C     		mov	r0, r7
 1429 0838 FFF7FEFF 		bl	Rd6502
 1430 083c 7478     		ldrb	r4, [r6, #1]
 1431 083e 4308     		lsr	r3, r0, #1
 1432 0840 E201     		lsl	r2, r4, #7
 1433 0842 1343     		orr	r3, r3, r2
 1434              	.LVL28:
 1435 0844 291C     		mov	r1, r5
 1436 0846 FF22     		mov	r2, #255
 1437 0848 9143     		bic	r1, r1, r2
 1438 084a 1B06     		lsl	r3, r3, #24
 1439 084c 1B0E     		lsr	r3, r3, #24
 1440 084e 0D1C     		mov	r5, r1
 1441 0850 1D43     		orr	r5, r5, r3
 1442 0852 0123     		mov	r3, #1
 1443 0854 1840     		and	r0, r0, r3
 1444 0856 9C43     		bic	r4, r4, r3
 1445 0858 0443     		orr	r4, r4, r0
 1446 085a 7D23     		mov	r3, #125
 1447 085c 7470     		strb	r4, [r6, #1]
 1448 085e 2906     		lsl	r1, r5, #24
 1449 0860 1C40     		and	r4, r4, r3
 1450 0862 ED4B     		ldr	r3, .L376
 1451 0864 090E     		lsr	r1, r1, #24
 1452 0866 5B5C     		ldrb	r3, [r3, r1]
 1453 0868 1C43     		orr	r4, r4, r3
 1454 086a 7470     		strb	r4, [r6, #1]
 1455 086c 381C     		mov	r0, r7
 1456 086e FFF7FEFF 		bl	Wr6502
 1457 0872 02F0C6FC 		bl	.L146	@ far jump
 1458              	.LVL29:
 1459              	.L80:
 117:Codes.h       **** case 0x84: MW_Zp(R->Y);break;             /* STY $ss ZP */
 1460              		.loc 2 117 0
 1461 0876 3089     		ldrh	r0, [r6, #8]
 1462 0878 431C     		add	r3, r0, #1
 1463 087a 3381     		strh	r3, [r6, #8]
 1464 087c FFF7FEFF 		bl	Rd6502
 1465 0880 0004     		lsl	r0, r0, #16
 1466 0882 000C     		lsr	r0, r0, #16
 1467 0884 F178     		ldrb	r1, [r6, #3]
 1468 0886 FFF7FEFF 		bl	Wr6502
 1469 088a 02F0BAFC 		bl	.L146	@ far jump
 1470              	.L81:
 118:Codes.h       **** case 0x85: MW_Zp(R->A);break;             /* STA $ss ZP */
 1471              		.loc 2 118 0
 1472 088e 3089     		ldrh	r0, [r6, #8]
 1473 0890 431C     		add	r3, r0, #1
 1474 0892 3381     		strh	r3, [r6, #8]
 1475 0894 FFF7FEFF 		bl	Rd6502
 1476 0898 0004     		lsl	r0, r0, #16
 1477 089a 000C     		lsr	r0, r0, #16
 1478 089c 3178     		ldrb	r1, [r6]
 1479 089e FFF7FEFF 		bl	Wr6502
ARM GAS  /cygdrive/c/Users/Zbyszko/AppData/Local/Temp/cc6jOyxc.s 			page 33


 1480 08a2 02F0AEFC 		bl	.L146	@ far jump
 1481              	.L82:
 119:Codes.h       **** case 0x86: MW_Zp(R->X);break;             /* STX $ss ZP */
 1482              		.loc 2 119 0
 1483 08a6 3089     		ldrh	r0, [r6, #8]
 1484 08a8 431C     		add	r3, r0, #1
 1485 08aa 3381     		strh	r3, [r6, #8]
 1486 08ac FFF7FEFF 		bl	Rd6502
 1487 08b0 0004     		lsl	r0, r0, #16
 1488 08b2 000C     		lsr	r0, r0, #16
 1489 08b4 B178     		ldrb	r1, [r6, #2]
 1490 08b6 FFF7FEFF 		bl	Wr6502
 1491 08ba 02F0A2FC 		bl	.L146	@ far jump
 1492              	.L100:
 120:Codes.h       **** case 0xA4: MR_Zp(R->Y);M_FL(R->Y);break;  /* LDY $ss ZP */
 1493              		.loc 2 120 0
 1494 08be 3089     		ldrh	r0, [r6, #8]
 1495 08c0 431C     		add	r3, r0, #1
 1496 08c2 3381     		strh	r3, [r6, #8]
 1497 08c4 FFF7FEFF 		bl	Rd6502
 1498 08c8 0004     		lsl	r0, r0, #16
 1499 08ca 000C     		lsr	r0, r0, #16
 1500 08cc FFF7FEFF 		bl	Rd6502
 1501 08d0 7378     		ldrb	r3, [r6, #1]
 1502 08d2 7D22     		mov	r2, #125
 1503 08d4 1340     		and	r3, r3, r2
 1504 08d6 F070     		strb	r0, [r6, #3]
 1505 08d8 CF4A     		ldr	r2, .L376
 1506 08da 125C     		ldrb	r2, [r2, r0]
 1507 08dc 1343     		orr	r3, r3, r2
 1508 08de 7370     		strb	r3, [r6, #1]
 1509 08e0 02F08FFC 		bl	.L146	@ far jump
 1510              	.L101:
 121:Codes.h       **** case 0xA5: MR_Zp(R->A);M_FL(R->A);break;  /* LDA $ss ZP */
 1511              		.loc 2 121 0
 1512 08e4 3089     		ldrh	r0, [r6, #8]
 1513 08e6 431C     		add	r3, r0, #1
 1514 08e8 3381     		strh	r3, [r6, #8]
 1515 08ea FFF7FEFF 		bl	Rd6502
 1516 08ee 0004     		lsl	r0, r0, #16
 1517 08f0 000C     		lsr	r0, r0, #16
 1518 08f2 FFF7FEFF 		bl	Rd6502
 1519 08f6 7378     		ldrb	r3, [r6, #1]
 1520 08f8 7D22     		mov	r2, #125
 1521 08fa 1340     		and	r3, r3, r2
 1522 08fc 3070     		strb	r0, [r6]
 1523 08fe C64A     		ldr	r2, .L376
 1524 0900 125C     		ldrb	r2, [r2, r0]
 1525 0902 1343     		orr	r3, r3, r2
 1526 0904 7370     		strb	r3, [r6, #1]
 1527 0906 02F07CFC 		bl	.L146	@ far jump
 1528              	.L102:
 122:Codes.h       **** case 0xA6: MR_Zp(R->X);M_FL(R->X);break;  /* LDX $ss ZP */
 1529              		.loc 2 122 0
 1530 090a 3089     		ldrh	r0, [r6, #8]
 1531 090c 431C     		add	r3, r0, #1
 1532 090e 3381     		strh	r3, [r6, #8]
ARM GAS  /cygdrive/c/Users/Zbyszko/AppData/Local/Temp/cc6jOyxc.s 			page 34


 1533 0910 FFF7FEFF 		bl	Rd6502
 1534 0914 0004     		lsl	r0, r0, #16
 1535 0916 000C     		lsr	r0, r0, #16
 1536 0918 FFF7FEFF 		bl	Rd6502
 1537 091c 7378     		ldrb	r3, [r6, #1]
 1538 091e 7D22     		mov	r2, #125
 1539 0920 1340     		and	r3, r3, r2
 1540 0922 B070     		strb	r0, [r6, #2]
 1541 0924 BC4A     		ldr	r2, .L376
 1542 0926 125C     		ldrb	r2, [r2, r0]
 1543 0928 1343     		orr	r3, r3, r2
 1544 092a 7370     		strb	r3, [r6, #1]
 1545 092c 02F069FC 		bl	.L146	@ far jump
 1546              	.L122:
 123:Codes.h       **** case 0xC4: MR_Zp(I);M_CMP(R->Y,I);break;  /* CPY $ss ZP */
 1547              		.loc 2 123 0
 1548 0930 3089     		ldrh	r0, [r6, #8]
 1549 0932 431C     		add	r3, r0, #1
 1550 0934 3381     		strh	r3, [r6, #8]
 1551 0936 FFF7FEFF 		bl	Rd6502
 1552 093a 0004     		lsl	r0, r0, #16
 1553 093c 000C     		lsr	r0, r0, #16
 1554 093e FFF7FEFF 		bl	Rd6502
 1555 0942 F378     		ldrb	r3, [r6, #3]
 1556 0944 B54A     		ldr	r2, .L376+4
 1557 0946 1B1A     		sub	r3, r3, r0
 1558              	.LVL30:
 1559 0948 2A40     		and	r2, r2, r5
 1560 094a 1B04     		lsl	r3, r3, #16
 1561 094c 1B0C     		lsr	r3, r3, #16
 1562 094e 151C     		mov	r5, r2
 1563 0950 7278     		ldrb	r2, [r6, #1]
 1564 0952 1D43     		orr	r5, r5, r3
 1565 0954 7C23     		mov	r3, #124
 1566 0956 1A40     		and	r2, r2, r3
 1567 0958 2B06     		lsl	r3, r5, #24
 1568 095a 190E     		lsr	r1, r3, #24
 1569 095c 2B04     		lsl	r3, r5, #16
 1570 095e 1B0E     		lsr	r3, r3, #24
 1571 0960 7270     		strb	r2, [r6, #1]
 1572 0962 AD4C     		ldr	r4, .L376
 1573 0964 0020     		mov	r0, #0
 1574 0966 002B     		cmp	r3, #0
 1575 0968 00D1     		bne	.L197
 1576 096a 0120     		mov	r0, #1
 1577              	.L197:
 1578 096c 635C     		ldrb	r3, [r4, r1]
 1579 096e 0243     		orr	r2, r2, r0
 1580 0970 1343     		orr	r3, r3, r2
 1581 0972 7370     		strb	r3, [r6, #1]
 1582 0974 02F045FC 		bl	.L146	@ far jump
 1583              	.LVL31:
 1584              	.L123:
 124:Codes.h       **** case 0xC5: MR_Zp(I);M_CMP(R->A,I);break;  /* CMP $ss ZP */
 1585              		.loc 2 124 0
 1586 0978 3089     		ldrh	r0, [r6, #8]
 1587 097a 431C     		add	r3, r0, #1
ARM GAS  /cygdrive/c/Users/Zbyszko/AppData/Local/Temp/cc6jOyxc.s 			page 35


 1588 097c 3381     		strh	r3, [r6, #8]
 1589 097e FFF7FEFF 		bl	Rd6502
 1590 0982 0004     		lsl	r0, r0, #16
 1591 0984 000C     		lsr	r0, r0, #16
 1592 0986 FFF7FEFF 		bl	Rd6502
 1593 098a 3378     		ldrb	r3, [r6]
 1594 098c A34A     		ldr	r2, .L376+4
 1595 098e 1B1A     		sub	r3, r3, r0
 1596              	.LVL32:
 1597 0990 2A40     		and	r2, r2, r5
 1598 0992 1B04     		lsl	r3, r3, #16
 1599 0994 1B0C     		lsr	r3, r3, #16
 1600 0996 151C     		mov	r5, r2
 1601 0998 7278     		ldrb	r2, [r6, #1]
 1602 099a 1D43     		orr	r5, r5, r3
 1603 099c 7C23     		mov	r3, #124
 1604 099e 1A40     		and	r2, r2, r3
 1605 09a0 2B06     		lsl	r3, r5, #24
 1606 09a2 190E     		lsr	r1, r3, #24
 1607 09a4 2B04     		lsl	r3, r5, #16
 1608 09a6 1B0E     		lsr	r3, r3, #24
 1609 09a8 7270     		strb	r2, [r6, #1]
 1610 09aa 9B4C     		ldr	r4, .L376
 1611 09ac 0020     		mov	r0, #0
 1612 09ae 002B     		cmp	r3, #0
 1613 09b0 00D1     		bne	.L198
 1614 09b2 0120     		mov	r0, #1
 1615              	.L198:
 1616 09b4 635C     		ldrb	r3, [r4, r1]
 1617 09b6 0243     		orr	r2, r2, r0
 1618 09b8 1343     		orr	r3, r3, r2
 1619 09ba 7370     		strb	r3, [r6, #1]
 1620 09bc 02F021FC 		bl	.L146	@ far jump
 1621              	.LVL33:
 1622              	.L124:
 125:Codes.h       **** case 0xC6: MM_Zp(M_DEC);break;            /* DEC $ss ZP */
 1623              		.loc 2 125 0
 1624 09c0 3089     		ldrh	r0, [r6, #8]
 1625 09c2 431C     		add	r3, r0, #1
 1626 09c4 3381     		strh	r3, [r6, #8]
 1627 09c6 FFF7FEFF 		bl	Rd6502
 1628 09ca 0404     		lsl	r4, r0, #16
 1629 09cc 240C     		lsr	r4, r4, #16
 1630 09ce 201C     		mov	r0, r4
 1631 09d0 FFF7FEFF 		bl	Rd6502
 1632 09d4 7378     		ldrb	r3, [r6, #1]
 1633 09d6 011C     		mov	r1, r0
 1634 09d8 7D22     		mov	r2, #125
 1635 09da 0139     		sub	r1, r1, #1
 1636 09dc 1340     		and	r3, r3, r2
 1637 09de 0906     		lsl	r1, r1, #24
 1638 09e0 8D4A     		ldr	r2, .L376
 1639 09e2 090E     		lsr	r1, r1, #24
 1640 09e4 525C     		ldrb	r2, [r2, r1]
 1641 09e6 1343     		orr	r3, r3, r2
 1642 09e8 7370     		strb	r3, [r6, #1]
 1643 09ea 201C     		mov	r0, r4
ARM GAS  /cygdrive/c/Users/Zbyszko/AppData/Local/Temp/cc6jOyxc.s 			page 36


 1644 09ec FFF7FEFF 		bl	Wr6502
 1645 09f0 02F007FC 		bl	.L146	@ far jump
 1646              	.L141:
 126:Codes.h       **** case 0xE4: MR_Zp(I);M_CMP(R->X,I);break;  /* CPX $ss ZP */
 1647              		.loc 2 126 0
 1648 09f4 3089     		ldrh	r0, [r6, #8]
 1649 09f6 431C     		add	r3, r0, #1
 1650 09f8 3381     		strh	r3, [r6, #8]
 1651 09fa FFF7FEFF 		bl	Rd6502
 1652 09fe 0004     		lsl	r0, r0, #16
 1653 0a00 000C     		lsr	r0, r0, #16
 1654 0a02 FFF7FEFF 		bl	Rd6502
 1655 0a06 B378     		ldrb	r3, [r6, #2]
 1656 0a08 844A     		ldr	r2, .L376+4
 1657 0a0a 1B1A     		sub	r3, r3, r0
 1658              	.LVL34:
 1659 0a0c 2A40     		and	r2, r2, r5
 1660 0a0e 1B04     		lsl	r3, r3, #16
 1661 0a10 1B0C     		lsr	r3, r3, #16
 1662 0a12 151C     		mov	r5, r2
 1663 0a14 7278     		ldrb	r2, [r6, #1]
 1664 0a16 1D43     		orr	r5, r5, r3
 1665 0a18 7C23     		mov	r3, #124
 1666 0a1a 1A40     		and	r2, r2, r3
 1667 0a1c 2B06     		lsl	r3, r5, #24
 1668 0a1e 190E     		lsr	r1, r3, #24
 1669 0a20 2B04     		lsl	r3, r5, #16
 1670 0a22 1B0E     		lsr	r3, r3, #24
 1671 0a24 7270     		strb	r2, [r6, #1]
 1672 0a26 7C4C     		ldr	r4, .L376
 1673 0a28 0020     		mov	r0, #0
 1674 0a2a 002B     		cmp	r3, #0
 1675 0a2c 00D1     		bne	.L199
 1676 0a2e 0120     		mov	r0, #1
 1677              	.L199:
 1678 0a30 635C     		ldrb	r3, [r4, r1]
 1679 0a32 0243     		orr	r2, r2, r0
 1680 0a34 1343     		orr	r3, r3, r2
 1681 0a36 7370     		strb	r3, [r6, #1]
 1682 0a38 02F0E3FB 		bl	.L146	@ far jump
 1683              	.LVL35:
 1684              	.L142:
 127:Codes.h       **** case 0xE5: MR_Zp(I);M_SBC(I);break;       /* SBC $ss ZP */
 1685              		.loc 2 127 0
 1686 0a3c 3089     		ldrh	r0, [r6, #8]
 1687 0a3e 431C     		add	r3, r0, #1
 1688 0a40 3381     		strh	r3, [r6, #8]
 1689 0a42 FFF7FEFF 		bl	Rd6502
 1690 0a46 0004     		lsl	r0, r0, #16
 1691 0a48 000C     		lsr	r0, r0, #16
 1692 0a4a FFF7FEFF 		bl	Rd6502
 1693 0a4e 7278     		ldrb	r2, [r6, #1]
 1694 0a50 3478     		ldrb	r4, [r6]
 1695 0a52 9446     		mov	ip, r2
 1696 0a54 D543     		mvn	r5, r2
 1697 0a56 1207     		lsl	r2, r2, #28
 1698 0a58 45D5     		bpl	.L200
ARM GAS  /cygdrive/c/Users/Zbyszko/AppData/Local/Temp/cc6jOyxc.s 			page 37


 1699 0a5a 0F23     		mov	r3, #15
 1700 0a5c 0F22     		mov	r2, #15
 1701              	.LVL36:
 1702 0a5e 0240     		and	r2, r2, r0
 1703 0a60 2340     		and	r3, r3, r4
 1704 0a62 9B1A     		sub	r3, r3, r2
 1705 0a64 0122     		mov	r2, #1
 1706 0a66 2A40     		and	r2, r2, r5
 1707 0a68 9B1A     		sub	r3, r3, r2
 1708 0a6a FF21     		mov	r1, #255
 1709              	.LVL37:
 1710 0a6c 2A1C     		mov	r2, r5
 1711 0a6e 1B06     		lsl	r3, r3, #24
 1712 0a70 8A43     		bic	r2, r2, r1
 1713 0a72 1B0E     		lsr	r3, r3, #24
 1714 0a74 151C     		mov	r5, r2
 1715 0a76 1D43     		orr	r5, r5, r3
 1716 0a78 2B06     		lsl	r3, r5, #24
 1717 0a7a 1B0E     		lsr	r3, r3, #24
 1718 0a7c 1027     		mov	r7, #16
 1719 0a7e 3B42     		tst	r3, r7
 1720 0a80 06D0     		beq	.L202
 1721 0a82 2A1C     		mov	r2, r5
 1722 0a84 063B     		sub	r3, r3, #6
 1723 0a86 1B06     		lsl	r3, r3, #24
 1724 0a88 8A43     		bic	r2, r2, r1
 1725 0a8a 1B0E     		lsr	r3, r3, #24
 1726 0a8c 151C     		mov	r5, r2
 1727 0a8e 1D43     		orr	r5, r5, r3
 1728              	.L202:
 1729 0a90 0309     		lsr	r3, r0, #4
 1730 0a92 2209     		lsr	r2, r4, #4
 1731 0a94 D21A     		sub	r2, r2, r3
 1732 0a96 2B1C     		mov	r3, r5
 1733 0a98 3B40     		and	r3, r3, r7
 1734 0a9a 1B11     		asr	r3, r3, #4
 1735 0a9c D21A     		sub	r2, r2, r3
 1736 0a9e 6049     		ldr	r1, .L376+8
 1737 0aa0 1206     		lsl	r2, r2, #24
 1738 0aa2 2B1C     		mov	r3, r5
 1739 0aa4 100E     		lsr	r0, r2, #24
 1740              	.LVL38:
 1741 0aa6 0B40     		and	r3, r3, r1
 1742 0aa8 0202     		lsl	r2, r0, #8
 1743 0aaa 1D1C     		mov	r5, r3
 1744 0aac 1543     		orr	r5, r5, r2
 1745 0aae 3842     		tst	r0, r7
 1746 0ab0 06D0     		beq	.L204
 1747 0ab2 2A1C     		mov	r2, r5
 1748 0ab4 831F     		sub	r3, r0, #6
 1749 0ab6 1B06     		lsl	r3, r3, #24
 1750 0ab8 0A40     		and	r2, r2, r1
 1751 0aba 1B0C     		lsr	r3, r3, #16
 1752 0abc 151C     		mov	r5, r2
 1753 0abe 1D43     		orr	r5, r5, r3
 1754              	.L204:
 1755 0ac0 2B04     		lsl	r3, r5, #16
ARM GAS  /cygdrive/c/Users/Zbyszko/AppData/Local/Temp/cc6jOyxc.s 			page 38


 1756 0ac2 1B0E     		lsr	r3, r3, #24
 1757 0ac4 0F22     		mov	r2, #15
 1758 0ac6 1901     		lsl	r1, r3, #4
 1759 0ac8 2A40     		and	r2, r2, r5
 1760 0aca 0A43     		orr	r2, r2, r1
 1761 0acc 3270     		strb	r2, [r6]
 1762 0ace 0124     		mov	r4, #1
 1763 0ad0 6246     		mov	r2, ip
 1764 0ad2 A243     		bic	r2, r2, r4
 1765 0ad4 0021     		mov	r1, #0
 1766 0ad6 0F2B     		cmp	r3, #15
 1767 0ad8 00D8     		bhi	.L206
 1768 0ada 0121     		mov	r1, #1
 1769              	.L206:
 1770 0adc 131C     		mov	r3, r2
 1771 0ade 0B43     		orr	r3, r3, r1
 1772 0ae0 7370     		strb	r3, [r6, #1]
 1773 0ae2 02F08EFB 		bl	.L146	@ far jump
 1774              	.LVL39:
 1775              	.L200:
 1776 0ae6 0122     		mov	r2, #1
 1777 0ae8 2A40     		and	r2, r2, r5
 1778              	.LVL40:
 1779 0aea 231A     		sub	r3, r4, r0
 1780 0aec 9B1A     		sub	r3, r3, r2
 1781 0aee 4B4A     		ldr	r2, .L376+4
 1782 0af0 1B04     		lsl	r3, r3, #16
 1783              	.LVL41:
 1784 0af2 2A40     		and	r2, r2, r5
 1785 0af4 1B0C     		lsr	r3, r3, #16
 1786 0af6 151C     		mov	r5, r2
 1787 0af8 1D43     		orr	r5, r5, r3
 1788 0afa 6746     		mov	r7, ip
 1789 0afc 3C23     		mov	r3, #60
 1790 0afe 1F40     		and	r7, r7, r3
 1791 0b00 2B06     		lsl	r3, r5, #24
 1792 0b02 190E     		lsr	r1, r3, #24
 1793 0b04 221C     		mov	r2, r4
 1794 0b06 231C     		mov	r3, r4
 1795 0b08 4340     		eor	r3, r3, r0
 1796 0b0a 4A40     		eor	r2, r2, r1
 1797 0b0c 1340     		and	r3, r3, r2
 1798 0b0e 1B06     		lsl	r3, r3, #24
 1799 0b10 7770     		strb	r7, [r6, #1]
 1800 0b12 002B     		cmp	r3, #0
 1801 0b14 01DA     		bge	.L207
 1802 0b16 4022     		mov	r2, #64
 1803 0b18 00E0     		b	.L209
 1804              	.L207:
 1805 0b1a 0022     		mov	r2, #0
 1806              	.L209:
 1807 0b1c 2B04     		lsl	r3, r5, #16
 1808 0b1e 1B0E     		lsr	r3, r3, #24
 1809 0b20 3D48     		ldr	r0, .L376
 1810              	.LVL42:
 1811 0b22 0024     		mov	r4, #0
 1812 0b24 002B     		cmp	r3, #0
ARM GAS  /cygdrive/c/Users/Zbyszko/AppData/Local/Temp/cc6jOyxc.s 			page 39


 1813 0b26 00D1     		bne	.L210
 1814 0b28 0124     		mov	r4, #1
 1815              	.L210:
 1816 0b2a 435C     		ldrb	r3, [r0, r1]
 1817 0b2c 3A43     		orr	r2, r2, r7
 1818 0b2e 2343     		orr	r3, r3, r4
 1819 0b30 1343     		orr	r3, r3, r2
 1820 0b32 7370     		strb	r3, [r6, #1]
 1821 0b34 3170     		strb	r1, [r6]
 1822 0b36 02F064FB 		bl	.L146	@ far jump
 1823              	.LVL43:
 1824              	.L143:
 128:Codes.h       **** case 0xE6: MM_Zp(M_INC);break;            /* INC $ss ZP */
 1825              		.loc 2 128 0
 1826 0b3a 3089     		ldrh	r0, [r6, #8]
 1827 0b3c 431C     		add	r3, r0, #1
 1828 0b3e 3381     		strh	r3, [r6, #8]
 1829 0b40 FFF7FEFF 		bl	Rd6502
 1830 0b44 0404     		lsl	r4, r0, #16
 1831 0b46 240C     		lsr	r4, r4, #16
 1832 0b48 201C     		mov	r0, r4
 1833 0b4a FFF7FEFF 		bl	Rd6502
 1834 0b4e 7378     		ldrb	r3, [r6, #1]
 1835 0b50 011C     		mov	r1, r0
 1836 0b52 7D22     		mov	r2, #125
 1837 0b54 0131     		add	r1, r1, #1
 1838 0b56 1340     		and	r3, r3, r2
 1839 0b58 0906     		lsl	r1, r1, #24
 1840 0b5a 2F4A     		ldr	r2, .L376
 1841 0b5c 090E     		lsr	r1, r1, #24
 1842 0b5e 525C     		ldrb	r2, [r2, r1]
 1843 0b60 1343     		orr	r3, r3, r2
 1844 0b62 7370     		strb	r3, [r6, #1]
 1845 0b64 201C     		mov	r0, r4
 1846 0b66 FFF7FEFF 		bl	Wr6502
 1847 0b6a 02F04AFB 		bl	.L146	@ far jump
 1848              	.L14:
 129:Codes.h       **** 
 130:Codes.h       **** case 0x0D: MR_Ab(I);M_ORA(I);break;       /* ORA $ssss ABS */
 1849              		.loc 2 130 0
 1850 0b6e 3089     		ldrh	r0, [r6, #8]
 1851 0b70 431C     		add	r3, r0, #1
 1852 0b72 3381     		strh	r3, [r6, #8]
 1853 0b74 FFF7FEFF 		bl	Rd6502
 1854 0b78 FF23     		mov	r3, #255
 1855              	.LVL44:
 1856 0b7a 391C     		mov	r1, r7
 1857 0b7c 9943     		bic	r1, r1, r3
 1858 0b7e 0F1C     		mov	r7, r1
 1859 0b80 0743     		orr	r7, r7, r0
 1860 0b82 3089     		ldrh	r0, [r6, #8]
 1861 0b84 431C     		add	r3, r0, #1
 1862 0b86 3381     		strh	r3, [r6, #8]
 1863 0b88 FFF7FEFF 		bl	Rd6502
 1864 0b8c 244B     		ldr	r3, .L376+8
 1865 0b8e 3B40     		and	r3, r3, r7
 1866 0b90 1F1C     		mov	r7, r3
ARM GAS  /cygdrive/c/Users/Zbyszko/AppData/Local/Temp/cc6jOyxc.s 			page 40


 1867 0b92 0002     		lsl	r0, r0, #8
 1868 0b94 0743     		orr	r7, r7, r0
 1869 0b96 3804     		lsl	r0, r7, #16
 1870 0b98 000C     		lsr	r0, r0, #16
 1871 0b9a FFF7FEFF 		bl	Rd6502
 1872 0b9e 3378     		ldrb	r3, [r6]
 1873 0ba0 0343     		orr	r3, r3, r0
 1874 0ba2 7278     		ldrb	r2, [r6, #1]
 1875 0ba4 1B06     		lsl	r3, r3, #24
 1876 0ba6 1B0E     		lsr	r3, r3, #24
 1877 0ba8 7D21     		mov	r1, #125
 1878 0baa 0A40     		and	r2, r2, r1
 1879 0bac 3370     		strb	r3, [r6]
 1880 0bae 1A49     		ldr	r1, .L376
 1881 0bb0 CB5C     		ldrb	r3, [r1, r3]
 1882 0bb2 1A43     		orr	r2, r2, r3
 1883 0bb4 7270     		strb	r2, [r6, #1]
 1884 0bb6 02F024FB 		bl	.L146	@ far jump
 1885              	.LVL45:
 1886              	.L15:
 131:Codes.h       **** case 0x0E: MM_Ab(M_ASL);break;            /* ASL $ssss ABS */
 1887              		.loc 2 131 0
 1888 0bba 3089     		ldrh	r0, [r6, #8]
 1889 0bbc 431C     		add	r3, r0, #1
 1890 0bbe 3381     		strh	r3, [r6, #8]
 1891 0bc0 FFF7FEFF 		bl	Rd6502
 1892 0bc4 FF23     		mov	r3, #255
 1893              	.LVL46:
 1894 0bc6 3A1C     		mov	r2, r7
 1895 0bc8 9A43     		bic	r2, r2, r3
 1896 0bca 171C     		mov	r7, r2
 1897 0bcc 0743     		orr	r7, r7, r0
 1898 0bce 3089     		ldrh	r0, [r6, #8]
 1899 0bd0 431C     		add	r3, r0, #1
 1900 0bd2 3381     		strh	r3, [r6, #8]
 1901 0bd4 FFF7FEFF 		bl	Rd6502
 1902 0bd8 114B     		ldr	r3, .L376+8
 1903 0bda 3B40     		and	r3, r3, r7
 1904 0bdc 1F1C     		mov	r7, r3
 1905 0bde 0002     		lsl	r0, r0, #8
 1906 0be0 0743     		orr	r7, r7, r0
 1907 0be2 3C04     		lsl	r4, r7, #16
 1908 0be4 240C     		lsr	r4, r4, #16
 1909 0be6 201C     		mov	r0, r4
 1910 0be8 FFF7FEFF 		bl	Rd6502
 1911 0bec 7378     		ldrb	r3, [r6, #1]
 1912 0bee FE22     		mov	r2, #254
 1913 0bf0 1340     		and	r3, r3, r2
 1914 0bf2 C209     		lsr	r2, r0, #7
 1915 0bf4 1343     		orr	r3, r3, r2
 1916 0bf6 1B06     		lsl	r3, r3, #24
 1917 0bf8 1B0E     		lsr	r3, r3, #24
 1918 0bfa 7D22     		mov	r2, #125
 1919 0bfc 7370     		strb	r3, [r6, #1]
 1920 0bfe 4106     		lsl	r1, r0, #25
 1921 0c00 1340     		and	r3, r3, r2
 1922 0c02 054A     		ldr	r2, .L376
ARM GAS  /cygdrive/c/Users/Zbyszko/AppData/Local/Temp/cc6jOyxc.s 			page 41


 1923 0c04 090E     		lsr	r1, r1, #24
 1924 0c06 525C     		ldrb	r2, [r2, r1]
 1925 0c08 1343     		orr	r3, r3, r2
 1926 0c0a 7370     		strb	r3, [r6, #1]
 1927 0c0c 201C     		mov	r0, r4
 1928 0c0e FFF7FEFF 		bl	Wr6502
 1929 0c12 02F0F6FA 		bl	.L146	@ far jump
 1930              	.L377:
 1931 0c16 0000     		.align	2
 1932              	.L376:
 1933 0c18 00000000 		.word	ZNTable
 1934 0c1c 0000FFFF 		.word	-65536
 1935 0c20 FF00FFFF 		.word	-65281
 1936              	.LVL47:
 1937              	.L33:
 132:Codes.h       **** case 0x2D: MR_Ab(I);M_AND(I);break;       /* AND $ssss ABS */
 1938              		.loc 2 132 0
 1939 0c24 3089     		ldrh	r0, [r6, #8]
 1940 0c26 431C     		add	r3, r0, #1
 1941 0c28 3381     		strh	r3, [r6, #8]
 1942 0c2a FFF7FEFF 		bl	Rd6502
 1943              	.LVL48:
 1944 0c2e 3C1C     		mov	r4, r7
 1945 0c30 FF23     		mov	r3, #255
 1946 0c32 9C43     		bic	r4, r4, r3
 1947 0c34 271C     		mov	r7, r4
 1948 0c36 0743     		orr	r7, r7, r0
 1949 0c38 3089     		ldrh	r0, [r6, #8]
 1950 0c3a 431C     		add	r3, r0, #1
 1951 0c3c 3381     		strh	r3, [r6, #8]
 1952 0c3e FFF7FEFF 		bl	Rd6502
 1953 0c42 E74B     		ldr	r3, .L378
 1954 0c44 3B40     		and	r3, r3, r7
 1955 0c46 1F1C     		mov	r7, r3
 1956 0c48 0002     		lsl	r0, r0, #8
 1957 0c4a 0743     		orr	r7, r7, r0
 1958 0c4c 3804     		lsl	r0, r7, #16
 1959 0c4e 000C     		lsr	r0, r0, #16
 1960 0c50 FFF7FEFF 		bl	Rd6502
 1961 0c54 3178     		ldrb	r1, [r6]
 1962 0c56 7378     		ldrb	r3, [r6, #1]
 1963 0c58 0140     		and	r1, r1, r0
 1964 0c5a 7D22     		mov	r2, #125
 1965 0c5c 1340     		and	r3, r3, r2
 1966 0c5e 3170     		strb	r1, [r6]
 1967 0c60 E04A     		ldr	r2, .L378+4
 1968 0c62 525C     		ldrb	r2, [r2, r1]
 1969 0c64 1343     		orr	r3, r3, r2
 1970 0c66 7370     		strb	r3, [r6, #1]
 1971 0c68 02F0CBFA 		bl	.L146	@ far jump
 1972              	.LVL49:
 1973              	.L34:
 133:Codes.h       **** case 0x2E: MM_Ab(M_ROL);break;            /* ROL $ssss ABS */
 1974              		.loc 2 133 0
 1975 0c6c 3089     		ldrh	r0, [r6, #8]
 1976 0c6e 431C     		add	r3, r0, #1
 1977 0c70 3381     		strh	r3, [r6, #8]
ARM GAS  /cygdrive/c/Users/Zbyszko/AppData/Local/Temp/cc6jOyxc.s 			page 42


 1978 0c72 FFF7FEFF 		bl	Rd6502
 1979 0c76 FF21     		mov	r1, #255
 1980              	.LVL50:
 1981 0c78 3B1C     		mov	r3, r7
 1982 0c7a 8B43     		bic	r3, r3, r1
 1983 0c7c 1F1C     		mov	r7, r3
 1984 0c7e 0743     		orr	r7, r7, r0
 1985 0c80 3089     		ldrh	r0, [r6, #8]
 1986 0c82 431C     		add	r3, r0, #1
 1987 0c84 3381     		strh	r3, [r6, #8]
 1988 0c86 FFF7FEFF 		bl	Rd6502
 1989 0c8a D54B     		ldr	r3, .L378
 1990 0c8c 3B40     		and	r3, r3, r7
 1991 0c8e 1F1C     		mov	r7, r3
 1992 0c90 0002     		lsl	r0, r0, #8
 1993 0c92 0743     		orr	r7, r7, r0
 1994 0c94 3C04     		lsl	r4, r7, #16
 1995 0c96 240C     		lsr	r4, r4, #16
 1996 0c98 201C     		mov	r0, r4
 1997 0c9a FFF7FEFF 		bl	Rd6502
 1998 0c9e 7278     		ldrb	r2, [r6, #1]
 1999 0ca0 0121     		mov	r1, #1
 2000 0ca2 1140     		and	r1, r1, r2
 2001 0ca4 4300     		lsl	r3, r0, #1
 2002 0ca6 0B43     		orr	r3, r3, r1
 2003 0ca8 FF27     		mov	r7, #255
 2004              	.LVL51:
 2005 0caa 291C     		mov	r1, r5
 2006 0cac B943     		bic	r1, r1, r7
 2007 0cae 1B06     		lsl	r3, r3, #24
 2008 0cb0 1B0E     		lsr	r3, r3, #24
 2009 0cb2 0D1C     		mov	r5, r1
 2010 0cb4 1D43     		orr	r5, r5, r3
 2011 0cb6 FE23     		mov	r3, #254
 2012 0cb8 1A40     		and	r2, r2, r3
 2013 0cba C009     		lsr	r0, r0, #7
 2014 0cbc 0243     		orr	r2, r2, r0
 2015 0cbe 1206     		lsl	r2, r2, #24
 2016 0cc0 120E     		lsr	r2, r2, #24
 2017 0cc2 7D23     		mov	r3, #125
 2018 0cc4 7270     		strb	r2, [r6, #1]
 2019 0cc6 2906     		lsl	r1, r5, #24
 2020 0cc8 1A40     		and	r2, r2, r3
 2021 0cca C64B     		ldr	r3, .L378+4
 2022 0ccc 090E     		lsr	r1, r1, #24
 2023 0cce 5B5C     		ldrb	r3, [r3, r1]
 2024 0cd0 1A43     		orr	r2, r2, r3
 2025 0cd2 7270     		strb	r2, [r6, #1]
 2026 0cd4 201C     		mov	r0, r4
 2027 0cd6 FFF7FEFF 		bl	Wr6502
 2028 0cda 02F092FA 		bl	.L146	@ far jump
 2029              	.LVL52:
 2030              	.L51:
 134:Codes.h       **** case 0x4D: MR_Ab(I);M_EOR(I);break;       /* EOR $ssss ABS */
 2031              		.loc 2 134 0
 2032 0cde 3089     		ldrh	r0, [r6, #8]
 2033 0ce0 431C     		add	r3, r0, #1
ARM GAS  /cygdrive/c/Users/Zbyszko/AppData/Local/Temp/cc6jOyxc.s 			page 43


 2034 0ce2 3381     		strh	r3, [r6, #8]
 2035 0ce4 FFF7FEFF 		bl	Rd6502
 2036 0ce8 FF23     		mov	r3, #255
 2037              	.LVL53:
 2038 0cea 391C     		mov	r1, r7
 2039 0cec 9943     		bic	r1, r1, r3
 2040 0cee 0F1C     		mov	r7, r1
 2041 0cf0 0743     		orr	r7, r7, r0
 2042 0cf2 3089     		ldrh	r0, [r6, #8]
 2043 0cf4 431C     		add	r3, r0, #1
 2044 0cf6 3381     		strh	r3, [r6, #8]
 2045 0cf8 FFF7FEFF 		bl	Rd6502
 2046 0cfc B84B     		ldr	r3, .L378
 2047 0cfe 3B40     		and	r3, r3, r7
 2048 0d00 1F1C     		mov	r7, r3
 2049 0d02 0002     		lsl	r0, r0, #8
 2050 0d04 0743     		orr	r7, r7, r0
 2051 0d06 3804     		lsl	r0, r7, #16
 2052 0d08 000C     		lsr	r0, r0, #16
 2053 0d0a FFF7FEFF 		bl	Rd6502
 2054 0d0e 3378     		ldrb	r3, [r6]
 2055 0d10 4340     		eor	r3, r3, r0
 2056 0d12 7278     		ldrb	r2, [r6, #1]
 2057 0d14 1B06     		lsl	r3, r3, #24
 2058 0d16 1B0E     		lsr	r3, r3, #24
 2059 0d18 7D21     		mov	r1, #125
 2060 0d1a 0A40     		and	r2, r2, r1
 2061 0d1c 3370     		strb	r3, [r6]
 2062 0d1e B149     		ldr	r1, .L378+4
 2063 0d20 CB5C     		ldrb	r3, [r1, r3]
 2064 0d22 1A43     		orr	r2, r2, r3
 2065 0d24 7270     		strb	r2, [r6, #1]
 2066 0d26 02F06CFA 		bl	.L146	@ far jump
 2067              	.LVL54:
 2068              	.L52:
 135:Codes.h       **** case 0x4E: MM_Ab(M_LSR);break;            /* LSR $ssss ABS */
 2069              		.loc 2 135 0
 2070 0d2a 3089     		ldrh	r0, [r6, #8]
 2071 0d2c 431C     		add	r3, r0, #1
 2072 0d2e 3381     		strh	r3, [r6, #8]
 2073 0d30 FFF7FEFF 		bl	Rd6502
 2074 0d34 FF23     		mov	r3, #255
 2075              	.LVL55:
 2076 0d36 3A1C     		mov	r2, r7
 2077 0d38 9A43     		bic	r2, r2, r3
 2078 0d3a 171C     		mov	r7, r2
 2079 0d3c 0743     		orr	r7, r7, r0
 2080 0d3e 3089     		ldrh	r0, [r6, #8]
 2081 0d40 431C     		add	r3, r0, #1
 2082 0d42 3381     		strh	r3, [r6, #8]
 2083 0d44 FFF7FEFF 		bl	Rd6502
 2084 0d48 A54B     		ldr	r3, .L378
 2085 0d4a 3B40     		and	r3, r3, r7
 2086 0d4c 1F1C     		mov	r7, r3
 2087 0d4e 0002     		lsl	r0, r0, #8
 2088 0d50 0743     		orr	r7, r7, r0
 2089 0d52 3C04     		lsl	r4, r7, #16
ARM GAS  /cygdrive/c/Users/Zbyszko/AppData/Local/Temp/cc6jOyxc.s 			page 44


 2090 0d54 240C     		lsr	r4, r4, #16
 2091 0d56 201C     		mov	r0, r4
 2092 0d58 FFF7FEFF 		bl	Rd6502
 2093 0d5c 7378     		ldrb	r3, [r6, #1]
 2094 0d5e 0122     		mov	r2, #1
 2095 0d60 9343     		bic	r3, r3, r2
 2096 0d62 0240     		and	r2, r2, r0
 2097 0d64 1343     		orr	r3, r3, r2
 2098 0d66 7D22     		mov	r2, #125
 2099 0d68 7370     		strb	r3, [r6, #1]
 2100 0d6a C105     		lsl	r1, r0, #23
 2101 0d6c 1340     		and	r3, r3, r2
 2102 0d6e 9D4A     		ldr	r2, .L378+4
 2103 0d70 090E     		lsr	r1, r1, #24
 2104 0d72 525C     		ldrb	r2, [r2, r1]
 2105 0d74 1343     		orr	r3, r3, r2
 2106 0d76 7370     		strb	r3, [r6, #1]
 2107 0d78 201C     		mov	r0, r4
 2108 0d7a FFF7FEFF 		bl	Wr6502
 2109 0d7e 02F040FA 		bl	.L146	@ far jump
 2110              	.LVL56:
 2111              	.L69:
 136:Codes.h       **** case 0x6D: MR_Ab(I);M_ADC(I);break;       /* ADC $ssss ABS */
 2112              		.loc 2 136 0
 2113 0d82 3089     		ldrh	r0, [r6, #8]
 2114 0d84 431C     		add	r3, r0, #1
 2115 0d86 3381     		strh	r3, [r6, #8]
 2116 0d88 FFF7FEFF 		bl	Rd6502
 2117 0d8c FF24     		mov	r4, #255
 2118              	.LVL57:
 2119 0d8e 3B1C     		mov	r3, r7
 2120 0d90 A343     		bic	r3, r3, r4
 2121 0d92 1F1C     		mov	r7, r3
 2122 0d94 0743     		orr	r7, r7, r0
 2123 0d96 3089     		ldrh	r0, [r6, #8]
 2124 0d98 431C     		add	r3, r0, #1
 2125 0d9a 3381     		strh	r3, [r6, #8]
 2126 0d9c FFF7FEFF 		bl	Rd6502
 2127 0da0 8F4B     		ldr	r3, .L378
 2128 0da2 3B40     		and	r3, r3, r7
 2129 0da4 0002     		lsl	r0, r0, #8
 2130 0da6 1F1C     		mov	r7, r3
 2131 0da8 0743     		orr	r7, r7, r0
 2132 0daa 3804     		lsl	r0, r7, #16
 2133 0dac 000C     		lsr	r0, r0, #16
 2134 0dae FFF7FEFF 		bl	Rd6502
 2135 0db2 7778     		ldrb	r7, [r6, #1]
 2136              	.LVL58:
 2137 0db4 3478     		ldrb	r4, [r6]
 2138 0db6 3907     		lsl	r1, r7, #28
 2139 0db8 3BD5     		bpl	.L211
 2140 0dba 0F22     		mov	r2, #15
 2141 0dbc 111C     		mov	r1, r2
 2142 0dbe 131C     		mov	r3, r2
 2143 0dc0 9446     		mov	ip, r2
 2144 0dc2 0122     		mov	r2, #1
 2145 0dc4 3A40     		and	r2, r2, r7
ARM GAS  /cygdrive/c/Users/Zbyszko/AppData/Local/Temp/cc6jOyxc.s 			page 45


 2146 0dc6 2340     		and	r3, r3, r4
 2147 0dc8 9B18     		add	r3, r3, r2
 2148              	.LVL59:
 2149 0dca 0140     		and	r1, r1, r0
 2150 0dcc C918     		add	r1, r1, r3
 2151 0dce FF22     		mov	r2, #255
 2152              	.LVL60:
 2153 0dd0 2B1C     		mov	r3, r5
 2154 0dd2 9343     		bic	r3, r3, r2
 2155 0dd4 1D1C     		mov	r5, r3
 2156 0dd6 0D43     		orr	r5, r5, r1
 2157 0dd8 2B06     		lsl	r3, r5, #24
 2158 0dda 1B0E     		lsr	r3, r3, #24
 2159 0ddc 092B     		cmp	r3, #9
 2160 0dde 07D9     		bls	.L213
 2161 0de0 2A1C     		mov	r2, r5
 2162 0de2 0633     		add	r3, r3, #6
 2163 0de4 FF21     		mov	r1, #255
 2164 0de6 1B06     		lsl	r3, r3, #24
 2165 0de8 8A43     		bic	r2, r2, r1
 2166 0dea 1B0E     		lsr	r3, r3, #24
 2167 0dec 151C     		mov	r5, r2
 2168 0dee 1D43     		orr	r5, r5, r3
 2169              	.L213:
 2170 0df0 2B06     		lsl	r3, r5, #24
 2171 0df2 1B0E     		lsr	r3, r3, #24
 2172 0df4 2209     		lsr	r2, r4, #4
 2173 0df6 0009     		lsr	r0, r0, #4
 2174              	.LVL61:
 2175 0df8 0024     		mov	r4, #0
 2176 0dfa 0F2B     		cmp	r3, #15
 2177 0dfc 00D9     		bls	.L215
 2178 0dfe 0124     		mov	r4, #1
 2179              	.L215:
 2180 0e00 1219     		add	r2, r2, r4
 2181 0e02 8218     		add	r2, r0, r2
 2182 0e04 764B     		ldr	r3, .L378
 2183 0e06 1206     		lsl	r2, r2, #24
 2184 0e08 120E     		lsr	r2, r2, #24
 2185 0e0a 2B40     		and	r3, r3, r5
 2186 0e0c 1102     		lsl	r1, r2, #8
 2187 0e0e 1D1C     		mov	r5, r3
 2188 0e10 0D43     		orr	r5, r5, r1
 2189 0e12 6346     		mov	r3, ip
 2190 0e14 1101     		lsl	r1, r2, #4
 2191 0e16 2B40     		and	r3, r3, r5
 2192 0e18 0B43     		orr	r3, r3, r1
 2193 0e1a 3370     		strb	r3, [r6]
 2194 0e1c 0124     		mov	r4, #1
 2195 0e1e 3B1C     		mov	r3, r7
 2196 0e20 A343     		bic	r3, r3, r4
 2197 0e22 0021     		mov	r1, #0
 2198 0e24 0F2A     		cmp	r2, #15
 2199 0e26 00D9     		bls	.L216
 2200 0e28 0121     		mov	r1, #1
 2201              	.L216:
 2202 0e2a 0B43     		orr	r3, r3, r1
ARM GAS  /cygdrive/c/Users/Zbyszko/AppData/Local/Temp/cc6jOyxc.s 			page 46


 2203 0e2c 7370     		strb	r3, [r6, #1]
 2204 0e2e 02F0E8F9 		bl	.L146	@ far jump
 2205              	.LVL62:
 2206              	.L211:
 2207 0e32 0123     		mov	r3, #1
 2208 0e34 3B40     		and	r3, r3, r7
 2209 0e36 E318     		add	r3, r4, r3
 2210 0e38 6B4A     		ldr	r2, .L378+8
 2211              	.LVL63:
 2212 0e3a C318     		add	r3, r0, r3
 2213              	.LVL64:
 2214 0e3c 2A40     		and	r2, r2, r5
 2215 0e3e 1B04     		lsl	r3, r3, #16
 2216 0e40 1B0C     		lsr	r3, r3, #16
 2217 0e42 151C     		mov	r5, r2
 2218 0e44 1D43     		orr	r5, r5, r3
 2219 0e46 3C23     		mov	r3, #60
 2220 0e48 1F40     		and	r7, r7, r3
 2221 0e4a 221C     		mov	r2, r4
 2222 0e4c 2B06     		lsl	r3, r5, #24
 2223 0e4e BC46     		mov	ip, r7
 2224 0e50 7770     		strb	r7, [r6, #1]
 2225 0e52 4240     		eor	r2, r2, r0
 2226 0e54 1F0E     		lsr	r7, r3, #24
 2227 0e56 231C     		mov	r3, r4
 2228 0e58 1206     		lsl	r2, r2, #24
 2229 0e5a 7B40     		eor	r3, r3, r7
 2230 0e5c 8021     		mov	r1, #128
 2231 0e5e 120E     		lsr	r2, r2, #24
 2232 0e60 0B40     		and	r3, r3, r1
 2233 0e62 9343     		bic	r3, r2
 2234 0e64 01D0     		beq	.L217
 2235 0e66 4022     		mov	r2, #64
 2236 0e68 00E0     		b	.L219
 2237              	.L217:
 2238 0e6a 0022     		mov	r2, #0
 2239              	.L219:
 2240 0e6c 2B04     		lsl	r3, r5, #16
 2241 0e6e 1B0E     		lsr	r3, r3, #24
 2242 0e70 5C49     		ldr	r1, .L378+4
 2243 0e72 0020     		mov	r0, #0
 2244              	.LVL65:
 2245 0e74 002B     		cmp	r3, #0
 2246 0e76 00D0     		beq	.L220
 2247 0e78 0120     		mov	r0, #1
 2248              	.L220:
 2249 0e7a CB5D     		ldrb	r3, [r1, r7]
 2250 0e7c 6146     		mov	r1, ip
 2251 0e7e 0343     		orr	r3, r3, r0
 2252 0e80 0A43     		orr	r2, r2, r1
 2253 0e82 1343     		orr	r3, r3, r2
 2254 0e84 7370     		strb	r3, [r6, #1]
 2255 0e86 3770     		strb	r7, [r6]
 2256 0e88 02F0BBF9 		bl	.L146	@ far jump
 2257              	.LVL66:
 2258              	.L70:
 137:Codes.h       **** case 0x6E: MM_Ab(M_ROR);break;            /* ROR $ssss ABS */
ARM GAS  /cygdrive/c/Users/Zbyszko/AppData/Local/Temp/cc6jOyxc.s 			page 47


 2259              		.loc 2 137 0
 2260 0e8c 3089     		ldrh	r0, [r6, #8]
 2261 0e8e 431C     		add	r3, r0, #1
 2262 0e90 3381     		strh	r3, [r6, #8]
 2263 0e92 FFF7FEFF 		bl	Rd6502
 2264 0e96 FF22     		mov	r2, #255
 2265              	.LVL67:
 2266 0e98 3B1C     		mov	r3, r7
 2267 0e9a 9343     		bic	r3, r3, r2
 2268 0e9c 1F1C     		mov	r7, r3
 2269 0e9e 0743     		orr	r7, r7, r0
 2270 0ea0 3089     		ldrh	r0, [r6, #8]
 2271 0ea2 431C     		add	r3, r0, #1
 2272 0ea4 3381     		strh	r3, [r6, #8]
 2273 0ea6 FFF7FEFF 		bl	Rd6502
 2274 0eaa 4D4B     		ldr	r3, .L378
 2275 0eac 3B40     		and	r3, r3, r7
 2276 0eae 1F1C     		mov	r7, r3
 2277 0eb0 0002     		lsl	r0, r0, #8
 2278 0eb2 0743     		orr	r7, r7, r0
 2279 0eb4 3804     		lsl	r0, r7, #16
 2280 0eb6 070C     		lsr	r7, r0, #16
 2281              	.LVL68:
 2282 0eb8 381C     		mov	r0, r7
 2283 0eba FFF7FEFF 		bl	Rd6502
 2284 0ebe 7478     		ldrb	r4, [r6, #1]
 2285 0ec0 4308     		lsr	r3, r0, #1
 2286 0ec2 E201     		lsl	r2, r4, #7
 2287 0ec4 1343     		orr	r3, r3, r2
 2288 0ec6 FF21     		mov	r1, #255
 2289              	.LVL69:
 2290 0ec8 2A1C     		mov	r2, r5
 2291 0eca 8A43     		bic	r2, r2, r1
 2292 0ecc 1B06     		lsl	r3, r3, #24
 2293 0ece 1B0E     		lsr	r3, r3, #24
 2294 0ed0 151C     		mov	r5, r2
 2295 0ed2 1D43     		orr	r5, r5, r3
 2296 0ed4 0123     		mov	r3, #1
 2297 0ed6 1840     		and	r0, r0, r3
 2298 0ed8 9C43     		bic	r4, r4, r3
 2299 0eda 0443     		orr	r4, r4, r0
 2300 0edc 7D23     		mov	r3, #125
 2301 0ede 7470     		strb	r4, [r6, #1]
 2302 0ee0 2906     		lsl	r1, r5, #24
 2303 0ee2 1C40     		and	r4, r4, r3
 2304 0ee4 3F4B     		ldr	r3, .L378+4
 2305 0ee6 090E     		lsr	r1, r1, #24
 2306 0ee8 5B5C     		ldrb	r3, [r3, r1]
 2307 0eea 1C43     		orr	r4, r4, r3
 2308 0eec 7470     		strb	r4, [r6, #1]
 2309 0eee 381C     		mov	r0, r7
 2310 0ef0 FFF7FEFF 		bl	Wr6502
 2311 0ef4 02F085F9 		bl	.L146	@ far jump
 2312              	.LVL70:
 2313              	.L85:
 138:Codes.h       **** case 0x8C: MW_Ab(R->Y);break;             /* STY $ssss ABS */
 2314              		.loc 2 138 0
ARM GAS  /cygdrive/c/Users/Zbyszko/AppData/Local/Temp/cc6jOyxc.s 			page 48


 2315 0ef8 3089     		ldrh	r0, [r6, #8]
 2316 0efa 431C     		add	r3, r0, #1
 2317 0efc 3381     		strh	r3, [r6, #8]
 2318 0efe FFF7FEFF 		bl	Rd6502
 2319 0f02 FF23     		mov	r3, #255
 2320              	.LVL71:
 2321 0f04 3A1C     		mov	r2, r7
 2322 0f06 9A43     		bic	r2, r2, r3
 2323 0f08 171C     		mov	r7, r2
 2324 0f0a 0743     		orr	r7, r7, r0
 2325 0f0c 3089     		ldrh	r0, [r6, #8]
 2326 0f0e 431C     		add	r3, r0, #1
 2327 0f10 3381     		strh	r3, [r6, #8]
 2328 0f12 FFF7FEFF 		bl	Rd6502
 2329 0f16 324B     		ldr	r3, .L378
 2330 0f18 3B40     		and	r3, r3, r7
 2331 0f1a 0002     		lsl	r0, r0, #8
 2332 0f1c 1F1C     		mov	r7, r3
 2333 0f1e 0743     		orr	r7, r7, r0
 2334 0f20 3804     		lsl	r0, r7, #16
 2335 0f22 000C     		lsr	r0, r0, #16
 2336 0f24 F178     		ldrb	r1, [r6, #3]
 2337 0f26 FFF7FEFF 		bl	Wr6502
 2338 0f2a 02F06AF9 		bl	.L146	@ far jump
 2339              	.LVL72:
 2340              	.L86:
 139:Codes.h       **** case 0x8D: MW_Ab(R->A);break;             /* STA $ssss ABS */
 2341              		.loc 2 139 0
 2342 0f2e 3089     		ldrh	r0, [r6, #8]
 2343 0f30 431C     		add	r3, r0, #1
 2344 0f32 3381     		strh	r3, [r6, #8]
 2345 0f34 FFF7FEFF 		bl	Rd6502
 2346              	.LVL73:
 2347 0f38 3C1C     		mov	r4, r7
 2348 0f3a FF23     		mov	r3, #255
 2349 0f3c 9C43     		bic	r4, r4, r3
 2350 0f3e 271C     		mov	r7, r4
 2351 0f40 0743     		orr	r7, r7, r0
 2352 0f42 3089     		ldrh	r0, [r6, #8]
 2353 0f44 431C     		add	r3, r0, #1
 2354 0f46 3381     		strh	r3, [r6, #8]
 2355 0f48 FFF7FEFF 		bl	Rd6502
 2356 0f4c 244B     		ldr	r3, .L378
 2357 0f4e 3B40     		and	r3, r3, r7
 2358 0f50 0002     		lsl	r0, r0, #8
 2359 0f52 1F1C     		mov	r7, r3
 2360 0f54 0743     		orr	r7, r7, r0
 2361 0f56 3804     		lsl	r0, r7, #16
 2362 0f58 000C     		lsr	r0, r0, #16
 2363 0f5a 3178     		ldrb	r1, [r6]
 2364 0f5c FFF7FEFF 		bl	Wr6502
 2365 0f60 02F04FF9 		bl	.L146	@ far jump
 2366              	.LVL74:
 2367              	.L87:
 140:Codes.h       **** case 0x8E: MW_Ab(R->X);break;             /* STX $ssss ABS */
 2368              		.loc 2 140 0
 2369 0f64 3089     		ldrh	r0, [r6, #8]
ARM GAS  /cygdrive/c/Users/Zbyszko/AppData/Local/Temp/cc6jOyxc.s 			page 49


 2370 0f66 431C     		add	r3, r0, #1
 2371 0f68 3381     		strh	r3, [r6, #8]
 2372 0f6a FFF7FEFF 		bl	Rd6502
 2373 0f6e FF23     		mov	r3, #255
 2374              	.LVL75:
 2375 0f70 391C     		mov	r1, r7
 2376 0f72 9943     		bic	r1, r1, r3
 2377 0f74 0F1C     		mov	r7, r1
 2378 0f76 0743     		orr	r7, r7, r0
 2379 0f78 3089     		ldrh	r0, [r6, #8]
 2380 0f7a 431C     		add	r3, r0, #1
 2381 0f7c 3381     		strh	r3, [r6, #8]
 2382 0f7e FFF7FEFF 		bl	Rd6502
 2383 0f82 174B     		ldr	r3, .L378
 2384 0f84 3B40     		and	r3, r3, r7
 2385 0f86 0002     		lsl	r0, r0, #8
 2386 0f88 1F1C     		mov	r7, r3
 2387 0f8a 0743     		orr	r7, r7, r0
 2388 0f8c 3804     		lsl	r0, r7, #16
 2389 0f8e 000C     		lsr	r0, r0, #16
 2390 0f90 B178     		ldrb	r1, [r6, #2]
 2391 0f92 FFF7FEFF 		bl	Wr6502
 2392 0f96 02F034F9 		bl	.L146	@ far jump
 2393              	.LVL76:
 2394              	.L106:
 141:Codes.h       **** case 0xAC: MR_Ab(R->Y);M_FL(R->Y);break;  /* LDY $ssss ABS */
 2395              		.loc 2 141 0
 2396 0f9a 3089     		ldrh	r0, [r6, #8]
 2397 0f9c 431C     		add	r3, r0, #1
 2398 0f9e 3381     		strh	r3, [r6, #8]
 2399 0fa0 FFF7FEFF 		bl	Rd6502
 2400 0fa4 FF23     		mov	r3, #255
 2401              	.LVL77:
 2402 0fa6 3A1C     		mov	r2, r7
 2403 0fa8 9A43     		bic	r2, r2, r3
 2404 0faa 171C     		mov	r7, r2
 2405 0fac 0743     		orr	r7, r7, r0
 2406 0fae 3089     		ldrh	r0, [r6, #8]
 2407 0fb0 431C     		add	r3, r0, #1
 2408 0fb2 3381     		strh	r3, [r6, #8]
 2409 0fb4 FFF7FEFF 		bl	Rd6502
 2410 0fb8 094B     		ldr	r3, .L378
 2411 0fba 3B40     		and	r3, r3, r7
 2412 0fbc 1F1C     		mov	r7, r3
 2413 0fbe 0002     		lsl	r0, r0, #8
 2414 0fc0 0743     		orr	r7, r7, r0
 2415 0fc2 3804     		lsl	r0, r7, #16
 2416 0fc4 000C     		lsr	r0, r0, #16
 2417 0fc6 FFF7FEFF 		bl	Rd6502
 2418 0fca 7378     		ldrb	r3, [r6, #1]
 2419 0fcc 7D22     		mov	r2, #125
 2420 0fce 1340     		and	r3, r3, r2
 2421 0fd0 F070     		strb	r0, [r6, #3]
 2422 0fd2 044A     		ldr	r2, .L378+4
 2423 0fd4 125C     		ldrb	r2, [r2, r0]
 2424 0fd6 1343     		orr	r3, r3, r2
 2425 0fd8 7370     		strb	r3, [r6, #1]
ARM GAS  /cygdrive/c/Users/Zbyszko/AppData/Local/Temp/cc6jOyxc.s 			page 50


 2426 0fda 02F012F9 		bl	.L146	@ far jump
 2427              	.L379:
 2428 0fde 0000     		.align	2
 2429              	.L378:
 2430 0fe0 FF00FFFF 		.word	-65281
 2431 0fe4 00000000 		.word	ZNTable
 2432 0fe8 0000FFFF 		.word	-65536
 2433              	.LVL78:
 2434              	.L107:
 142:Codes.h       **** case 0xAD: MR_Ab(R->A);M_FL(R->A);break;  /* LDA $ssss ABS */
 2435              		.loc 2 142 0
 2436 0fec 3089     		ldrh	r0, [r6, #8]
 2437 0fee 431C     		add	r3, r0, #1
 2438 0ff0 3381     		strh	r3, [r6, #8]
 2439 0ff2 FFF7FEFF 		bl	Rd6502
 2440              	.LVL79:
 2441 0ff6 3C1C     		mov	r4, r7
 2442 0ff8 FF23     		mov	r3, #255
 2443 0ffa 9C43     		bic	r4, r4, r3
 2444 0ffc 271C     		mov	r7, r4
 2445 0ffe 0743     		orr	r7, r7, r0
 2446 1000 3089     		ldrh	r0, [r6, #8]
 2447 1002 431C     		add	r3, r0, #1
 2448 1004 3381     		strh	r3, [r6, #8]
 2449 1006 FFF7FEFF 		bl	Rd6502
 2450 100a EA4B     		ldr	r3, .L380
 2451 100c 3B40     		and	r3, r3, r7
 2452 100e 1F1C     		mov	r7, r3
 2453 1010 0002     		lsl	r0, r0, #8
 2454 1012 0743     		orr	r7, r7, r0
 2455 1014 3804     		lsl	r0, r7, #16
 2456 1016 000C     		lsr	r0, r0, #16
 2457 1018 FFF7FEFF 		bl	Rd6502
 2458 101c 7378     		ldrb	r3, [r6, #1]
 2459 101e 7D22     		mov	r2, #125
 2460 1020 1340     		and	r3, r3, r2
 2461 1022 3070     		strb	r0, [r6]
 2462 1024 E44A     		ldr	r2, .L380+4
 2463 1026 125C     		ldrb	r2, [r2, r0]
 2464 1028 1343     		orr	r3, r3, r2
 2465 102a 7370     		strb	r3, [r6, #1]
 2466 102c 02F0E9F8 		bl	.L146	@ far jump
 2467              	.LVL80:
 2468              	.L108:
 143:Codes.h       **** case 0xAE: MR_Ab(R->X);M_FL(R->X);break;  /* LDX $ssss ABS */
 2469              		.loc 2 143 0
 2470 1030 3089     		ldrh	r0, [r6, #8]
 2471 1032 431C     		add	r3, r0, #1
 2472 1034 3381     		strh	r3, [r6, #8]
 2473 1036 FFF7FEFF 		bl	Rd6502
 2474 103a FF23     		mov	r3, #255
 2475              	.LVL81:
 2476 103c 391C     		mov	r1, r7
 2477 103e 9943     		bic	r1, r1, r3
 2478 1040 0F1C     		mov	r7, r1
 2479 1042 0743     		orr	r7, r7, r0
 2480 1044 3089     		ldrh	r0, [r6, #8]
ARM GAS  /cygdrive/c/Users/Zbyszko/AppData/Local/Temp/cc6jOyxc.s 			page 51


 2481 1046 431C     		add	r3, r0, #1
 2482 1048 3381     		strh	r3, [r6, #8]
 2483 104a FFF7FEFF 		bl	Rd6502
 2484 104e D94B     		ldr	r3, .L380
 2485 1050 3B40     		and	r3, r3, r7
 2486 1052 1F1C     		mov	r7, r3
 2487 1054 0002     		lsl	r0, r0, #8
 2488 1056 0743     		orr	r7, r7, r0
 2489 1058 3804     		lsl	r0, r7, #16
 2490 105a 000C     		lsr	r0, r0, #16
 2491 105c FFF7FEFF 		bl	Rd6502
 2492 1060 7378     		ldrb	r3, [r6, #1]
 2493 1062 7D22     		mov	r2, #125
 2494 1064 1340     		and	r3, r3, r2
 2495 1066 B070     		strb	r0, [r6, #2]
 2496 1068 D34A     		ldr	r2, .L380+4
 2497 106a 125C     		ldrb	r2, [r2, r0]
 2498 106c 1343     		orr	r3, r3, r2
 2499 106e 7370     		strb	r3, [r6, #1]
 2500 1070 02F0C7F8 		bl	.L146	@ far jump
 2501              	.LVL82:
 2502              	.L128:
 144:Codes.h       **** case 0xCC: MR_Ab(I);M_CMP(R->Y,I);break;  /* CPY $ssss ABS */
 2503              		.loc 2 144 0
 2504 1074 3089     		ldrh	r0, [r6, #8]
 2505 1076 431C     		add	r3, r0, #1
 2506 1078 3381     		strh	r3, [r6, #8]
 2507 107a FFF7FEFF 		bl	Rd6502
 2508 107e FF23     		mov	r3, #255
 2509              	.LVL83:
 2510 1080 3A1C     		mov	r2, r7
 2511 1082 9A43     		bic	r2, r2, r3
 2512 1084 171C     		mov	r7, r2
 2513 1086 0743     		orr	r7, r7, r0
 2514 1088 3089     		ldrh	r0, [r6, #8]
 2515 108a 431C     		add	r3, r0, #1
 2516 108c 3381     		strh	r3, [r6, #8]
 2517 108e FFF7FEFF 		bl	Rd6502
 2518 1092 C84B     		ldr	r3, .L380
 2519 1094 3B40     		and	r3, r3, r7
 2520 1096 1F1C     		mov	r7, r3
 2521 1098 0002     		lsl	r0, r0, #8
 2522 109a 0743     		orr	r7, r7, r0
 2523 109c 3804     		lsl	r0, r7, #16
 2524 109e 000C     		lsr	r0, r0, #16
 2525 10a0 FFF7FEFF 		bl	Rd6502
 2526 10a4 F378     		ldrb	r3, [r6, #3]
 2527 10a6 C54A     		ldr	r2, .L380+8
 2528 10a8 1B1A     		sub	r3, r3, r0
 2529              	.LVL84:
 2530 10aa 2A40     		and	r2, r2, r5
 2531 10ac 1B04     		lsl	r3, r3, #16
 2532 10ae 1B0C     		lsr	r3, r3, #16
 2533 10b0 151C     		mov	r5, r2
 2534 10b2 7278     		ldrb	r2, [r6, #1]
 2535 10b4 1D43     		orr	r5, r5, r3
 2536 10b6 7C23     		mov	r3, #124
ARM GAS  /cygdrive/c/Users/Zbyszko/AppData/Local/Temp/cc6jOyxc.s 			page 52


 2537 10b8 1A40     		and	r2, r2, r3
 2538 10ba 2B06     		lsl	r3, r5, #24
 2539 10bc 190E     		lsr	r1, r3, #24
 2540 10be 2B04     		lsl	r3, r5, #16
 2541 10c0 1B0E     		lsr	r3, r3, #24
 2542 10c2 7270     		strb	r2, [r6, #1]
 2543 10c4 BC4C     		ldr	r4, .L380+4
 2544 10c6 0020     		mov	r0, #0
 2545 10c8 002B     		cmp	r3, #0
 2546 10ca 00D1     		bne	.L221
 2547 10cc 0120     		mov	r0, #1
 2548              	.L221:
 2549 10ce 635C     		ldrb	r3, [r4, r1]
 2550 10d0 0243     		orr	r2, r2, r0
 2551 10d2 1343     		orr	r3, r3, r2
 2552 10d4 7370     		strb	r3, [r6, #1]
 2553 10d6 02F094F8 		bl	.L146	@ far jump
 2554              	.LVL85:
 2555              	.L129:
 145:Codes.h       **** case 0xCD: MR_Ab(I);M_CMP(R->A,I);break;  /* CMP $ssss ABS */
 2556              		.loc 2 145 0
 2557 10da 3089     		ldrh	r0, [r6, #8]
 2558 10dc 431C     		add	r3, r0, #1
 2559 10de 3381     		strh	r3, [r6, #8]
 2560 10e0 FFF7FEFF 		bl	Rd6502
 2561              	.LVL86:
 2562 10e4 3C1C     		mov	r4, r7
 2563 10e6 FF23     		mov	r3, #255
 2564 10e8 9C43     		bic	r4, r4, r3
 2565 10ea 271C     		mov	r7, r4
 2566 10ec 0743     		orr	r7, r7, r0
 2567 10ee 3089     		ldrh	r0, [r6, #8]
 2568 10f0 431C     		add	r3, r0, #1
 2569 10f2 3381     		strh	r3, [r6, #8]
 2570 10f4 FFF7FEFF 		bl	Rd6502
 2571 10f8 AE4B     		ldr	r3, .L380
 2572 10fa 3B40     		and	r3, r3, r7
 2573 10fc 1F1C     		mov	r7, r3
 2574 10fe 0002     		lsl	r0, r0, #8
 2575 1100 0743     		orr	r7, r7, r0
 2576 1102 3804     		lsl	r0, r7, #16
 2577 1104 000C     		lsr	r0, r0, #16
 2578 1106 FFF7FEFF 		bl	Rd6502
 2579 110a 3378     		ldrb	r3, [r6]
 2580 110c AB4A     		ldr	r2, .L380+8
 2581 110e 1B1A     		sub	r3, r3, r0
 2582              	.LVL87:
 2583 1110 2A40     		and	r2, r2, r5
 2584 1112 1B04     		lsl	r3, r3, #16
 2585 1114 1B0C     		lsr	r3, r3, #16
 2586 1116 151C     		mov	r5, r2
 2587 1118 7278     		ldrb	r2, [r6, #1]
 2588 111a 1D43     		orr	r5, r5, r3
 2589 111c 7C23     		mov	r3, #124
 2590 111e 1A40     		and	r2, r2, r3
 2591 1120 2B06     		lsl	r3, r5, #24
 2592 1122 190E     		lsr	r1, r3, #24
ARM GAS  /cygdrive/c/Users/Zbyszko/AppData/Local/Temp/cc6jOyxc.s 			page 53


 2593 1124 2B04     		lsl	r3, r5, #16
 2594 1126 1B0E     		lsr	r3, r3, #24
 2595 1128 7270     		strb	r2, [r6, #1]
 2596 112a A34C     		ldr	r4, .L380+4
 2597 112c 0020     		mov	r0, #0
 2598 112e 002B     		cmp	r3, #0
 2599 1130 00D1     		bne	.L222
 2600 1132 0120     		mov	r0, #1
 2601              	.L222:
 2602 1134 635C     		ldrb	r3, [r4, r1]
 2603 1136 0243     		orr	r2, r2, r0
 2604 1138 1343     		orr	r3, r3, r2
 2605 113a 7370     		strb	r3, [r6, #1]
 2606 113c 02F061F8 		bl	.L146	@ far jump
 2607              	.LVL88:
 2608              	.L130:
 146:Codes.h       **** case 0xCE: MM_Ab(M_DEC);break;            /* DEC $ssss ABS */
 2609              		.loc 2 146 0
 2610 1140 3089     		ldrh	r0, [r6, #8]
 2611 1142 431C     		add	r3, r0, #1
 2612 1144 3381     		strh	r3, [r6, #8]
 2613 1146 FFF7FEFF 		bl	Rd6502
 2614 114a FF23     		mov	r3, #255
 2615              	.LVL89:
 2616 114c 391C     		mov	r1, r7
 2617 114e 9943     		bic	r1, r1, r3
 2618 1150 0F1C     		mov	r7, r1
 2619 1152 0743     		orr	r7, r7, r0
 2620 1154 3089     		ldrh	r0, [r6, #8]
 2621 1156 431C     		add	r3, r0, #1
 2622 1158 3381     		strh	r3, [r6, #8]
 2623 115a FFF7FEFF 		bl	Rd6502
 2624 115e 954B     		ldr	r3, .L380
 2625 1160 3B40     		and	r3, r3, r7
 2626 1162 1F1C     		mov	r7, r3
 2627 1164 0002     		lsl	r0, r0, #8
 2628 1166 0743     		orr	r7, r7, r0
 2629 1168 3C04     		lsl	r4, r7, #16
 2630 116a 240C     		lsr	r4, r4, #16
 2631 116c 201C     		mov	r0, r4
 2632 116e FFF7FEFF 		bl	Rd6502
 2633 1172 7378     		ldrb	r3, [r6, #1]
 2634 1174 011C     		mov	r1, r0
 2635 1176 7D22     		mov	r2, #125
 2636 1178 0139     		sub	r1, r1, #1
 2637 117a 1340     		and	r3, r3, r2
 2638 117c 0906     		lsl	r1, r1, #24
 2639 117e 8E4A     		ldr	r2, .L380+4
 2640 1180 090E     		lsr	r1, r1, #24
 2641 1182 525C     		ldrb	r2, [r2, r1]
 2642 1184 1343     		orr	r3, r3, r2
 2643 1186 7370     		strb	r3, [r6, #1]
 2644 1188 201C     		mov	r0, r4
 2645 118a FFF7FEFF 		bl	Wr6502
 2646 118e 02F038F8 		bl	.L146	@ far jump
 2647              	.LVL90:
 2648              	.L147:
ARM GAS  /cygdrive/c/Users/Zbyszko/AppData/Local/Temp/cc6jOyxc.s 			page 54


 147:Codes.h       **** case 0xEC: MR_Ab(I);M_CMP(R->X,I);break;  /* CPX $ssss ABS */
 2649              		.loc 2 147 0
 2650 1192 3089     		ldrh	r0, [r6, #8]
 2651 1194 431C     		add	r3, r0, #1
 2652 1196 3381     		strh	r3, [r6, #8]
 2653 1198 FFF7FEFF 		bl	Rd6502
 2654 119c FF23     		mov	r3, #255
 2655              	.LVL91:
 2656 119e 3A1C     		mov	r2, r7
 2657 11a0 9A43     		bic	r2, r2, r3
 2658 11a2 171C     		mov	r7, r2
 2659 11a4 0743     		orr	r7, r7, r0
 2660 11a6 3089     		ldrh	r0, [r6, #8]
 2661 11a8 431C     		add	r3, r0, #1
 2662 11aa 3381     		strh	r3, [r6, #8]
 2663 11ac FFF7FEFF 		bl	Rd6502
 2664 11b0 804B     		ldr	r3, .L380
 2665 11b2 3B40     		and	r3, r3, r7
 2666 11b4 1F1C     		mov	r7, r3
 2667 11b6 0002     		lsl	r0, r0, #8
 2668 11b8 0743     		orr	r7, r7, r0
 2669 11ba 3804     		lsl	r0, r7, #16
 2670 11bc 000C     		lsr	r0, r0, #16
 2671 11be FFF7FEFF 		bl	Rd6502
 2672 11c2 B378     		ldrb	r3, [r6, #2]
 2673 11c4 7D4A     		ldr	r2, .L380+8
 2674 11c6 1B1A     		sub	r3, r3, r0
 2675              	.LVL92:
 2676 11c8 2A40     		and	r2, r2, r5
 2677 11ca 1B04     		lsl	r3, r3, #16
 2678 11cc 1B0C     		lsr	r3, r3, #16
 2679 11ce 151C     		mov	r5, r2
 2680 11d0 7278     		ldrb	r2, [r6, #1]
 2681 11d2 1D43     		orr	r5, r5, r3
 2682 11d4 7C23     		mov	r3, #124
 2683 11d6 1A40     		and	r2, r2, r3
 2684 11d8 2B06     		lsl	r3, r5, #24
 2685 11da 190E     		lsr	r1, r3, #24
 2686 11dc 2B04     		lsl	r3, r5, #16
 2687 11de 1B0E     		lsr	r3, r3, #24
 2688 11e0 7270     		strb	r2, [r6, #1]
 2689 11e2 754C     		ldr	r4, .L380+4
 2690 11e4 0020     		mov	r0, #0
 2691 11e6 002B     		cmp	r3, #0
 2692 11e8 00D1     		bne	.L223
 2693 11ea 0120     		mov	r0, #1
 2694              	.L223:
 2695 11ec 635C     		ldrb	r3, [r4, r1]
 2696 11ee 0243     		orr	r2, r2, r0
 2697 11f0 1343     		orr	r3, r3, r2
 2698 11f2 7370     		strb	r3, [r6, #1]
 2699 11f4 02F005F8 		bl	.L146	@ far jump
 2700              	.LVL93:
 2701              	.L148:
 148:Codes.h       **** case 0xED: MR_Ab(I);M_SBC(I);break;       /* SBC $ssss ABS */
 2702              		.loc 2 148 0
 2703 11f8 3089     		ldrh	r0, [r6, #8]
ARM GAS  /cygdrive/c/Users/Zbyszko/AppData/Local/Temp/cc6jOyxc.s 			page 55


 2704 11fa 431C     		add	r3, r0, #1
 2705 11fc 3381     		strh	r3, [r6, #8]
 2706 11fe FFF7FEFF 		bl	Rd6502
 2707 1202 FF24     		mov	r4, #255
 2708              	.LVL94:
 2709 1204 3B1C     		mov	r3, r7
 2710 1206 A343     		bic	r3, r3, r4
 2711 1208 1F1C     		mov	r7, r3
 2712 120a 0743     		orr	r7, r7, r0
 2713 120c 3089     		ldrh	r0, [r6, #8]
 2714 120e 431C     		add	r3, r0, #1
 2715 1210 3381     		strh	r3, [r6, #8]
 2716 1212 FFF7FEFF 		bl	Rd6502
 2717 1216 674B     		ldr	r3, .L380
 2718 1218 3B40     		and	r3, r3, r7
 2719 121a 0002     		lsl	r0, r0, #8
 2720 121c 1F1C     		mov	r7, r3
 2721 121e 0743     		orr	r7, r7, r0
 2722 1220 3804     		lsl	r0, r7, #16
 2723 1222 000C     		lsr	r0, r0, #16
 2724 1224 FFF7FEFF 		bl	Rd6502
 2725 1228 7778     		ldrb	r7, [r6, #1]
 2726              	.LVL95:
 2727 122a 3478     		ldrb	r4, [r6]
 2728 122c BC46     		mov	ip, r7
 2729 122e FD43     		mvn	r5, r7
 2730 1230 3F07     		lsl	r7, r7, #28
 2731 1232 47D5     		bpl	.L224
 2732 1234 0F21     		mov	r1, #15
 2733 1236 231C     		mov	r3, r4
 2734              	.LVL96:
 2735 1238 021C     		mov	r2, r0
 2736 123a 0A40     		and	r2, r2, r1
 2737 123c 0B40     		and	r3, r3, r1
 2738 123e 9B1A     		sub	r3, r3, r2
 2739 1240 0122     		mov	r2, #1
 2740 1242 2A40     		and	r2, r2, r5
 2741 1244 9B1A     		sub	r3, r3, r2
 2742 1246 FF27     		mov	r7, #255
 2743              	.LVL97:
 2744 1248 2A1C     		mov	r2, r5
 2745 124a BA43     		bic	r2, r2, r7
 2746 124c 1B06     		lsl	r3, r3, #24
 2747 124e 1B0E     		lsr	r3, r3, #24
 2748 1250 151C     		mov	r5, r2
 2749 1252 1D43     		orr	r5, r5, r3
 2750 1254 2B06     		lsl	r3, r5, #24
 2751 1256 1B0E     		lsr	r3, r3, #24
 2752 1258 1027     		mov	r7, #16
 2753 125a 3B42     		tst	r3, r7
 2754 125c 08D0     		beq	.L226
 2755 125e 063B     		sub	r3, r3, #6
 2756 1260 1B06     		lsl	r3, r3, #24
 2757 1262 1B0E     		lsr	r3, r3, #24
 2758 1264 0093     		str	r3, [sp]
 2759 1266 2A1C     		mov	r2, r5
 2760 1268 FF23     		mov	r3, #255
ARM GAS  /cygdrive/c/Users/Zbyszko/AppData/Local/Temp/cc6jOyxc.s 			page 56


 2761 126a 009D     		ldr	r5, [sp]
 2762 126c 9A43     		bic	r2, r2, r3
 2763 126e 1543     		orr	r5, r5, r2
 2764              	.L226:
 2765 1270 0309     		lsr	r3, r0, #4
 2766 1272 2209     		lsr	r2, r4, #4
 2767 1274 D21A     		sub	r2, r2, r3
 2768 1276 2B1C     		mov	r3, r5
 2769 1278 3B40     		and	r3, r3, r7
 2770 127a 1B11     		asr	r3, r3, #4
 2771 127c D21A     		sub	r2, r2, r3
 2772 127e 4D4B     		ldr	r3, .L380
 2773 1280 1206     		lsl	r2, r2, #24
 2774 1282 100E     		lsr	r0, r2, #24
 2775              	.LVL98:
 2776 1284 2B40     		and	r3, r3, r5
 2777 1286 0202     		lsl	r2, r0, #8
 2778 1288 1D1C     		mov	r5, r3
 2779 128a 1543     		orr	r5, r5, r2
 2780 128c 3842     		tst	r0, r7
 2781 128e 06D0     		beq	.L228
 2782 1290 484A     		ldr	r2, .L380
 2783 1292 831F     		sub	r3, r0, #6
 2784 1294 1B06     		lsl	r3, r3, #24
 2785 1296 2A40     		and	r2, r2, r5
 2786 1298 1B0C     		lsr	r3, r3, #16
 2787 129a 151C     		mov	r5, r2
 2788 129c 1D43     		orr	r5, r5, r3
 2789              	.L228:
 2790 129e 2B04     		lsl	r3, r5, #16
 2791 12a0 1B0E     		lsr	r3, r3, #24
 2792 12a2 2A1C     		mov	r2, r5
 2793 12a4 0A40     		and	r2, r2, r1
 2794 12a6 1901     		lsl	r1, r3, #4
 2795 12a8 0A43     		orr	r2, r2, r1
 2796 12aa 3270     		strb	r2, [r6]
 2797 12ac 0124     		mov	r4, #1
 2798 12ae 6246     		mov	r2, ip
 2799 12b0 A243     		bic	r2, r2, r4
 2800 12b2 0021     		mov	r1, #0
 2801 12b4 0F2B     		cmp	r3, #15
 2802 12b6 00D8     		bhi	.L230
 2803 12b8 0121     		mov	r1, #1
 2804              	.L230:
 2805 12ba 131C     		mov	r3, r2
 2806 12bc 0B43     		orr	r3, r3, r1
 2807 12be 7370     		strb	r3, [r6, #1]
 2808 12c0 01F09FFF 		bl	.L146	@ far jump
 2809              	.LVL99:
 2810              	.L224:
 2811 12c4 0122     		mov	r2, #1
 2812 12c6 2A40     		and	r2, r2, r5
 2813              	.LVL100:
 2814 12c8 231A     		sub	r3, r4, r0
 2815 12ca 9B1A     		sub	r3, r3, r2
 2816 12cc 3B4A     		ldr	r2, .L380+8
 2817 12ce 1B04     		lsl	r3, r3, #16
ARM GAS  /cygdrive/c/Users/Zbyszko/AppData/Local/Temp/cc6jOyxc.s 			page 57


 2818              	.LVL101:
 2819 12d0 2A40     		and	r2, r2, r5
 2820 12d2 1B0C     		lsr	r3, r3, #16
 2821 12d4 151C     		mov	r5, r2
 2822 12d6 1D43     		orr	r5, r5, r3
 2823 12d8 6746     		mov	r7, ip
 2824 12da 3C23     		mov	r3, #60
 2825 12dc 1F40     		and	r7, r7, r3
 2826 12de 2B06     		lsl	r3, r5, #24
 2827 12e0 190E     		lsr	r1, r3, #24
 2828 12e2 221C     		mov	r2, r4
 2829 12e4 231C     		mov	r3, r4
 2830 12e6 4340     		eor	r3, r3, r0
 2831 12e8 4A40     		eor	r2, r2, r1
 2832 12ea 1340     		and	r3, r3, r2
 2833 12ec 1B06     		lsl	r3, r3, #24
 2834 12ee 7770     		strb	r7, [r6, #1]
 2835 12f0 002B     		cmp	r3, #0
 2836 12f2 01DA     		bge	.L231
 2837 12f4 4022     		mov	r2, #64
 2838 12f6 00E0     		b	.L233
 2839              	.L231:
 2840 12f8 0022     		mov	r2, #0
 2841              	.L233:
 2842 12fa 2B04     		lsl	r3, r5, #16
 2843 12fc 1B0E     		lsr	r3, r3, #24
 2844 12fe 2E48     		ldr	r0, .L380+4
 2845              	.LVL102:
 2846 1300 0024     		mov	r4, #0
 2847 1302 002B     		cmp	r3, #0
 2848 1304 00D1     		bne	.L234
 2849 1306 0124     		mov	r4, #1
 2850              	.L234:
 2851 1308 435C     		ldrb	r3, [r0, r1]
 2852 130a 3A43     		orr	r2, r2, r7
 2853 130c 2343     		orr	r3, r3, r4
 2854 130e 1343     		orr	r3, r3, r2
 2855 1310 7370     		strb	r3, [r6, #1]
 2856 1312 3170     		strb	r1, [r6]
 2857 1314 01F075FF 		bl	.L146	@ far jump
 2858              	.LVL103:
 2859              	.L149:
 149:Codes.h       **** case 0xEE: MM_Ab(M_INC);break;            /* INC $ssss ABS */
 2860              		.loc 2 149 0
 2861 1318 3089     		ldrh	r0, [r6, #8]
 2862 131a 431C     		add	r3, r0, #1
 2863 131c 3381     		strh	r3, [r6, #8]
 2864 131e FFF7FEFF 		bl	Rd6502
 2865 1322 FF23     		mov	r3, #255
 2866              	.LVL104:
 2867 1324 391C     		mov	r1, r7
 2868 1326 9943     		bic	r1, r1, r3
 2869 1328 0F1C     		mov	r7, r1
 2870 132a 0743     		orr	r7, r7, r0
 2871 132c 3089     		ldrh	r0, [r6, #8]
 2872 132e 431C     		add	r3, r0, #1
 2873 1330 3381     		strh	r3, [r6, #8]
ARM GAS  /cygdrive/c/Users/Zbyszko/AppData/Local/Temp/cc6jOyxc.s 			page 58


 2874 1332 FFF7FEFF 		bl	Rd6502
 2875 1336 1F4B     		ldr	r3, .L380
 2876 1338 3B40     		and	r3, r3, r7
 2877 133a 1F1C     		mov	r7, r3
 2878 133c 0002     		lsl	r0, r0, #8
 2879 133e 0743     		orr	r7, r7, r0
 2880 1340 3C04     		lsl	r4, r7, #16
 2881 1342 240C     		lsr	r4, r4, #16
 2882 1344 201C     		mov	r0, r4
 2883 1346 FFF7FEFF 		bl	Rd6502
 2884 134a 7378     		ldrb	r3, [r6, #1]
 2885 134c 011C     		mov	r1, r0
 2886 134e 7D22     		mov	r2, #125
 2887 1350 0131     		add	r1, r1, #1
 2888 1352 1340     		and	r3, r3, r2
 2889 1354 0906     		lsl	r1, r1, #24
 2890 1356 184A     		ldr	r2, .L380+4
 2891 1358 090E     		lsr	r1, r1, #24
 2892 135a 525C     		ldrb	r2, [r2, r1]
 2893 135c 1343     		orr	r3, r3, r2
 2894 135e 7370     		strb	r3, [r6, #1]
 2895 1360 201C     		mov	r0, r4
 2896 1362 FFF7FEFF 		bl	Wr6502
 2897 1366 01F04CFF 		bl	.L146	@ far jump
 2898              	.LVL105:
 2899              	.L12:
 150:Codes.h       **** 
 151:Codes.h       **** case 0x09: MR_Im(I);M_ORA(I);break;       /* ORA #$ss IMM */
 2900              		.loc 2 151 0
 2901 136a 3089     		ldrh	r0, [r6, #8]
 2902 136c 431C     		add	r3, r0, #1
 2903 136e 3381     		strh	r3, [r6, #8]
 2904 1370 FFF7FEFF 		bl	Rd6502
 2905 1374 3378     		ldrb	r3, [r6]
 2906 1376 0343     		orr	r3, r3, r0
 2907 1378 7278     		ldrb	r2, [r6, #1]
 2908 137a 1B06     		lsl	r3, r3, #24
 2909 137c 1B0E     		lsr	r3, r3, #24
 2910 137e 7D21     		mov	r1, #125
 2911 1380 0A40     		and	r2, r2, r1
 2912 1382 3370     		strb	r3, [r6]
 2913 1384 0C49     		ldr	r1, .L380+4
 2914 1386 CB5C     		ldrb	r3, [r1, r3]
 2915 1388 1A43     		orr	r2, r2, r3
 2916 138a 7270     		strb	r2, [r6, #1]
 2917 138c 01F039FF 		bl	.L146	@ far jump
 2918              	.L30:
 152:Codes.h       **** case 0x29: MR_Im(I);M_AND(I);break;       /* AND #$ss IMM */
 2919              		.loc 2 152 0
 2920 1390 3089     		ldrh	r0, [r6, #8]
 2921 1392 431C     		add	r3, r0, #1
 2922 1394 3381     		strh	r3, [r6, #8]
 2923 1396 FFF7FEFF 		bl	Rd6502
 2924 139a 3178     		ldrb	r1, [r6]
 2925 139c 7378     		ldrb	r3, [r6, #1]
 2926 139e 0140     		and	r1, r1, r0
 2927 13a0 7D22     		mov	r2, #125
ARM GAS  /cygdrive/c/Users/Zbyszko/AppData/Local/Temp/cc6jOyxc.s 			page 59


 2928 13a2 1340     		and	r3, r3, r2
 2929 13a4 3170     		strb	r1, [r6]
 2930 13a6 044A     		ldr	r2, .L380+4
 2931 13a8 525C     		ldrb	r2, [r2, r1]
 2932 13aa 1343     		orr	r3, r3, r2
 2933 13ac 7370     		strb	r3, [r6, #1]
 2934 13ae 01F028FF 		bl	.L146	@ far jump
 2935              	.L381:
 2936 13b2 0000     		.align	2
 2937              	.L380:
 2938 13b4 FF00FFFF 		.word	-65281
 2939 13b8 00000000 		.word	ZNTable
 2940 13bc 0000FFFF 		.word	-65536
 2941              	.L48:
 153:Codes.h       **** case 0x49: MR_Im(I);M_EOR(I);break;       /* EOR #$ss IMM */
 2942              		.loc 2 153 0
 2943 13c0 3089     		ldrh	r0, [r6, #8]
 2944 13c2 431C     		add	r3, r0, #1
 2945 13c4 3381     		strh	r3, [r6, #8]
 2946 13c6 FFF7FEFF 		bl	Rd6502
 2947 13ca 3378     		ldrb	r3, [r6]
 2948 13cc 4340     		eor	r3, r3, r0
 2949 13ce 7278     		ldrb	r2, [r6, #1]
 2950 13d0 1B06     		lsl	r3, r3, #24
 2951 13d2 1B0E     		lsr	r3, r3, #24
 2952 13d4 7D21     		mov	r1, #125
 2953 13d6 0A40     		and	r2, r2, r1
 2954 13d8 3370     		strb	r3, [r6]
 2955 13da E749     		ldr	r1, .L382
 2956 13dc CB5C     		ldrb	r3, [r1, r3]
 2957 13de 1A43     		orr	r2, r2, r3
 2958 13e0 7270     		strb	r2, [r6, #1]
 2959 13e2 01F00EFF 		bl	.L146	@ far jump
 2960              	.L66:
 154:Codes.h       **** case 0x69: MR_Im(I);M_ADC(I);break;       /* ADC #$ss IMM */
 2961              		.loc 2 154 0
 2962 13e6 3089     		ldrh	r0, [r6, #8]
 2963 13e8 431C     		add	r3, r0, #1
 2964 13ea 3381     		strh	r3, [r6, #8]
 2965 13ec FFF7FEFF 		bl	Rd6502
 2966 13f0 7778     		ldrb	r7, [r6, #1]
 2967 13f2 3478     		ldrb	r4, [r6]
 2968 13f4 3A07     		lsl	r2, r7, #28
 2969 13f6 39D5     		bpl	.L235
 2970 13f8 0F23     		mov	r3, #15
 2971 13fa 0122     		mov	r2, #1
 2972 13fc 191C     		mov	r1, r3
 2973 13fe 3A40     		and	r2, r2, r7
 2974 1400 9C46     		mov	ip, r3
 2975 1402 2340     		and	r3, r3, r4
 2976 1404 9B18     		add	r3, r3, r2
 2977              	.LVL106:
 2978 1406 0140     		and	r1, r1, r0
 2979 1408 C918     		add	r1, r1, r3
 2980 140a FF22     		mov	r2, #255
 2981              	.LVL107:
 2982 140c 2B1C     		mov	r3, r5
ARM GAS  /cygdrive/c/Users/Zbyszko/AppData/Local/Temp/cc6jOyxc.s 			page 60


 2983 140e 9343     		bic	r3, r3, r2
 2984 1410 1D1C     		mov	r5, r3
 2985 1412 0D43     		orr	r5, r5, r1
 2986 1414 2B06     		lsl	r3, r5, #24
 2987 1416 1B0E     		lsr	r3, r3, #24
 2988 1418 092B     		cmp	r3, #9
 2989 141a 06D9     		bls	.L237
 2990 141c 291C     		mov	r1, r5
 2991 141e 0633     		add	r3, r3, #6
 2992 1420 1B06     		lsl	r3, r3, #24
 2993 1422 9143     		bic	r1, r1, r2
 2994 1424 1B0E     		lsr	r3, r3, #24
 2995 1426 0D1C     		mov	r5, r1
 2996 1428 1D43     		orr	r5, r5, r3
 2997              	.L237:
 2998 142a 2B06     		lsl	r3, r5, #24
 2999 142c 1B0E     		lsr	r3, r3, #24
 3000 142e 2209     		lsr	r2, r4, #4
 3001 1430 0009     		lsr	r0, r0, #4
 3002              	.LVL108:
 3003 1432 0024     		mov	r4, #0
 3004 1434 0F2B     		cmp	r3, #15
 3005 1436 00D9     		bls	.L239
 3006 1438 0124     		mov	r4, #1
 3007              	.L239:
 3008 143a 1219     		add	r2, r2, r4
 3009 143c 8218     		add	r2, r0, r2
 3010 143e CF4B     		ldr	r3, .L382+4
 3011 1440 1206     		lsl	r2, r2, #24
 3012 1442 120E     		lsr	r2, r2, #24
 3013 1444 2B40     		and	r3, r3, r5
 3014 1446 1102     		lsl	r1, r2, #8
 3015 1448 1D1C     		mov	r5, r3
 3016 144a 0D43     		orr	r5, r5, r1
 3017 144c 6346     		mov	r3, ip
 3018 144e 1101     		lsl	r1, r2, #4
 3019 1450 2B40     		and	r3, r3, r5
 3020 1452 0B43     		orr	r3, r3, r1
 3021 1454 3370     		strb	r3, [r6]
 3022 1456 0124     		mov	r4, #1
 3023 1458 3B1C     		mov	r3, r7
 3024 145a A343     		bic	r3, r3, r4
 3025 145c 0021     		mov	r1, #0
 3026 145e 0F2A     		cmp	r2, #15
 3027 1460 00D9     		bls	.L240
 3028 1462 0121     		mov	r1, #1
 3029              	.L240:
 3030 1464 0B43     		orr	r3, r3, r1
 3031 1466 7370     		strb	r3, [r6, #1]
 3032 1468 01F0CBFE 		bl	.L146	@ far jump
 3033              	.LVL109:
 3034              	.L235:
 3035 146c 0123     		mov	r3, #1
 3036 146e 3B40     		and	r3, r3, r7
 3037 1470 E318     		add	r3, r4, r3
 3038 1472 C34A     		ldr	r2, .L382+8
 3039              	.LVL110:
ARM GAS  /cygdrive/c/Users/Zbyszko/AppData/Local/Temp/cc6jOyxc.s 			page 61


 3040 1474 C318     		add	r3, r0, r3
 3041              	.LVL111:
 3042 1476 2A40     		and	r2, r2, r5
 3043 1478 1B04     		lsl	r3, r3, #16
 3044 147a 1B0C     		lsr	r3, r3, #16
 3045 147c 151C     		mov	r5, r2
 3046 147e 1D43     		orr	r5, r5, r3
 3047 1480 3C23     		mov	r3, #60
 3048 1482 1F40     		and	r7, r7, r3
 3049 1484 221C     		mov	r2, r4
 3050 1486 2B06     		lsl	r3, r5, #24
 3051 1488 BC46     		mov	ip, r7
 3052 148a 7770     		strb	r7, [r6, #1]
 3053 148c 4240     		eor	r2, r2, r0
 3054 148e 1F0E     		lsr	r7, r3, #24
 3055 1490 231C     		mov	r3, r4
 3056 1492 1206     		lsl	r2, r2, #24
 3057 1494 7B40     		eor	r3, r3, r7
 3058 1496 8021     		mov	r1, #128
 3059 1498 120E     		lsr	r2, r2, #24
 3060 149a 0B40     		and	r3, r3, r1
 3061 149c 9343     		bic	r3, r2
 3062 149e 01D0     		beq	.L241
 3063 14a0 4022     		mov	r2, #64
 3064 14a2 00E0     		b	.L243
 3065              	.L241:
 3066 14a4 0022     		mov	r2, #0
 3067              	.L243:
 3068 14a6 2B04     		lsl	r3, r5, #16
 3069 14a8 1B0E     		lsr	r3, r3, #24
 3070 14aa B349     		ldr	r1, .L382
 3071 14ac 0020     		mov	r0, #0
 3072              	.LVL112:
 3073 14ae 002B     		cmp	r3, #0
 3074 14b0 00D0     		beq	.L244
 3075 14b2 0120     		mov	r0, #1
 3076              	.L244:
 3077 14b4 CB5D     		ldrb	r3, [r1, r7]
 3078 14b6 6146     		mov	r1, ip
 3079 14b8 0343     		orr	r3, r3, r0
 3080 14ba 0A43     		orr	r2, r2, r1
 3081 14bc 1343     		orr	r3, r3, r2
 3082 14be 7370     		strb	r3, [r6, #1]
 3083 14c0 3770     		strb	r7, [r6]
 3084 14c2 01F09EFE 		bl	.L146	@ far jump
 3085              	.LVL113:
 3086              	.L97:
 155:Codes.h       **** case 0xA0: MR_Im(R->Y);M_FL(R->Y);break;  /* LDY #$ss IMM */
 3087              		.loc 2 155 0
 3088 14c6 3089     		ldrh	r0, [r6, #8]
 3089 14c8 431C     		add	r3, r0, #1
 3090 14ca 3381     		strh	r3, [r6, #8]
 3091 14cc FFF7FEFF 		bl	Rd6502
 3092 14d0 7378     		ldrb	r3, [r6, #1]
 3093 14d2 7D22     		mov	r2, #125
 3094 14d4 1340     		and	r3, r3, r2
 3095 14d6 F070     		strb	r0, [r6, #3]
ARM GAS  /cygdrive/c/Users/Zbyszko/AppData/Local/Temp/cc6jOyxc.s 			page 62


 3096 14d8 A74A     		ldr	r2, .L382
 3097 14da 125C     		ldrb	r2, [r2, r0]
 3098 14dc 1343     		orr	r3, r3, r2
 3099 14de 7370     		strb	r3, [r6, #1]
 3100 14e0 01F08FFE 		bl	.L146	@ far jump
 3101              	.L99:
 156:Codes.h       **** case 0xA2: MR_Im(R->X);M_FL(R->X);break;  /* LDX #$ss IMM */
 3102              		.loc 2 156 0
 3103 14e4 3089     		ldrh	r0, [r6, #8]
 3104 14e6 431C     		add	r3, r0, #1
 3105 14e8 3381     		strh	r3, [r6, #8]
 3106 14ea FFF7FEFF 		bl	Rd6502
 3107 14ee 7378     		ldrb	r3, [r6, #1]
 3108 14f0 7D22     		mov	r2, #125
 3109 14f2 1340     		and	r3, r3, r2
 3110 14f4 B070     		strb	r0, [r6, #2]
 3111 14f6 A04A     		ldr	r2, .L382
 3112 14f8 125C     		ldrb	r2, [r2, r0]
 3113 14fa 1343     		orr	r3, r3, r2
 3114 14fc 7370     		strb	r3, [r6, #1]
 3115 14fe 01F080FE 		bl	.L146	@ far jump
 3116              	.L104:
 157:Codes.h       **** case 0xA9: MR_Im(R->A);M_FL(R->A);break;  /* LDA #$ss IMM */
 3117              		.loc 2 157 0
 3118 1502 3089     		ldrh	r0, [r6, #8]
 3119 1504 431C     		add	r3, r0, #1
 3120 1506 3381     		strh	r3, [r6, #8]
 3121 1508 FFF7FEFF 		bl	Rd6502
 3122 150c 7378     		ldrb	r3, [r6, #1]
 3123 150e 7D22     		mov	r2, #125
 3124 1510 1340     		and	r3, r3, r2
 3125 1512 3070     		strb	r0, [r6]
 3126 1514 984A     		ldr	r2, .L382
 3127 1516 125C     		ldrb	r2, [r2, r0]
 3128 1518 1343     		orr	r3, r3, r2
 3129 151a 7370     		strb	r3, [r6, #1]
 3130 151c 01F071FE 		bl	.L146	@ far jump
 3131              	.L120:
 158:Codes.h       **** case 0xC0: MR_Im(I);M_CMP(R->Y,I);break;  /* CPY #$ss IMM */
 3132              		.loc 2 158 0
 3133 1520 3089     		ldrh	r0, [r6, #8]
 3134 1522 431C     		add	r3, r0, #1
 3135 1524 3381     		strh	r3, [r6, #8]
 3136 1526 FFF7FEFF 		bl	Rd6502
 3137 152a F378     		ldrb	r3, [r6, #3]
 3138 152c 944A     		ldr	r2, .L382+8
 3139 152e 1B1A     		sub	r3, r3, r0
 3140              	.LVL114:
 3141 1530 2A40     		and	r2, r2, r5
 3142 1532 1B04     		lsl	r3, r3, #16
 3143 1534 1B0C     		lsr	r3, r3, #16
 3144 1536 151C     		mov	r5, r2
 3145 1538 7278     		ldrb	r2, [r6, #1]
 3146 153a 1D43     		orr	r5, r5, r3
 3147 153c 7C23     		mov	r3, #124
 3148 153e 1A40     		and	r2, r2, r3
 3149 1540 2B06     		lsl	r3, r5, #24
ARM GAS  /cygdrive/c/Users/Zbyszko/AppData/Local/Temp/cc6jOyxc.s 			page 63


 3150 1542 190E     		lsr	r1, r3, #24
 3151 1544 2B04     		lsl	r3, r5, #16
 3152 1546 1B0E     		lsr	r3, r3, #24
 3153 1548 7270     		strb	r2, [r6, #1]
 3154 154a 8B4C     		ldr	r4, .L382
 3155 154c 0020     		mov	r0, #0
 3156 154e 002B     		cmp	r3, #0
 3157 1550 00D1     		bne	.L245
 3158 1552 0120     		mov	r0, #1
 3159              	.L245:
 3160 1554 635C     		ldrb	r3, [r4, r1]
 3161 1556 0243     		orr	r2, r2, r0
 3162 1558 1343     		orr	r3, r3, r2
 3163 155a 7370     		strb	r3, [r6, #1]
 3164 155c 01F051FE 		bl	.L146	@ far jump
 3165              	.LVL115:
 3166              	.L126:
 159:Codes.h       **** case 0xC9: MR_Im(I);M_CMP(R->A,I);break;  /* CMP #$ss IMM */
 3167              		.loc 2 159 0
 3168 1560 3089     		ldrh	r0, [r6, #8]
 3169 1562 431C     		add	r3, r0, #1
 3170 1564 3381     		strh	r3, [r6, #8]
 3171 1566 FFF7FEFF 		bl	Rd6502
 3172 156a 3378     		ldrb	r3, [r6]
 3173 156c 844A     		ldr	r2, .L382+8
 3174 156e 1B1A     		sub	r3, r3, r0
 3175              	.LVL116:
 3176 1570 2A40     		and	r2, r2, r5
 3177 1572 1B04     		lsl	r3, r3, #16
 3178 1574 1B0C     		lsr	r3, r3, #16
 3179 1576 151C     		mov	r5, r2
 3180 1578 7278     		ldrb	r2, [r6, #1]
 3181 157a 1D43     		orr	r5, r5, r3
 3182 157c 7C23     		mov	r3, #124
 3183 157e 1A40     		and	r2, r2, r3
 3184 1580 2B06     		lsl	r3, r5, #24
 3185 1582 190E     		lsr	r1, r3, #24
 3186 1584 2B04     		lsl	r3, r5, #16
 3187 1586 1B0E     		lsr	r3, r3, #24
 3188 1588 7270     		strb	r2, [r6, #1]
 3189 158a 7B4C     		ldr	r4, .L382
 3190 158c 0020     		mov	r0, #0
 3191 158e 002B     		cmp	r3, #0
 3192 1590 00D1     		bne	.L246
 3193 1592 0120     		mov	r0, #1
 3194              	.L246:
 3195 1594 635C     		ldrb	r3, [r4, r1]
 3196 1596 0243     		orr	r2, r2, r0
 3197 1598 1343     		orr	r3, r3, r2
 3198 159a 7370     		strb	r3, [r6, #1]
 3199 159c 01F031FE 		bl	.L146	@ far jump
 3200              	.LVL117:
 3201              	.L139:
 160:Codes.h       **** case 0xE0: MR_Im(I);M_CMP(R->X,I);break;  /* CPX #$ss IMM */
 3202              		.loc 2 160 0
 3203 15a0 3089     		ldrh	r0, [r6, #8]
 3204 15a2 431C     		add	r3, r0, #1
ARM GAS  /cygdrive/c/Users/Zbyszko/AppData/Local/Temp/cc6jOyxc.s 			page 64


 3205 15a4 3381     		strh	r3, [r6, #8]
 3206 15a6 FFF7FEFF 		bl	Rd6502
 3207 15aa B378     		ldrb	r3, [r6, #2]
 3208 15ac 744A     		ldr	r2, .L382+8
 3209 15ae 1B1A     		sub	r3, r3, r0
 3210              	.LVL118:
 3211 15b0 2A40     		and	r2, r2, r5
 3212 15b2 1B04     		lsl	r3, r3, #16
 3213 15b4 1B0C     		lsr	r3, r3, #16
 3214 15b6 151C     		mov	r5, r2
 3215 15b8 7278     		ldrb	r2, [r6, #1]
 3216 15ba 1D43     		orr	r5, r5, r3
 3217 15bc 7C23     		mov	r3, #124
 3218 15be 1A40     		and	r2, r2, r3
 3219 15c0 2B06     		lsl	r3, r5, #24
 3220 15c2 190E     		lsr	r1, r3, #24
 3221 15c4 2B04     		lsl	r3, r5, #16
 3222 15c6 1B0E     		lsr	r3, r3, #24
 3223 15c8 7270     		strb	r2, [r6, #1]
 3224 15ca 6B4C     		ldr	r4, .L382
 3225 15cc 0020     		mov	r0, #0
 3226 15ce 002B     		cmp	r3, #0
 3227 15d0 00D1     		bne	.L247
 3228 15d2 0120     		mov	r0, #1
 3229              	.L247:
 3230 15d4 635C     		ldrb	r3, [r4, r1]
 3231 15d6 0243     		orr	r2, r2, r0
 3232 15d8 1343     		orr	r3, r3, r2
 3233 15da 7370     		strb	r3, [r6, #1]
 3234 15dc 01F011FE 		bl	.L146	@ far jump
 3235              	.LVL119:
 3236              	.L145:
 161:Codes.h       **** case 0xE9: MR_Im(I);M_SBC(I);break;       /* SBC #$ss IMM */
 3237              		.loc 2 161 0
 3238 15e0 3089     		ldrh	r0, [r6, #8]
 3239 15e2 431C     		add	r3, r0, #1
 3240 15e4 3381     		strh	r3, [r6, #8]
 3241 15e6 FFF7FEFF 		bl	Rd6502
 3242 15ea 7278     		ldrb	r2, [r6, #1]
 3243 15ec 3478     		ldrb	r4, [r6]
 3244 15ee 9446     		mov	ip, r2
 3245 15f0 D543     		mvn	r5, r2
 3246 15f2 1207     		lsl	r2, r2, #28
 3247 15f4 45D5     		bpl	.L248
 3248 15f6 0F23     		mov	r3, #15
 3249 15f8 0F22     		mov	r2, #15
 3250              	.LVL120:
 3251 15fa 0240     		and	r2, r2, r0
 3252 15fc 2340     		and	r3, r3, r4
 3253 15fe 9B1A     		sub	r3, r3, r2
 3254 1600 0122     		mov	r2, #1
 3255 1602 2A40     		and	r2, r2, r5
 3256 1604 9B1A     		sub	r3, r3, r2
 3257 1606 FF21     		mov	r1, #255
 3258              	.LVL121:
 3259 1608 2A1C     		mov	r2, r5
 3260 160a 1B06     		lsl	r3, r3, #24
ARM GAS  /cygdrive/c/Users/Zbyszko/AppData/Local/Temp/cc6jOyxc.s 			page 65


 3261 160c 8A43     		bic	r2, r2, r1
 3262 160e 1B0E     		lsr	r3, r3, #24
 3263 1610 151C     		mov	r5, r2
 3264 1612 1D43     		orr	r5, r5, r3
 3265 1614 2B06     		lsl	r3, r5, #24
 3266 1616 1B0E     		lsr	r3, r3, #24
 3267 1618 1027     		mov	r7, #16
 3268 161a 3B42     		tst	r3, r7
 3269 161c 06D0     		beq	.L250
 3270 161e 2A1C     		mov	r2, r5
 3271 1620 063B     		sub	r3, r3, #6
 3272 1622 1B06     		lsl	r3, r3, #24
 3273 1624 8A43     		bic	r2, r2, r1
 3274 1626 1B0E     		lsr	r3, r3, #24
 3275 1628 151C     		mov	r5, r2
 3276 162a 1D43     		orr	r5, r5, r3
 3277              	.L250:
 3278 162c 0309     		lsr	r3, r0, #4
 3279 162e 2209     		lsr	r2, r4, #4
 3280 1630 D21A     		sub	r2, r2, r3
 3281 1632 2B1C     		mov	r3, r5
 3282 1634 3B40     		and	r3, r3, r7
 3283 1636 1B11     		asr	r3, r3, #4
 3284 1638 D21A     		sub	r2, r2, r3
 3285 163a 5049     		ldr	r1, .L382+4
 3286 163c 1206     		lsl	r2, r2, #24
 3287 163e 2B1C     		mov	r3, r5
 3288 1640 100E     		lsr	r0, r2, #24
 3289              	.LVL122:
 3290 1642 0B40     		and	r3, r3, r1
 3291 1644 0202     		lsl	r2, r0, #8
 3292 1646 1D1C     		mov	r5, r3
 3293 1648 1543     		orr	r5, r5, r2
 3294 164a 3842     		tst	r0, r7
 3295 164c 06D0     		beq	.L252
 3296 164e 2A1C     		mov	r2, r5
 3297 1650 831F     		sub	r3, r0, #6
 3298 1652 1B06     		lsl	r3, r3, #24
 3299 1654 0A40     		and	r2, r2, r1
 3300 1656 1B0C     		lsr	r3, r3, #16
 3301 1658 151C     		mov	r5, r2
 3302 165a 1D43     		orr	r5, r5, r3
 3303              	.L252:
 3304 165c 2B04     		lsl	r3, r5, #16
 3305 165e 1B0E     		lsr	r3, r3, #24
 3306 1660 0F22     		mov	r2, #15
 3307 1662 1901     		lsl	r1, r3, #4
 3308 1664 2A40     		and	r2, r2, r5
 3309 1666 0A43     		orr	r2, r2, r1
 3310 1668 3270     		strb	r2, [r6]
 3311 166a 0124     		mov	r4, #1
 3312 166c 6246     		mov	r2, ip
 3313 166e A243     		bic	r2, r2, r4
 3314 1670 0021     		mov	r1, #0
 3315 1672 0F2B     		cmp	r3, #15
 3316 1674 00D8     		bhi	.L254
 3317 1676 0121     		mov	r1, #1
ARM GAS  /cygdrive/c/Users/Zbyszko/AppData/Local/Temp/cc6jOyxc.s 			page 66


 3318              	.L254:
 3319 1678 131C     		mov	r3, r2
 3320 167a 0B43     		orr	r3, r3, r1
 3321 167c 7370     		strb	r3, [r6, #1]
 3322 167e 01F0C0FD 		bl	.L146	@ far jump
 3323              	.LVL123:
 3324              	.L248:
 3325 1682 0122     		mov	r2, #1
 3326 1684 2A40     		and	r2, r2, r5
 3327              	.LVL124:
 3328 1686 231A     		sub	r3, r4, r0
 3329 1688 9B1A     		sub	r3, r3, r2
 3330 168a 3D4A     		ldr	r2, .L382+8
 3331 168c 1B04     		lsl	r3, r3, #16
 3332              	.LVL125:
 3333 168e 2A40     		and	r2, r2, r5
 3334 1690 1B0C     		lsr	r3, r3, #16
 3335 1692 151C     		mov	r5, r2
 3336 1694 1D43     		orr	r5, r5, r3
 3337 1696 6746     		mov	r7, ip
 3338 1698 3C23     		mov	r3, #60
 3339 169a 1F40     		and	r7, r7, r3
 3340 169c 2B06     		lsl	r3, r5, #24
 3341 169e 190E     		lsr	r1, r3, #24
 3342 16a0 221C     		mov	r2, r4
 3343 16a2 231C     		mov	r3, r4
 3344 16a4 4340     		eor	r3, r3, r0
 3345 16a6 4A40     		eor	r2, r2, r1
 3346 16a8 1340     		and	r3, r3, r2
 3347 16aa 1B06     		lsl	r3, r3, #24
 3348 16ac 7770     		strb	r7, [r6, #1]
 3349 16ae 002B     		cmp	r3, #0
 3350 16b0 01DA     		bge	.L255
 3351 16b2 4022     		mov	r2, #64
 3352 16b4 00E0     		b	.L257
 3353              	.L255:
 3354 16b6 0022     		mov	r2, #0
 3355              	.L257:
 3356 16b8 2B04     		lsl	r3, r5, #16
 3357 16ba 1B0E     		lsr	r3, r3, #24
 3358 16bc 2E48     		ldr	r0, .L382
 3359              	.LVL126:
 3360 16be 0024     		mov	r4, #0
 3361 16c0 002B     		cmp	r3, #0
 3362 16c2 00D1     		bne	.L258
 3363 16c4 0124     		mov	r4, #1
 3364              	.L258:
 3365 16c6 435C     		ldrb	r3, [r0, r1]
 3366 16c8 3A43     		orr	r2, r2, r7
 3367 16ca 2343     		orr	r3, r3, r4
 3368 16cc 1343     		orr	r3, r3, r2
 3369 16ce 7370     		strb	r3, [r6, #1]
 3370 16d0 3170     		strb	r1, [r6]
 3371 16d2 01F096FD 		bl	.L146	@ far jump
 3372              	.LVL127:
 3373              	.L18:
 162:Codes.h       **** 
ARM GAS  /cygdrive/c/Users/Zbyszko/AppData/Local/Temp/cc6jOyxc.s 			page 67


 163:Codes.h       **** case 0x15: MR_Zx(I);M_ORA(I);break;       /* ORA $ss,x ZP,x */
 3374              		.loc 2 163 0
 3375 16d6 3089     		ldrh	r0, [r6, #8]
 3376 16d8 431C     		add	r3, r0, #1
 3377 16da 3381     		strh	r3, [r6, #8]
 3378 16dc FFF7FEFF 		bl	Rd6502
 3379 16e0 B378     		ldrb	r3, [r6, #2]
 3380 16e2 C018     		add	r0, r0, r3
 3381 16e4 0006     		lsl	r0, r0, #24
 3382 16e6 000E     		lsr	r0, r0, #24
 3383 16e8 FFF7FEFF 		bl	Rd6502
 3384 16ec 3378     		ldrb	r3, [r6]
 3385 16ee 0343     		orr	r3, r3, r0
 3386 16f0 7278     		ldrb	r2, [r6, #1]
 3387 16f2 1B06     		lsl	r3, r3, #24
 3388 16f4 1B0E     		lsr	r3, r3, #24
 3389 16f6 7D21     		mov	r1, #125
 3390 16f8 0A40     		and	r2, r2, r1
 3391 16fa 3370     		strb	r3, [r6]
 3392 16fc 1E49     		ldr	r1, .L382
 3393 16fe CB5C     		ldrb	r3, [r1, r3]
 3394 1700 1A43     		orr	r2, r2, r3
 3395 1702 7270     		strb	r2, [r6, #1]
 3396 1704 01F07DFD 		bl	.L146	@ far jump
 3397              	.L19:
 164:Codes.h       **** case 0x16: MM_Zx(M_ASL);break;            /* ASL $ss,x ZP,x */
 3398              		.loc 2 164 0
 3399 1708 3089     		ldrh	r0, [r6, #8]
 3400 170a 431C     		add	r3, r0, #1
 3401 170c 3381     		strh	r3, [r6, #8]
 3402 170e FFF7FEFF 		bl	Rd6502
 3403 1712 B378     		ldrb	r3, [r6, #2]
 3404 1714 C418     		add	r4, r0, r3
 3405 1716 2406     		lsl	r4, r4, #24
 3406 1718 240E     		lsr	r4, r4, #24
 3407 171a 201C     		mov	r0, r4
 3408 171c FFF7FEFF 		bl	Rd6502
 3409 1720 7378     		ldrb	r3, [r6, #1]
 3410 1722 FE22     		mov	r2, #254
 3411 1724 1340     		and	r3, r3, r2
 3412 1726 C209     		lsr	r2, r0, #7
 3413 1728 1343     		orr	r3, r3, r2
 3414 172a 1B06     		lsl	r3, r3, #24
 3415 172c 1B0E     		lsr	r3, r3, #24
 3416 172e 7D22     		mov	r2, #125
 3417 1730 7370     		strb	r3, [r6, #1]
 3418 1732 4106     		lsl	r1, r0, #25
 3419 1734 1340     		and	r3, r3, r2
 3420 1736 104A     		ldr	r2, .L382
 3421 1738 090E     		lsr	r1, r1, #24
 3422 173a 525C     		ldrb	r2, [r2, r1]
 3423 173c 1343     		orr	r3, r3, r2
 3424 173e 7370     		strb	r3, [r6, #1]
 3425 1740 201C     		mov	r0, r4
 3426 1742 FFF7FEFF 		bl	Wr6502
 3427 1746 01F05CFD 		bl	.L146	@ far jump
 3428              	.L37:
ARM GAS  /cygdrive/c/Users/Zbyszko/AppData/Local/Temp/cc6jOyxc.s 			page 68


 165:Codes.h       **** case 0x35: MR_Zx(I);M_AND(I);break;       /* AND $ss,x ZP,x */
 3429              		.loc 2 165 0
 3430 174a 3089     		ldrh	r0, [r6, #8]
 3431 174c 431C     		add	r3, r0, #1
 3432 174e 3381     		strh	r3, [r6, #8]
 3433 1750 FFF7FEFF 		bl	Rd6502
 3434 1754 B378     		ldrb	r3, [r6, #2]
 3435 1756 C018     		add	r0, r0, r3
 3436 1758 0006     		lsl	r0, r0, #24
 3437 175a 000E     		lsr	r0, r0, #24
 3438 175c FFF7FEFF 		bl	Rd6502
 3439 1760 3178     		ldrb	r1, [r6]
 3440 1762 7378     		ldrb	r3, [r6, #1]
 3441 1764 0140     		and	r1, r1, r0
 3442 1766 7D22     		mov	r2, #125
 3443 1768 1340     		and	r3, r3, r2
 3444 176a 3170     		strb	r1, [r6]
 3445 176c 024A     		ldr	r2, .L382
 3446 176e 525C     		ldrb	r2, [r2, r1]
 3447 1770 1343     		orr	r3, r3, r2
 3448 1772 7370     		strb	r3, [r6, #1]
 3449 1774 01F045FD 		bl	.L146	@ far jump
 3450              	.L383:
 3451              		.align	2
 3452              	.L382:
 3453 1778 00000000 		.word	ZNTable
 3454 177c FF00FFFF 		.word	-65281
 3455 1780 0000FFFF 		.word	-65536
 3456              	.L38:
 166:Codes.h       **** case 0x36: MM_Zx(M_ROL);break;            /* ROL $ss,x ZP,x */
 3457              		.loc 2 166 0
 3458 1784 3089     		ldrh	r0, [r6, #8]
 3459 1786 431C     		add	r3, r0, #1
 3460 1788 3381     		strh	r3, [r6, #8]
 3461 178a FFF7FEFF 		bl	Rd6502
 3462 178e B378     		ldrb	r3, [r6, #2]
 3463 1790 C418     		add	r4, r0, r3
 3464 1792 2406     		lsl	r4, r4, #24
 3465 1794 240E     		lsr	r4, r4, #24
 3466 1796 201C     		mov	r0, r4
 3467 1798 FFF7FEFF 		bl	Rd6502
 3468 179c 7278     		ldrb	r2, [r6, #1]
 3469 179e 0121     		mov	r1, #1
 3470 17a0 1140     		and	r1, r1, r2
 3471 17a2 4300     		lsl	r3, r0, #1
 3472 17a4 0B43     		orr	r3, r3, r1
 3473              	.LVL128:
 3474 17a6 2F1C     		mov	r7, r5
 3475 17a8 FF21     		mov	r1, #255
 3476 17aa 8F43     		bic	r7, r7, r1
 3477 17ac 1B06     		lsl	r3, r3, #24
 3478 17ae 1B0E     		lsr	r3, r3, #24
 3479 17b0 3D1C     		mov	r5, r7
 3480 17b2 1D43     		orr	r5, r5, r3
 3481 17b4 FE23     		mov	r3, #254
 3482 17b6 1A40     		and	r2, r2, r3
 3483 17b8 C009     		lsr	r0, r0, #7
ARM GAS  /cygdrive/c/Users/Zbyszko/AppData/Local/Temp/cc6jOyxc.s 			page 69


 3484 17ba 0243     		orr	r2, r2, r0
 3485 17bc 1206     		lsl	r2, r2, #24
 3486 17be 120E     		lsr	r2, r2, #24
 3487 17c0 7D23     		mov	r3, #125
 3488 17c2 7270     		strb	r2, [r6, #1]
 3489 17c4 2906     		lsl	r1, r5, #24
 3490 17c6 1A40     		and	r2, r2, r3
 3491 17c8 C64B     		ldr	r3, .L384
 3492 17ca 090E     		lsr	r1, r1, #24
 3493 17cc 5B5C     		ldrb	r3, [r3, r1]
 3494 17ce 1A43     		orr	r2, r2, r3
 3495 17d0 7270     		strb	r2, [r6, #1]
 3496 17d2 201C     		mov	r0, r4
 3497 17d4 FFF7FEFF 		bl	Wr6502
 3498 17d8 01F013FD 		bl	.L146	@ far jump
 3499              	.LVL129:
 3500              	.L55:
 167:Codes.h       **** case 0x55: MR_Zx(I);M_EOR(I);break;       /* EOR $ss,x ZP,x */
 3501              		.loc 2 167 0
 3502 17dc 3089     		ldrh	r0, [r6, #8]
 3503 17de 431C     		add	r3, r0, #1
 3504 17e0 3381     		strh	r3, [r6, #8]
 3505 17e2 FFF7FEFF 		bl	Rd6502
 3506 17e6 B378     		ldrb	r3, [r6, #2]
 3507 17e8 C018     		add	r0, r0, r3
 3508 17ea 0006     		lsl	r0, r0, #24
 3509 17ec 000E     		lsr	r0, r0, #24
 3510 17ee FFF7FEFF 		bl	Rd6502
 3511 17f2 3378     		ldrb	r3, [r6]
 3512 17f4 4340     		eor	r3, r3, r0
 3513 17f6 7278     		ldrb	r2, [r6, #1]
 3514 17f8 1B06     		lsl	r3, r3, #24
 3515 17fa 1B0E     		lsr	r3, r3, #24
 3516 17fc 7D21     		mov	r1, #125
 3517 17fe 0A40     		and	r2, r2, r1
 3518 1800 3370     		strb	r3, [r6]
 3519 1802 B849     		ldr	r1, .L384
 3520 1804 CB5C     		ldrb	r3, [r1, r3]
 3521 1806 1A43     		orr	r2, r2, r3
 3522 1808 7270     		strb	r2, [r6, #1]
 3523 180a 01F0FAFC 		bl	.L146	@ far jump
 3524              	.L56:
 168:Codes.h       **** case 0x56: MM_Zx(M_LSR);break;            /* LSR $ss,x ZP,x */
 3525              		.loc 2 168 0
 3526 180e 3089     		ldrh	r0, [r6, #8]
 3527 1810 431C     		add	r3, r0, #1
 3528 1812 3381     		strh	r3, [r6, #8]
 3529 1814 FFF7FEFF 		bl	Rd6502
 3530 1818 B378     		ldrb	r3, [r6, #2]
 3531 181a C418     		add	r4, r0, r3
 3532 181c 2406     		lsl	r4, r4, #24
 3533 181e 240E     		lsr	r4, r4, #24
 3534 1820 201C     		mov	r0, r4
 3535 1822 FFF7FEFF 		bl	Rd6502
 3536 1826 7378     		ldrb	r3, [r6, #1]
 3537 1828 0122     		mov	r2, #1
 3538 182a 9343     		bic	r3, r3, r2
ARM GAS  /cygdrive/c/Users/Zbyszko/AppData/Local/Temp/cc6jOyxc.s 			page 70


 3539 182c 0240     		and	r2, r2, r0
 3540 182e 1343     		orr	r3, r3, r2
 3541 1830 7D22     		mov	r2, #125
 3542 1832 7370     		strb	r3, [r6, #1]
 3543 1834 C105     		lsl	r1, r0, #23
 3544 1836 1340     		and	r3, r3, r2
 3545 1838 AA4A     		ldr	r2, .L384
 3546 183a 090E     		lsr	r1, r1, #24
 3547 183c 525C     		ldrb	r2, [r2, r1]
 3548 183e 1343     		orr	r3, r3, r2
 3549 1840 7370     		strb	r3, [r6, #1]
 3550 1842 201C     		mov	r0, r4
 3551 1844 FFF7FEFF 		bl	Wr6502
 3552 1848 01F0DBFC 		bl	.L146	@ far jump
 3553              	.L73:
 169:Codes.h       **** case 0x75: MR_Zx(I);M_ADC(I);break;       /* ADC $ss,x ZP,x */
 3554              		.loc 2 169 0
 3555 184c 3089     		ldrh	r0, [r6, #8]
 3556 184e 431C     		add	r3, r0, #1
 3557 1850 3381     		strh	r3, [r6, #8]
 3558 1852 FFF7FEFF 		bl	Rd6502
 3559 1856 B378     		ldrb	r3, [r6, #2]
 3560 1858 C018     		add	r0, r0, r3
 3561 185a 0006     		lsl	r0, r0, #24
 3562 185c 000E     		lsr	r0, r0, #24
 3563 185e FFF7FEFF 		bl	Rd6502
 3564 1862 7778     		ldrb	r7, [r6, #1]
 3565 1864 3478     		ldrb	r4, [r6]
 3566 1866 3907     		lsl	r1, r7, #28
 3567 1868 3AD5     		bpl	.L259
 3568 186a 0F22     		mov	r2, #15
 3569 186c 111C     		mov	r1, r2
 3570 186e 131C     		mov	r3, r2
 3571 1870 9446     		mov	ip, r2
 3572 1872 0122     		mov	r2, #1
 3573 1874 3A40     		and	r2, r2, r7
 3574 1876 2340     		and	r3, r3, r4
 3575 1878 9B18     		add	r3, r3, r2
 3576              	.LVL130:
 3577 187a 0140     		and	r1, r1, r0
 3578 187c C918     		add	r1, r1, r3
 3579 187e FF22     		mov	r2, #255
 3580              	.LVL131:
 3581 1880 2B1C     		mov	r3, r5
 3582 1882 9343     		bic	r3, r3, r2
 3583 1884 1D1C     		mov	r5, r3
 3584 1886 0D43     		orr	r5, r5, r1
 3585 1888 2B06     		lsl	r3, r5, #24
 3586 188a 1B0E     		lsr	r3, r3, #24
 3587 188c 092B     		cmp	r3, #9
 3588 188e 06D9     		bls	.L261
 3589 1890 291C     		mov	r1, r5
 3590 1892 0633     		add	r3, r3, #6
 3591 1894 1B06     		lsl	r3, r3, #24
 3592 1896 9143     		bic	r1, r1, r2
 3593 1898 1B0E     		lsr	r3, r3, #24
 3594 189a 0D1C     		mov	r5, r1
ARM GAS  /cygdrive/c/Users/Zbyszko/AppData/Local/Temp/cc6jOyxc.s 			page 71


 3595 189c 1D43     		orr	r5, r5, r3
 3596              	.L261:
 3597 189e 2B06     		lsl	r3, r5, #24
 3598 18a0 1B0E     		lsr	r3, r3, #24
 3599 18a2 2209     		lsr	r2, r4, #4
 3600 18a4 0009     		lsr	r0, r0, #4
 3601              	.LVL132:
 3602 18a6 0024     		mov	r4, #0
 3603 18a8 0F2B     		cmp	r3, #15
 3604 18aa 00D9     		bls	.L263
 3605 18ac 0124     		mov	r4, #1
 3606              	.L263:
 3607 18ae 1219     		add	r2, r2, r4
 3608 18b0 8218     		add	r2, r0, r2
 3609 18b2 8D4B     		ldr	r3, .L384+4
 3610 18b4 1206     		lsl	r2, r2, #24
 3611 18b6 120E     		lsr	r2, r2, #24
 3612 18b8 2B40     		and	r3, r3, r5
 3613 18ba 1102     		lsl	r1, r2, #8
 3614 18bc 1D1C     		mov	r5, r3
 3615 18be 0D43     		orr	r5, r5, r1
 3616 18c0 6346     		mov	r3, ip
 3617 18c2 1101     		lsl	r1, r2, #4
 3618 18c4 2B40     		and	r3, r3, r5
 3619 18c6 0B43     		orr	r3, r3, r1
 3620 18c8 3370     		strb	r3, [r6]
 3621 18ca 0124     		mov	r4, #1
 3622 18cc 3B1C     		mov	r3, r7
 3623 18ce A343     		bic	r3, r3, r4
 3624 18d0 0021     		mov	r1, #0
 3625 18d2 0F2A     		cmp	r2, #15
 3626 18d4 00D9     		bls	.L264
 3627 18d6 0121     		mov	r1, #1
 3628              	.L264:
 3629 18d8 0B43     		orr	r3, r3, r1
 3630 18da 7370     		strb	r3, [r6, #1]
 3631 18dc 01F091FC 		bl	.L146	@ far jump
 3632              	.LVL133:
 3633              	.L259:
 3634 18e0 0123     		mov	r3, #1
 3635 18e2 3B40     		and	r3, r3, r7
 3636 18e4 E318     		add	r3, r4, r3
 3637 18e6 814A     		ldr	r2, .L384+8
 3638              	.LVL134:
 3639 18e8 C318     		add	r3, r0, r3
 3640              	.LVL135:
 3641 18ea 2A40     		and	r2, r2, r5
 3642 18ec 1B04     		lsl	r3, r3, #16
 3643 18ee 1B0C     		lsr	r3, r3, #16
 3644 18f0 151C     		mov	r5, r2
 3645 18f2 1D43     		orr	r5, r5, r3
 3646 18f4 3C23     		mov	r3, #60
 3647 18f6 1F40     		and	r7, r7, r3
 3648 18f8 221C     		mov	r2, r4
 3649 18fa 2B06     		lsl	r3, r5, #24
 3650 18fc BC46     		mov	ip, r7
 3651 18fe 7770     		strb	r7, [r6, #1]
ARM GAS  /cygdrive/c/Users/Zbyszko/AppData/Local/Temp/cc6jOyxc.s 			page 72


 3652 1900 4240     		eor	r2, r2, r0
 3653 1902 1F0E     		lsr	r7, r3, #24
 3654 1904 231C     		mov	r3, r4
 3655 1906 1206     		lsl	r2, r2, #24
 3656 1908 7B40     		eor	r3, r3, r7
 3657 190a 8021     		mov	r1, #128
 3658 190c 120E     		lsr	r2, r2, #24
 3659 190e 0B40     		and	r3, r3, r1
 3660 1910 9343     		bic	r3, r2
 3661 1912 01D0     		beq	.L265
 3662 1914 4022     		mov	r2, #64
 3663 1916 00E0     		b	.L267
 3664              	.L265:
 3665 1918 0022     		mov	r2, #0
 3666              	.L267:
 3667 191a 2B04     		lsl	r3, r5, #16
 3668 191c 1B0E     		lsr	r3, r3, #24
 3669 191e 7149     		ldr	r1, .L384
 3670 1920 0020     		mov	r0, #0
 3671              	.LVL136:
 3672 1922 002B     		cmp	r3, #0
 3673 1924 00D0     		beq	.L268
 3674 1926 0120     		mov	r0, #1
 3675              	.L268:
 3676 1928 CB5D     		ldrb	r3, [r1, r7]
 3677 192a 6146     		mov	r1, ip
 3678 192c 0343     		orr	r3, r3, r0
 3679 192e 0A43     		orr	r2, r2, r1
 3680 1930 1343     		orr	r3, r3, r2
 3681 1932 7370     		strb	r3, [r6, #1]
 3682 1934 3770     		strb	r7, [r6]
 3683 1936 01F064FC 		bl	.L146	@ far jump
 3684              	.LVL137:
 3685              	.L74:
 170:Codes.h       **** case 0x76: MM_Zx(M_ROR);break;            /* ROR $ss,x ZP,x */
 3686              		.loc 2 170 0
 3687 193a 3089     		ldrh	r0, [r6, #8]
 3688 193c 431C     		add	r3, r0, #1
 3689 193e 3381     		strh	r3, [r6, #8]
 3690 1940 FFF7FEFF 		bl	Rd6502
 3691 1944 B378     		ldrb	r3, [r6, #2]
 3692 1946 C318     		add	r3, r0, r3
 3693 1948 1B06     		lsl	r3, r3, #24
 3694 194a 1F0E     		lsr	r7, r3, #24
 3695 194c 381C     		mov	r0, r7
 3696 194e FFF7FEFF 		bl	Rd6502
 3697 1952 7478     		ldrb	r4, [r6, #1]
 3698 1954 4308     		lsr	r3, r0, #1
 3699 1956 E201     		lsl	r2, r4, #7
 3700 1958 1343     		orr	r3, r3, r2
 3701              	.LVL138:
 3702 195a 291C     		mov	r1, r5
 3703 195c FF22     		mov	r2, #255
 3704 195e 9143     		bic	r1, r1, r2
 3705 1960 1B06     		lsl	r3, r3, #24
 3706 1962 1B0E     		lsr	r3, r3, #24
 3707 1964 0D1C     		mov	r5, r1
ARM GAS  /cygdrive/c/Users/Zbyszko/AppData/Local/Temp/cc6jOyxc.s 			page 73


 3708 1966 1D43     		orr	r5, r5, r3
 3709 1968 0123     		mov	r3, #1
 3710 196a 1840     		and	r0, r0, r3
 3711 196c 9C43     		bic	r4, r4, r3
 3712 196e 0443     		orr	r4, r4, r0
 3713 1970 7D23     		mov	r3, #125
 3714 1972 7470     		strb	r4, [r6, #1]
 3715 1974 2906     		lsl	r1, r5, #24
 3716 1976 1C40     		and	r4, r4, r3
 3717 1978 5A4B     		ldr	r3, .L384
 3718 197a 090E     		lsr	r1, r1, #24
 3719 197c 5B5C     		ldrb	r3, [r3, r1]
 3720 197e 1C43     		orr	r4, r4, r3
 3721 1980 7470     		strb	r4, [r6, #1]
 3722 1982 381C     		mov	r0, r7
 3723 1984 FFF7FEFF 		bl	Wr6502
 3724 1988 01F03BFC 		bl	.L146	@ far jump
 3725              	.LVL139:
 3726              	.L90:
 171:Codes.h       **** case 0x94: MW_Zx(R->Y);break;             /* STY $ss,x ZP,x */
 3727              		.loc 2 171 0
 3728 198c 3089     		ldrh	r0, [r6, #8]
 3729 198e 431C     		add	r3, r0, #1
 3730 1990 3381     		strh	r3, [r6, #8]
 3731 1992 FFF7FEFF 		bl	Rd6502
 3732 1996 B378     		ldrb	r3, [r6, #2]
 3733 1998 C018     		add	r0, r0, r3
 3734 199a 0006     		lsl	r0, r0, #24
 3735 199c 000E     		lsr	r0, r0, #24
 3736 199e F178     		ldrb	r1, [r6, #3]
 3737 19a0 FFF7FEFF 		bl	Wr6502
 3738 19a4 01F02DFC 		bl	.L146	@ far jump
 3739              	.L91:
 172:Codes.h       **** case 0x95: MW_Zx(R->A);break;             /* STA $ss,x ZP,x */
 3740              		.loc 2 172 0
 3741 19a8 3089     		ldrh	r0, [r6, #8]
 3742 19aa 431C     		add	r3, r0, #1
 3743 19ac 3381     		strh	r3, [r6, #8]
 3744 19ae FFF7FEFF 		bl	Rd6502
 3745 19b2 B378     		ldrb	r3, [r6, #2]
 3746 19b4 C018     		add	r0, r0, r3
 3747 19b6 0006     		lsl	r0, r0, #24
 3748 19b8 000E     		lsr	r0, r0, #24
 3749 19ba 3178     		ldrb	r1, [r6]
 3750 19bc FFF7FEFF 		bl	Wr6502
 3751 19c0 01F01FFC 		bl	.L146	@ far jump
 3752              	.L92:
 173:Codes.h       **** case 0x96: MW_Zy(R->X);break;             /* STX $ss,y ZP,y */
 3753              		.loc 2 173 0
 3754 19c4 3089     		ldrh	r0, [r6, #8]
 3755 19c6 431C     		add	r3, r0, #1
 3756 19c8 3381     		strh	r3, [r6, #8]
 3757 19ca FFF7FEFF 		bl	Rd6502
 3758 19ce F378     		ldrb	r3, [r6, #3]
 3759 19d0 C018     		add	r0, r0, r3
 3760 19d2 0006     		lsl	r0, r0, #24
 3761 19d4 000E     		lsr	r0, r0, #24
ARM GAS  /cygdrive/c/Users/Zbyszko/AppData/Local/Temp/cc6jOyxc.s 			page 74


 3762 19d6 B178     		ldrb	r1, [r6, #2]
 3763 19d8 FFF7FEFF 		bl	Wr6502
 3764 19dc 01F011FC 		bl	.L146	@ far jump
 3765              	.L111:
 174:Codes.h       **** case 0xB4: MR_Zx(R->Y);M_FL(R->Y);break;  /* LDY $ss,x ZP,x */
 3766              		.loc 2 174 0
 3767 19e0 3089     		ldrh	r0, [r6, #8]
 3768 19e2 431C     		add	r3, r0, #1
 3769 19e4 3381     		strh	r3, [r6, #8]
 3770 19e6 FFF7FEFF 		bl	Rd6502
 3771 19ea B378     		ldrb	r3, [r6, #2]
 3772 19ec C018     		add	r0, r0, r3
 3773 19ee 0006     		lsl	r0, r0, #24
 3774 19f0 000E     		lsr	r0, r0, #24
 3775 19f2 FFF7FEFF 		bl	Rd6502
 3776 19f6 7378     		ldrb	r3, [r6, #1]
 3777 19f8 7D22     		mov	r2, #125
 3778 19fa 1340     		and	r3, r3, r2
 3779 19fc F070     		strb	r0, [r6, #3]
 3780 19fe 394A     		ldr	r2, .L384
 3781 1a00 125C     		ldrb	r2, [r2, r0]
 3782 1a02 1343     		orr	r3, r3, r2
 3783 1a04 7370     		strb	r3, [r6, #1]
 3784 1a06 01F0FCFB 		bl	.L146	@ far jump
 3785              	.L112:
 175:Codes.h       **** case 0xB5: MR_Zx(R->A);M_FL(R->A);break;  /* LDA $ss,x ZP,x */
 3786              		.loc 2 175 0
 3787 1a0a 3089     		ldrh	r0, [r6, #8]
 3788 1a0c 431C     		add	r3, r0, #1
 3789 1a0e 3381     		strh	r3, [r6, #8]
 3790 1a10 FFF7FEFF 		bl	Rd6502
 3791 1a14 B378     		ldrb	r3, [r6, #2]
 3792 1a16 C018     		add	r0, r0, r3
 3793 1a18 0006     		lsl	r0, r0, #24
 3794 1a1a 000E     		lsr	r0, r0, #24
 3795 1a1c FFF7FEFF 		bl	Rd6502
 3796 1a20 7378     		ldrb	r3, [r6, #1]
 3797 1a22 7D22     		mov	r2, #125
 3798 1a24 1340     		and	r3, r3, r2
 3799 1a26 3070     		strb	r0, [r6]
 3800 1a28 2E4A     		ldr	r2, .L384
 3801 1a2a 125C     		ldrb	r2, [r2, r0]
 3802 1a2c 1343     		orr	r3, r3, r2
 3803 1a2e 7370     		strb	r3, [r6, #1]
 3804 1a30 01F0E7FB 		bl	.L146	@ far jump
 3805              	.L113:
 176:Codes.h       **** case 0xB6: MR_Zy(R->X);M_FL(R->X);break;  /* LDX $ss,y ZP,y */
 3806              		.loc 2 176 0
 3807 1a34 3089     		ldrh	r0, [r6, #8]
 3808 1a36 431C     		add	r3, r0, #1
 3809 1a38 3381     		strh	r3, [r6, #8]
 3810 1a3a FFF7FEFF 		bl	Rd6502
 3811 1a3e F378     		ldrb	r3, [r6, #3]
 3812 1a40 C018     		add	r0, r0, r3
 3813 1a42 0006     		lsl	r0, r0, #24
 3814 1a44 000E     		lsr	r0, r0, #24
 3815 1a46 FFF7FEFF 		bl	Rd6502
ARM GAS  /cygdrive/c/Users/Zbyszko/AppData/Local/Temp/cc6jOyxc.s 			page 75


 3816 1a4a 7378     		ldrb	r3, [r6, #1]
 3817 1a4c 7D22     		mov	r2, #125
 3818 1a4e 1340     		and	r3, r3, r2
 3819 1a50 B070     		strb	r0, [r6, #2]
 3820 1a52 244A     		ldr	r2, .L384
 3821 1a54 125C     		ldrb	r2, [r2, r0]
 3822 1a56 1343     		orr	r3, r3, r2
 3823 1a58 7370     		strb	r3, [r6, #1]
 3824 1a5a 01F0D2FB 		bl	.L146	@ far jump
 3825              	.L133:
 177:Codes.h       **** case 0xD5: MR_Zx(I);M_CMP(R->A,I);break;  /* CMP $ss,x ZP,x */
 3826              		.loc 2 177 0
 3827 1a5e 3089     		ldrh	r0, [r6, #8]
 3828 1a60 431C     		add	r3, r0, #1
 3829 1a62 3381     		strh	r3, [r6, #8]
 3830 1a64 FFF7FEFF 		bl	Rd6502
 3831 1a68 B378     		ldrb	r3, [r6, #2]
 3832 1a6a C018     		add	r0, r0, r3
 3833 1a6c 0006     		lsl	r0, r0, #24
 3834 1a6e 000E     		lsr	r0, r0, #24
 3835 1a70 FFF7FEFF 		bl	Rd6502
 3836 1a74 3378     		ldrb	r3, [r6]
 3837 1a76 1D4A     		ldr	r2, .L384+8
 3838 1a78 1B1A     		sub	r3, r3, r0
 3839              	.LVL140:
 3840 1a7a 2A40     		and	r2, r2, r5
 3841 1a7c 1B04     		lsl	r3, r3, #16
 3842 1a7e 1B0C     		lsr	r3, r3, #16
 3843 1a80 151C     		mov	r5, r2
 3844 1a82 7278     		ldrb	r2, [r6, #1]
 3845 1a84 1D43     		orr	r5, r5, r3
 3846 1a86 7C23     		mov	r3, #124
 3847 1a88 1A40     		and	r2, r2, r3
 3848 1a8a 2B06     		lsl	r3, r5, #24
 3849 1a8c 190E     		lsr	r1, r3, #24
 3850 1a8e 2B04     		lsl	r3, r5, #16
 3851 1a90 1B0E     		lsr	r3, r3, #24
 3852 1a92 7270     		strb	r2, [r6, #1]
 3853 1a94 134C     		ldr	r4, .L384
 3854 1a96 0020     		mov	r0, #0
 3855 1a98 002B     		cmp	r3, #0
 3856 1a9a 00D1     		bne	.L269
 3857 1a9c 0120     		mov	r0, #1
 3858              	.L269:
 3859 1a9e 635C     		ldrb	r3, [r4, r1]
 3860 1aa0 0243     		orr	r2, r2, r0
 3861 1aa2 1343     		orr	r3, r3, r2
 3862 1aa4 7370     		strb	r3, [r6, #1]
 3863 1aa6 01F0ACFB 		bl	.L146	@ far jump
 3864              	.LVL141:
 3865              	.L134:
 178:Codes.h       **** case 0xD6: MM_Zx(M_DEC);break;            /* DEC $ss,x ZP,x */
 3866              		.loc 2 178 0
 3867 1aaa 3089     		ldrh	r0, [r6, #8]
 3868 1aac 431C     		add	r3, r0, #1
 3869 1aae 3381     		strh	r3, [r6, #8]
 3870 1ab0 FFF7FEFF 		bl	Rd6502
ARM GAS  /cygdrive/c/Users/Zbyszko/AppData/Local/Temp/cc6jOyxc.s 			page 76


 3871 1ab4 B378     		ldrb	r3, [r6, #2]
 3872 1ab6 C418     		add	r4, r0, r3
 3873 1ab8 2406     		lsl	r4, r4, #24
 3874 1aba 240E     		lsr	r4, r4, #24
 3875 1abc 201C     		mov	r0, r4
 3876 1abe FFF7FEFF 		bl	Rd6502
 3877 1ac2 7378     		ldrb	r3, [r6, #1]
 3878 1ac4 011C     		mov	r1, r0
 3879 1ac6 7D22     		mov	r2, #125
 3880 1ac8 0139     		sub	r1, r1, #1
 3881 1aca 1340     		and	r3, r3, r2
 3882 1acc 0906     		lsl	r1, r1, #24
 3883 1ace 054A     		ldr	r2, .L384
 3884 1ad0 090E     		lsr	r1, r1, #24
 3885 1ad2 525C     		ldrb	r2, [r2, r1]
 3886 1ad4 1343     		orr	r3, r3, r2
 3887 1ad6 7370     		strb	r3, [r6, #1]
 3888 1ad8 201C     		mov	r0, r4
 3889 1ada FFF7FEFF 		bl	Wr6502
 3890 1ade 01F090FB 		bl	.L146	@ far jump
 3891              	.L385:
 3892 1ae2 0000     		.align	2
 3893              	.L384:
 3894 1ae4 00000000 		.word	ZNTable
 3895 1ae8 FF00FFFF 		.word	-65281
 3896 1aec 0000FFFF 		.word	-65536
 3897              	.L152:
 179:Codes.h       **** case 0xF5: MR_Zx(I);M_SBC(I);break;       /* SBC $ss,x ZP,x */
 3898              		.loc 2 179 0
 3899 1af0 3089     		ldrh	r0, [r6, #8]
 3900 1af2 431C     		add	r3, r0, #1
 3901 1af4 3381     		strh	r3, [r6, #8]
 3902 1af6 FFF7FEFF 		bl	Rd6502
 3903 1afa B378     		ldrb	r3, [r6, #2]
 3904 1afc C018     		add	r0, r0, r3
 3905 1afe 0006     		lsl	r0, r0, #24
 3906 1b00 000E     		lsr	r0, r0, #24
 3907 1b02 FFF7FEFF 		bl	Rd6502
 3908 1b06 7278     		ldrb	r2, [r6, #1]
 3909 1b08 3478     		ldrb	r4, [r6]
 3910 1b0a 9446     		mov	ip, r2
 3911 1b0c D543     		mvn	r5, r2
 3912 1b0e 1207     		lsl	r2, r2, #28
 3913 1b10 45D5     		bpl	.L270
 3914 1b12 0F23     		mov	r3, #15
 3915 1b14 0F22     		mov	r2, #15
 3916              	.LVL142:
 3917 1b16 0240     		and	r2, r2, r0
 3918 1b18 2340     		and	r3, r3, r4
 3919 1b1a 9B1A     		sub	r3, r3, r2
 3920 1b1c 0122     		mov	r2, #1
 3921 1b1e 2A40     		and	r2, r2, r5
 3922 1b20 9B1A     		sub	r3, r3, r2
 3923 1b22 FF21     		mov	r1, #255
 3924              	.LVL143:
 3925 1b24 2A1C     		mov	r2, r5
 3926 1b26 1B06     		lsl	r3, r3, #24
ARM GAS  /cygdrive/c/Users/Zbyszko/AppData/Local/Temp/cc6jOyxc.s 			page 77


 3927 1b28 8A43     		bic	r2, r2, r1
 3928 1b2a 1B0E     		lsr	r3, r3, #24
 3929 1b2c 151C     		mov	r5, r2
 3930 1b2e 1D43     		orr	r5, r5, r3
 3931 1b30 2B06     		lsl	r3, r5, #24
 3932 1b32 1B0E     		lsr	r3, r3, #24
 3933 1b34 1027     		mov	r7, #16
 3934 1b36 3B42     		tst	r3, r7
 3935 1b38 06D0     		beq	.L272
 3936 1b3a 2A1C     		mov	r2, r5
 3937 1b3c 063B     		sub	r3, r3, #6
 3938 1b3e 1B06     		lsl	r3, r3, #24
 3939 1b40 8A43     		bic	r2, r2, r1
 3940 1b42 1B0E     		lsr	r3, r3, #24
 3941 1b44 151C     		mov	r5, r2
 3942 1b46 1D43     		orr	r5, r5, r3
 3943              	.L272:
 3944 1b48 0309     		lsr	r3, r0, #4
 3945 1b4a 2209     		lsr	r2, r4, #4
 3946 1b4c D21A     		sub	r2, r2, r3
 3947 1b4e 2B1C     		mov	r3, r5
 3948 1b50 3B40     		and	r3, r3, r7
 3949 1b52 1B11     		asr	r3, r3, #4
 3950 1b54 D21A     		sub	r2, r2, r3
 3951 1b56 E049     		ldr	r1, .L386
 3952 1b58 1206     		lsl	r2, r2, #24
 3953 1b5a 2B1C     		mov	r3, r5
 3954 1b5c 100E     		lsr	r0, r2, #24
 3955              	.LVL144:
 3956 1b5e 0B40     		and	r3, r3, r1
 3957 1b60 0202     		lsl	r2, r0, #8
 3958 1b62 1D1C     		mov	r5, r3
 3959 1b64 1543     		orr	r5, r5, r2
 3960 1b66 3842     		tst	r0, r7
 3961 1b68 06D0     		beq	.L274
 3962 1b6a 2A1C     		mov	r2, r5
 3963 1b6c 831F     		sub	r3, r0, #6
 3964 1b6e 1B06     		lsl	r3, r3, #24
 3965 1b70 0A40     		and	r2, r2, r1
 3966 1b72 1B0C     		lsr	r3, r3, #16
 3967 1b74 151C     		mov	r5, r2
 3968 1b76 1D43     		orr	r5, r5, r3
 3969              	.L274:
 3970 1b78 2B04     		lsl	r3, r5, #16
 3971 1b7a 1B0E     		lsr	r3, r3, #24
 3972 1b7c 0F22     		mov	r2, #15
 3973 1b7e 1901     		lsl	r1, r3, #4
 3974 1b80 2A40     		and	r2, r2, r5
 3975 1b82 0A43     		orr	r2, r2, r1
 3976 1b84 3270     		strb	r2, [r6]
 3977 1b86 0124     		mov	r4, #1
 3978 1b88 6246     		mov	r2, ip
 3979 1b8a A243     		bic	r2, r2, r4
 3980 1b8c 0021     		mov	r1, #0
 3981 1b8e 0F2B     		cmp	r3, #15
 3982 1b90 00D8     		bhi	.L276
 3983 1b92 0121     		mov	r1, #1
ARM GAS  /cygdrive/c/Users/Zbyszko/AppData/Local/Temp/cc6jOyxc.s 			page 78


 3984              	.L276:
 3985 1b94 131C     		mov	r3, r2
 3986 1b96 0B43     		orr	r3, r3, r1
 3987 1b98 7370     		strb	r3, [r6, #1]
 3988 1b9a 01F032FB 		bl	.L146	@ far jump
 3989              	.LVL145:
 3990              	.L270:
 3991 1b9e 0122     		mov	r2, #1
 3992 1ba0 2A40     		and	r2, r2, r5
 3993              	.LVL146:
 3994 1ba2 231A     		sub	r3, r4, r0
 3995 1ba4 9B1A     		sub	r3, r3, r2
 3996 1ba6 CD4A     		ldr	r2, .L386+4
 3997 1ba8 1B04     		lsl	r3, r3, #16
 3998              	.LVL147:
 3999 1baa 2A40     		and	r2, r2, r5
 4000 1bac 1B0C     		lsr	r3, r3, #16
 4001 1bae 151C     		mov	r5, r2
 4002 1bb0 1D43     		orr	r5, r5, r3
 4003 1bb2 6746     		mov	r7, ip
 4004 1bb4 3C23     		mov	r3, #60
 4005 1bb6 1F40     		and	r7, r7, r3
 4006 1bb8 2B06     		lsl	r3, r5, #24
 4007 1bba 190E     		lsr	r1, r3, #24
 4008 1bbc 221C     		mov	r2, r4
 4009 1bbe 231C     		mov	r3, r4
 4010 1bc0 4340     		eor	r3, r3, r0
 4011 1bc2 4A40     		eor	r2, r2, r1
 4012 1bc4 1340     		and	r3, r3, r2
 4013 1bc6 1B06     		lsl	r3, r3, #24
 4014 1bc8 7770     		strb	r7, [r6, #1]
 4015 1bca 002B     		cmp	r3, #0
 4016 1bcc 01DA     		bge	.L277
 4017 1bce 4022     		mov	r2, #64
 4018 1bd0 00E0     		b	.L279
 4019              	.L277:
 4020 1bd2 0022     		mov	r2, #0
 4021              	.L279:
 4022 1bd4 2B04     		lsl	r3, r5, #16
 4023 1bd6 1B0E     		lsr	r3, r3, #24
 4024 1bd8 C148     		ldr	r0, .L386+8
 4025              	.LVL148:
 4026 1bda 0024     		mov	r4, #0
 4027 1bdc 002B     		cmp	r3, #0
 4028 1bde 00D1     		bne	.L280
 4029 1be0 0124     		mov	r4, #1
 4030              	.L280:
 4031 1be2 435C     		ldrb	r3, [r0, r1]
 4032 1be4 3A43     		orr	r2, r2, r7
 4033 1be6 2343     		orr	r3, r3, r4
 4034 1be8 1343     		orr	r3, r3, r2
 4035 1bea 7370     		strb	r3, [r6, #1]
 4036 1bec 3170     		strb	r1, [r6]
 4037 1bee 01F008FB 		bl	.L146	@ far jump
 4038              	.LVL149:
 4039              	.L153:
 180:Codes.h       **** case 0xF6: MM_Zx(M_INC);break;            /* INC $ss,x ZP,x */
ARM GAS  /cygdrive/c/Users/Zbyszko/AppData/Local/Temp/cc6jOyxc.s 			page 79


 4040              		.loc 2 180 0
 4041 1bf2 3089     		ldrh	r0, [r6, #8]
 4042 1bf4 431C     		add	r3, r0, #1
 4043 1bf6 3381     		strh	r3, [r6, #8]
 4044 1bf8 FFF7FEFF 		bl	Rd6502
 4045 1bfc B378     		ldrb	r3, [r6, #2]
 4046 1bfe C418     		add	r4, r0, r3
 4047 1c00 2406     		lsl	r4, r4, #24
 4048 1c02 240E     		lsr	r4, r4, #24
 4049 1c04 201C     		mov	r0, r4
 4050 1c06 FFF7FEFF 		bl	Rd6502
 4051 1c0a 7378     		ldrb	r3, [r6, #1]
 4052 1c0c 011C     		mov	r1, r0
 4053 1c0e 7D22     		mov	r2, #125
 4054 1c10 0131     		add	r1, r1, #1
 4055 1c12 1340     		and	r3, r3, r2
 4056 1c14 0906     		lsl	r1, r1, #24
 4057 1c16 B24A     		ldr	r2, .L386+8
 4058 1c18 090E     		lsr	r1, r1, #24
 4059 1c1a 525C     		ldrb	r2, [r2, r1]
 4060 1c1c 1343     		orr	r3, r3, r2
 4061 1c1e 7370     		strb	r3, [r6, #1]
 4062 1c20 201C     		mov	r0, r4
 4063 1c22 FFF7FEFF 		bl	Wr6502
 4064 1c26 01F0ECFA 		bl	.L146	@ far jump
 4065              	.L21:
 181:Codes.h       **** 
 182:Codes.h       **** case 0x19: MR_Ay(I);M_ORA(I);break;       /* ORA $ssss,y ABS,y */
 4066              		.loc 2 182 0
 4067 1c2a 3089     		ldrh	r0, [r6, #8]
 4068 1c2c 431C     		add	r3, r0, #1
 4069 1c2e 3381     		strh	r3, [r6, #8]
 4070 1c30 FFF7FEFF 		bl	Rd6502
 4071 1c34 FF23     		mov	r3, #255
 4072              	.LVL150:
 4073 1c36 391C     		mov	r1, r7
 4074 1c38 9943     		bic	r1, r1, r3
 4075 1c3a 0F1C     		mov	r7, r1
 4076 1c3c 0743     		orr	r7, r7, r0
 4077 1c3e 3089     		ldrh	r0, [r6, #8]
 4078 1c40 431C     		add	r3, r0, #1
 4079 1c42 3381     		strh	r3, [r6, #8]
 4080 1c44 FFF7FEFF 		bl	Rd6502
 4081 1c48 A34B     		ldr	r3, .L386
 4082 1c4a 3B40     		and	r3, r3, r7
 4083 1c4c 1F1C     		mov	r7, r3
 4084 1c4e 0002     		lsl	r0, r0, #8
 4085 1c50 0743     		orr	r7, r7, r0
 4086 1c52 F078     		ldrb	r0, [r6, #3]
 4087 1c54 C019     		add	r0, r0, r7
 4088 1c56 0004     		lsl	r0, r0, #16
 4089 1c58 000C     		lsr	r0, r0, #16
 4090 1c5a FFF7FEFF 		bl	Rd6502
 4091 1c5e 3378     		ldrb	r3, [r6]
 4092 1c60 0343     		orr	r3, r3, r0
 4093 1c62 7278     		ldrb	r2, [r6, #1]
 4094 1c64 1B06     		lsl	r3, r3, #24
ARM GAS  /cygdrive/c/Users/Zbyszko/AppData/Local/Temp/cc6jOyxc.s 			page 80


 4095 1c66 1B0E     		lsr	r3, r3, #24
 4096 1c68 7D21     		mov	r1, #125
 4097 1c6a 0A40     		and	r2, r2, r1
 4098 1c6c 3370     		strb	r3, [r6]
 4099 1c6e 9C49     		ldr	r1, .L386+8
 4100 1c70 CB5C     		ldrb	r3, [r1, r3]
 4101 1c72 1A43     		orr	r2, r2, r3
 4102 1c74 7270     		strb	r2, [r6, #1]
 4103 1c76 01F0C4FA 		bl	.L146	@ far jump
 4104              	.LVL151:
 4105              	.L22:
 183:Codes.h       **** case 0x1D: MR_Ax(I);M_ORA(I);break;       /* ORA $ssss,x ABS,x */
 4106              		.loc 2 183 0
 4107 1c7a 3089     		ldrh	r0, [r6, #8]
 4108 1c7c 431C     		add	r3, r0, #1
 4109 1c7e 3381     		strh	r3, [r6, #8]
 4110 1c80 FFF7FEFF 		bl	Rd6502
 4111 1c84 FF23     		mov	r3, #255
 4112              	.LVL152:
 4113 1c86 3A1C     		mov	r2, r7
 4114 1c88 9A43     		bic	r2, r2, r3
 4115 1c8a 171C     		mov	r7, r2
 4116 1c8c 0743     		orr	r7, r7, r0
 4117 1c8e 3089     		ldrh	r0, [r6, #8]
 4118 1c90 431C     		add	r3, r0, #1
 4119 1c92 3381     		strh	r3, [r6, #8]
 4120 1c94 FFF7FEFF 		bl	Rd6502
 4121 1c98 8F4B     		ldr	r3, .L386
 4122 1c9a 3B40     		and	r3, r3, r7
 4123 1c9c 1F1C     		mov	r7, r3
 4124 1c9e 0002     		lsl	r0, r0, #8
 4125 1ca0 0743     		orr	r7, r7, r0
 4126 1ca2 B078     		ldrb	r0, [r6, #2]
 4127 1ca4 C019     		add	r0, r0, r7
 4128 1ca6 0004     		lsl	r0, r0, #16
 4129 1ca8 000C     		lsr	r0, r0, #16
 4130 1caa FFF7FEFF 		bl	Rd6502
 4131 1cae 3378     		ldrb	r3, [r6]
 4132 1cb0 0343     		orr	r3, r3, r0
 4133 1cb2 7278     		ldrb	r2, [r6, #1]
 4134 1cb4 1B06     		lsl	r3, r3, #24
 4135 1cb6 1B0E     		lsr	r3, r3, #24
 4136 1cb8 7D21     		mov	r1, #125
 4137 1cba 0A40     		and	r2, r2, r1
 4138 1cbc 3370     		strb	r3, [r6]
 4139 1cbe 8849     		ldr	r1, .L386+8
 4140 1cc0 CB5C     		ldrb	r3, [r1, r3]
 4141 1cc2 1A43     		orr	r2, r2, r3
 4142 1cc4 7270     		strb	r2, [r6, #1]
 4143 1cc6 01F09CFA 		bl	.L146	@ far jump
 4144              	.LVL153:
 4145              	.L23:
 184:Codes.h       **** case 0x1E: MM_Ax(M_ASL);break;            /* ASL $ssss,x ABS,x */
 4146              		.loc 2 184 0
 4147 1cca 3089     		ldrh	r0, [r6, #8]
 4148 1ccc 431C     		add	r3, r0, #1
 4149 1cce 3381     		strh	r3, [r6, #8]
ARM GAS  /cygdrive/c/Users/Zbyszko/AppData/Local/Temp/cc6jOyxc.s 			page 81


 4150 1cd0 FFF7FEFF 		bl	Rd6502
 4151              	.LVL154:
 4152 1cd4 3C1C     		mov	r4, r7
 4153 1cd6 FF23     		mov	r3, #255
 4154 1cd8 9C43     		bic	r4, r4, r3
 4155 1cda 271C     		mov	r7, r4
 4156 1cdc 0743     		orr	r7, r7, r0
 4157 1cde 3089     		ldrh	r0, [r6, #8]
 4158 1ce0 431C     		add	r3, r0, #1
 4159 1ce2 3381     		strh	r3, [r6, #8]
 4160 1ce4 FFF7FEFF 		bl	Rd6502
 4161 1ce8 7B4B     		ldr	r3, .L386
 4162 1cea 3B40     		and	r3, r3, r7
 4163 1cec 1F1C     		mov	r7, r3
 4164 1cee B478     		ldrb	r4, [r6, #2]
 4165 1cf0 0002     		lsl	r0, r0, #8
 4166 1cf2 0743     		orr	r7, r7, r0
 4167 1cf4 E419     		add	r4, r4, r7
 4168 1cf6 2404     		lsl	r4, r4, #16
 4169 1cf8 240C     		lsr	r4, r4, #16
 4170 1cfa 201C     		mov	r0, r4
 4171 1cfc FFF7FEFF 		bl	Rd6502
 4172 1d00 7378     		ldrb	r3, [r6, #1]
 4173 1d02 FE22     		mov	r2, #254
 4174 1d04 1340     		and	r3, r3, r2
 4175 1d06 C209     		lsr	r2, r0, #7
 4176 1d08 1343     		orr	r3, r3, r2
 4177 1d0a 1B06     		lsl	r3, r3, #24
 4178 1d0c 1B0E     		lsr	r3, r3, #24
 4179 1d0e 7D22     		mov	r2, #125
 4180 1d10 7370     		strb	r3, [r6, #1]
 4181 1d12 4106     		lsl	r1, r0, #25
 4182 1d14 1340     		and	r3, r3, r2
 4183 1d16 724A     		ldr	r2, .L386+8
 4184 1d18 090E     		lsr	r1, r1, #24
 4185 1d1a 525C     		ldrb	r2, [r2, r1]
 4186 1d1c 1343     		orr	r3, r3, r2
 4187 1d1e 7370     		strb	r3, [r6, #1]
 4188 1d20 201C     		mov	r0, r4
 4189 1d22 FFF7FEFF 		bl	Wr6502
 4190 1d26 01F06CFA 		bl	.L146	@ far jump
 4191              	.LVL155:
 4192              	.L40:
 185:Codes.h       **** case 0x39: MR_Ay(I);M_AND(I);break;       /* AND $ssss,y ABS,y */
 4193              		.loc 2 185 0
 4194 1d2a 3089     		ldrh	r0, [r6, #8]
 4195 1d2c 431C     		add	r3, r0, #1
 4196 1d2e 3381     		strh	r3, [r6, #8]
 4197 1d30 FFF7FEFF 		bl	Rd6502
 4198 1d34 FF23     		mov	r3, #255
 4199              	.LVL156:
 4200 1d36 391C     		mov	r1, r7
 4201 1d38 9943     		bic	r1, r1, r3
 4202 1d3a 0F1C     		mov	r7, r1
 4203 1d3c 0743     		orr	r7, r7, r0
 4204 1d3e 3089     		ldrh	r0, [r6, #8]
 4205 1d40 431C     		add	r3, r0, #1
ARM GAS  /cygdrive/c/Users/Zbyszko/AppData/Local/Temp/cc6jOyxc.s 			page 82


 4206 1d42 3381     		strh	r3, [r6, #8]
 4207 1d44 FFF7FEFF 		bl	Rd6502
 4208 1d48 634B     		ldr	r3, .L386
 4209 1d4a 3B40     		and	r3, r3, r7
 4210 1d4c 1F1C     		mov	r7, r3
 4211 1d4e 0002     		lsl	r0, r0, #8
 4212 1d50 0743     		orr	r7, r7, r0
 4213 1d52 F078     		ldrb	r0, [r6, #3]
 4214 1d54 C019     		add	r0, r0, r7
 4215 1d56 0004     		lsl	r0, r0, #16
 4216 1d58 000C     		lsr	r0, r0, #16
 4217 1d5a FFF7FEFF 		bl	Rd6502
 4218 1d5e 3178     		ldrb	r1, [r6]
 4219 1d60 7378     		ldrb	r3, [r6, #1]
 4220 1d62 0140     		and	r1, r1, r0
 4221 1d64 7D22     		mov	r2, #125
 4222 1d66 1340     		and	r3, r3, r2
 4223 1d68 3170     		strb	r1, [r6]
 4224 1d6a 5D4A     		ldr	r2, .L386+8
 4225 1d6c 525C     		ldrb	r2, [r2, r1]
 4226 1d6e 1343     		orr	r3, r3, r2
 4227 1d70 7370     		strb	r3, [r6, #1]
 4228 1d72 01F046FA 		bl	.L146	@ far jump
 4229              	.LVL157:
 4230              	.L41:
 186:Codes.h       **** case 0x3D: MR_Ax(I);M_AND(I);break;       /* AND $ssss,x ABS,x */
 4231              		.loc 2 186 0
 4232 1d76 3089     		ldrh	r0, [r6, #8]
 4233 1d78 431C     		add	r3, r0, #1
 4234 1d7a 3381     		strh	r3, [r6, #8]
 4235 1d7c FFF7FEFF 		bl	Rd6502
 4236 1d80 FF23     		mov	r3, #255
 4237              	.LVL158:
 4238 1d82 3A1C     		mov	r2, r7
 4239 1d84 9A43     		bic	r2, r2, r3
 4240 1d86 171C     		mov	r7, r2
 4241 1d88 0743     		orr	r7, r7, r0
 4242 1d8a 3089     		ldrh	r0, [r6, #8]
 4243 1d8c 431C     		add	r3, r0, #1
 4244 1d8e 3381     		strh	r3, [r6, #8]
 4245 1d90 FFF7FEFF 		bl	Rd6502
 4246 1d94 504B     		ldr	r3, .L386
 4247 1d96 3B40     		and	r3, r3, r7
 4248 1d98 1F1C     		mov	r7, r3
 4249 1d9a 0002     		lsl	r0, r0, #8
 4250 1d9c 0743     		orr	r7, r7, r0
 4251 1d9e B078     		ldrb	r0, [r6, #2]
 4252 1da0 C019     		add	r0, r0, r7
 4253 1da2 0004     		lsl	r0, r0, #16
 4254 1da4 000C     		lsr	r0, r0, #16
 4255 1da6 FFF7FEFF 		bl	Rd6502
 4256 1daa 3178     		ldrb	r1, [r6]
 4257 1dac 7378     		ldrb	r3, [r6, #1]
 4258 1dae 0140     		and	r1, r1, r0
 4259 1db0 7D22     		mov	r2, #125
 4260 1db2 1340     		and	r3, r3, r2
 4261 1db4 3170     		strb	r1, [r6]
ARM GAS  /cygdrive/c/Users/Zbyszko/AppData/Local/Temp/cc6jOyxc.s 			page 83


 4262 1db6 4A4A     		ldr	r2, .L386+8
 4263 1db8 525C     		ldrb	r2, [r2, r1]
 4264 1dba 1343     		orr	r3, r3, r2
 4265 1dbc 7370     		strb	r3, [r6, #1]
 4266 1dbe 01F020FA 		bl	.L146	@ far jump
 4267              	.LVL159:
 4268              	.L42:
 187:Codes.h       **** case 0x3E: MM_Ax(M_ROL);break;            /* ROL $ssss,x ABS,x */
 4269              		.loc 2 187 0
 4270 1dc2 3089     		ldrh	r0, [r6, #8]
 4271 1dc4 431C     		add	r3, r0, #1
 4272 1dc6 3381     		strh	r3, [r6, #8]
 4273 1dc8 FFF7FEFF 		bl	Rd6502
 4274 1dcc FF24     		mov	r4, #255
 4275              	.LVL160:
 4276 1dce 3B1C     		mov	r3, r7
 4277 1dd0 A343     		bic	r3, r3, r4
 4278 1dd2 1F1C     		mov	r7, r3
 4279 1dd4 0743     		orr	r7, r7, r0
 4280 1dd6 3089     		ldrh	r0, [r6, #8]
 4281 1dd8 431C     		add	r3, r0, #1
 4282 1dda 3381     		strh	r3, [r6, #8]
 4283 1ddc FFF7FEFF 		bl	Rd6502
 4284 1de0 3D4B     		ldr	r3, .L386
 4285 1de2 3B40     		and	r3, r3, r7
 4286 1de4 1F1C     		mov	r7, r3
 4287 1de6 B478     		ldrb	r4, [r6, #2]
 4288 1de8 0002     		lsl	r0, r0, #8
 4289 1dea 0743     		orr	r7, r7, r0
 4290 1dec E419     		add	r4, r4, r7
 4291 1dee 2404     		lsl	r4, r4, #16
 4292 1df0 240C     		lsr	r4, r4, #16
 4293 1df2 201C     		mov	r0, r4
 4294 1df4 FFF7FEFF 		bl	Rd6502
 4295 1df8 7278     		ldrb	r2, [r6, #1]
 4296 1dfa 0121     		mov	r1, #1
 4297 1dfc 1140     		and	r1, r1, r2
 4298 1dfe 4300     		lsl	r3, r0, #1
 4299 1e00 0B43     		orr	r3, r3, r1
 4300 1e02 FF27     		mov	r7, #255
 4301              	.LVL161:
 4302 1e04 291C     		mov	r1, r5
 4303 1e06 B943     		bic	r1, r1, r7
 4304 1e08 1B06     		lsl	r3, r3, #24
 4305 1e0a 1B0E     		lsr	r3, r3, #24
 4306 1e0c 0D1C     		mov	r5, r1
 4307 1e0e 1D43     		orr	r5, r5, r3
 4308 1e10 FE23     		mov	r3, #254
 4309 1e12 1A40     		and	r2, r2, r3
 4310 1e14 C009     		lsr	r0, r0, #7
 4311 1e16 0243     		orr	r2, r2, r0
 4312 1e18 1206     		lsl	r2, r2, #24
 4313 1e1a 120E     		lsr	r2, r2, #24
 4314 1e1c 7D23     		mov	r3, #125
 4315 1e1e 7270     		strb	r2, [r6, #1]
 4316 1e20 2906     		lsl	r1, r5, #24
 4317 1e22 1A40     		and	r2, r2, r3
ARM GAS  /cygdrive/c/Users/Zbyszko/AppData/Local/Temp/cc6jOyxc.s 			page 84


 4318 1e24 2E4B     		ldr	r3, .L386+8
 4319 1e26 090E     		lsr	r1, r1, #24
 4320 1e28 5B5C     		ldrb	r3, [r3, r1]
 4321 1e2a 1A43     		orr	r2, r2, r3
 4322 1e2c 7270     		strb	r2, [r6, #1]
 4323 1e2e 201C     		mov	r0, r4
 4324 1e30 FFF7FEFF 		bl	Wr6502
 4325 1e34 01F0E5F9 		bl	.L146	@ far jump
 4326              	.LVL162:
 4327              	.L58:
 188:Codes.h       **** case 0x59: MR_Ay(I);M_EOR(I);break;       /* EOR $ssss,y ABS,y */
 4328              		.loc 2 188 0
 4329 1e38 3089     		ldrh	r0, [r6, #8]
 4330 1e3a 431C     		add	r3, r0, #1
 4331 1e3c 3381     		strh	r3, [r6, #8]
 4332 1e3e FFF7FEFF 		bl	Rd6502
 4333 1e42 FF23     		mov	r3, #255
 4334              	.LVL163:
 4335 1e44 391C     		mov	r1, r7
 4336 1e46 9943     		bic	r1, r1, r3
 4337 1e48 0F1C     		mov	r7, r1
 4338 1e4a 0743     		orr	r7, r7, r0
 4339 1e4c 3089     		ldrh	r0, [r6, #8]
 4340 1e4e 431C     		add	r3, r0, #1
 4341 1e50 3381     		strh	r3, [r6, #8]
 4342 1e52 FFF7FEFF 		bl	Rd6502
 4343 1e56 204B     		ldr	r3, .L386
 4344 1e58 3B40     		and	r3, r3, r7
 4345 1e5a 1F1C     		mov	r7, r3
 4346 1e5c 0002     		lsl	r0, r0, #8
 4347 1e5e 0743     		orr	r7, r7, r0
 4348 1e60 F078     		ldrb	r0, [r6, #3]
 4349 1e62 C019     		add	r0, r0, r7
 4350 1e64 0004     		lsl	r0, r0, #16
 4351 1e66 000C     		lsr	r0, r0, #16
 4352 1e68 FFF7FEFF 		bl	Rd6502
 4353 1e6c 3378     		ldrb	r3, [r6]
 4354 1e6e 4340     		eor	r3, r3, r0
 4355 1e70 7278     		ldrb	r2, [r6, #1]
 4356 1e72 1B06     		lsl	r3, r3, #24
 4357 1e74 1B0E     		lsr	r3, r3, #24
 4358 1e76 7D21     		mov	r1, #125
 4359 1e78 0A40     		and	r2, r2, r1
 4360 1e7a 3370     		strb	r3, [r6]
 4361 1e7c 1849     		ldr	r1, .L386+8
 4362 1e7e CB5C     		ldrb	r3, [r1, r3]
 4363 1e80 1A43     		orr	r2, r2, r3
 4364 1e82 7270     		strb	r2, [r6, #1]
 4365 1e84 01F0BDF9 		bl	.L146	@ far jump
 4366              	.LVL164:
 4367              	.L59:
 189:Codes.h       **** case 0x5D: MR_Ax(I);M_EOR(I);break;       /* EOR $ssss,x ABS,x */
 4368              		.loc 2 189 0
 4369 1e88 3089     		ldrh	r0, [r6, #8]
 4370 1e8a 431C     		add	r3, r0, #1
 4371 1e8c 3381     		strh	r3, [r6, #8]
 4372 1e8e FFF7FEFF 		bl	Rd6502
ARM GAS  /cygdrive/c/Users/Zbyszko/AppData/Local/Temp/cc6jOyxc.s 			page 85


 4373 1e92 FF23     		mov	r3, #255
 4374              	.LVL165:
 4375 1e94 3A1C     		mov	r2, r7
 4376 1e96 9A43     		bic	r2, r2, r3
 4377 1e98 171C     		mov	r7, r2
 4378 1e9a 0743     		orr	r7, r7, r0
 4379 1e9c 3089     		ldrh	r0, [r6, #8]
 4380 1e9e 431C     		add	r3, r0, #1
 4381 1ea0 3381     		strh	r3, [r6, #8]
 4382 1ea2 FFF7FEFF 		bl	Rd6502
 4383 1ea6 0C4B     		ldr	r3, .L386
 4384 1ea8 3B40     		and	r3, r3, r7
 4385 1eaa 1F1C     		mov	r7, r3
 4386 1eac 0002     		lsl	r0, r0, #8
 4387 1eae 0743     		orr	r7, r7, r0
 4388 1eb0 B078     		ldrb	r0, [r6, #2]
 4389 1eb2 C019     		add	r0, r0, r7
 4390 1eb4 0004     		lsl	r0, r0, #16
 4391 1eb6 000C     		lsr	r0, r0, #16
 4392 1eb8 FFF7FEFF 		bl	Rd6502
 4393 1ebc 3378     		ldrb	r3, [r6]
 4394 1ebe 4340     		eor	r3, r3, r0
 4395 1ec0 7278     		ldrb	r2, [r6, #1]
 4396 1ec2 1B06     		lsl	r3, r3, #24
 4397 1ec4 1B0E     		lsr	r3, r3, #24
 4398 1ec6 7D21     		mov	r1, #125
 4399 1ec8 0A40     		and	r2, r2, r1
 4400 1eca 3370     		strb	r3, [r6]
 4401 1ecc 0449     		ldr	r1, .L386+8
 4402 1ece CB5C     		ldrb	r3, [r1, r3]
 4403 1ed0 1A43     		orr	r2, r2, r3
 4404 1ed2 7270     		strb	r2, [r6, #1]
 4405 1ed4 01F095F9 		bl	.L146	@ far jump
 4406              	.L387:
 4407              		.align	2
 4408              	.L386:
 4409 1ed8 FF00FFFF 		.word	-65281
 4410 1edc 0000FFFF 		.word	-65536
 4411 1ee0 00000000 		.word	ZNTable
 4412              	.LVL166:
 4413              	.L60:
 190:Codes.h       **** case 0x5E: MM_Ax(M_LSR);break;            /* LSR $ssss,x ABS,x */
 4414              		.loc 2 190 0
 4415 1ee4 3089     		ldrh	r0, [r6, #8]
 4416 1ee6 431C     		add	r3, r0, #1
 4417 1ee8 3381     		strh	r3, [r6, #8]
 4418 1eea FFF7FEFF 		bl	Rd6502
 4419              	.LVL167:
 4420 1eee 3C1C     		mov	r4, r7
 4421 1ef0 FF23     		mov	r3, #255
 4422 1ef2 9C43     		bic	r4, r4, r3
 4423 1ef4 271C     		mov	r7, r4
 4424 1ef6 0743     		orr	r7, r7, r0
 4425 1ef8 3089     		ldrh	r0, [r6, #8]
 4426 1efa 431C     		add	r3, r0, #1
 4427 1efc 3381     		strh	r3, [r6, #8]
 4428 1efe FFF7FEFF 		bl	Rd6502
ARM GAS  /cygdrive/c/Users/Zbyszko/AppData/Local/Temp/cc6jOyxc.s 			page 86


 4429 1f02 E04B     		ldr	r3, .L388
 4430 1f04 3B40     		and	r3, r3, r7
 4431 1f06 1F1C     		mov	r7, r3
 4432 1f08 B478     		ldrb	r4, [r6, #2]
 4433 1f0a 0002     		lsl	r0, r0, #8
 4434 1f0c 0743     		orr	r7, r7, r0
 4435 1f0e E419     		add	r4, r4, r7
 4436 1f10 2404     		lsl	r4, r4, #16
 4437 1f12 240C     		lsr	r4, r4, #16
 4438 1f14 201C     		mov	r0, r4
 4439 1f16 FFF7FEFF 		bl	Rd6502
 4440 1f1a 7378     		ldrb	r3, [r6, #1]
 4441 1f1c 0122     		mov	r2, #1
 4442 1f1e 9343     		bic	r3, r3, r2
 4443 1f20 0240     		and	r2, r2, r0
 4444 1f22 1343     		orr	r3, r3, r2
 4445 1f24 7D22     		mov	r2, #125
 4446 1f26 7370     		strb	r3, [r6, #1]
 4447 1f28 C105     		lsl	r1, r0, #23
 4448 1f2a 1340     		and	r3, r3, r2
 4449 1f2c D64A     		ldr	r2, .L388+4
 4450 1f2e 090E     		lsr	r1, r1, #24
 4451 1f30 525C     		ldrb	r2, [r2, r1]
 4452 1f32 1343     		orr	r3, r3, r2
 4453 1f34 7370     		strb	r3, [r6, #1]
 4454 1f36 201C     		mov	r0, r4
 4455 1f38 FFF7FEFF 		bl	Wr6502
 4456 1f3c 01F061F9 		bl	.L146	@ far jump
 4457              	.LVL168:
 4458              	.L76:
 191:Codes.h       **** case 0x79: MR_Ay(I);M_ADC(I);break;       /* ADC $ssss,y ABS,y */
 4459              		.loc 2 191 0
 4460 1f40 3089     		ldrh	r0, [r6, #8]
 4461 1f42 431C     		add	r3, r0, #1
 4462 1f44 3381     		strh	r3, [r6, #8]
 4463 1f46 FFF7FEFF 		bl	Rd6502
 4464 1f4a FF21     		mov	r1, #255
 4465              	.LVL169:
 4466 1f4c 3B1C     		mov	r3, r7
 4467 1f4e 8B43     		bic	r3, r3, r1
 4468 1f50 1F1C     		mov	r7, r3
 4469 1f52 0743     		orr	r7, r7, r0
 4470 1f54 3089     		ldrh	r0, [r6, #8]
 4471 1f56 431C     		add	r3, r0, #1
 4472 1f58 3381     		strh	r3, [r6, #8]
 4473 1f5a FFF7FEFF 		bl	Rd6502
 4474 1f5e C94B     		ldr	r3, .L388
 4475 1f60 3B40     		and	r3, r3, r7
 4476 1f62 0002     		lsl	r0, r0, #8
 4477 1f64 1F1C     		mov	r7, r3
 4478 1f66 0743     		orr	r7, r7, r0
 4479 1f68 F078     		ldrb	r0, [r6, #3]
 4480 1f6a C019     		add	r0, r0, r7
 4481 1f6c 0004     		lsl	r0, r0, #16
 4482 1f6e 000C     		lsr	r0, r0, #16
 4483 1f70 FFF7FEFF 		bl	Rd6502
 4484 1f74 7778     		ldrb	r7, [r6, #1]
ARM GAS  /cygdrive/c/Users/Zbyszko/AppData/Local/Temp/cc6jOyxc.s 			page 87


 4485              	.LVL170:
 4486 1f76 3478     		ldrb	r4, [r6]
 4487 1f78 3A07     		lsl	r2, r7, #28
 4488 1f7a 3AD5     		bpl	.L281
 4489 1f7c 0F23     		mov	r3, #15
 4490 1f7e 0122     		mov	r2, #1
 4491 1f80 191C     		mov	r1, r3
 4492 1f82 3A40     		and	r2, r2, r7
 4493 1f84 9C46     		mov	ip, r3
 4494 1f86 2340     		and	r3, r3, r4
 4495 1f88 9B18     		add	r3, r3, r2
 4496              	.LVL171:
 4497 1f8a 0140     		and	r1, r1, r0
 4498 1f8c C918     		add	r1, r1, r3
 4499 1f8e FF22     		mov	r2, #255
 4500              	.LVL172:
 4501 1f90 2B1C     		mov	r3, r5
 4502 1f92 9343     		bic	r3, r3, r2
 4503 1f94 1D1C     		mov	r5, r3
 4504 1f96 0D43     		orr	r5, r5, r1
 4505 1f98 2B06     		lsl	r3, r5, #24
 4506 1f9a 1B0E     		lsr	r3, r3, #24
 4507 1f9c 092B     		cmp	r3, #9
 4508 1f9e 07D9     		bls	.L283
 4509 1fa0 2A1C     		mov	r2, r5
 4510 1fa2 0633     		add	r3, r3, #6
 4511 1fa4 FF21     		mov	r1, #255
 4512 1fa6 1B06     		lsl	r3, r3, #24
 4513 1fa8 8A43     		bic	r2, r2, r1
 4514 1faa 1B0E     		lsr	r3, r3, #24
 4515 1fac 151C     		mov	r5, r2
 4516 1fae 1D43     		orr	r5, r5, r3
 4517              	.L283:
 4518 1fb0 2B06     		lsl	r3, r5, #24
 4519 1fb2 1B0E     		lsr	r3, r3, #24
 4520 1fb4 2209     		lsr	r2, r4, #4
 4521 1fb6 0009     		lsr	r0, r0, #4
 4522              	.LVL173:
 4523 1fb8 0024     		mov	r4, #0
 4524 1fba 0F2B     		cmp	r3, #15
 4525 1fbc 00D9     		bls	.L285
 4526 1fbe 0124     		mov	r4, #1
 4527              	.L285:
 4528 1fc0 1219     		add	r2, r2, r4
 4529 1fc2 8218     		add	r2, r0, r2
 4530 1fc4 AF4B     		ldr	r3, .L388
 4531 1fc6 1206     		lsl	r2, r2, #24
 4532 1fc8 120E     		lsr	r2, r2, #24
 4533 1fca 2B40     		and	r3, r3, r5
 4534 1fcc 1102     		lsl	r1, r2, #8
 4535 1fce 1D1C     		mov	r5, r3
 4536 1fd0 0D43     		orr	r5, r5, r1
 4537 1fd2 6346     		mov	r3, ip
 4538 1fd4 1101     		lsl	r1, r2, #4
 4539 1fd6 2B40     		and	r3, r3, r5
 4540 1fd8 0B43     		orr	r3, r3, r1
 4541 1fda 3370     		strb	r3, [r6]
ARM GAS  /cygdrive/c/Users/Zbyszko/AppData/Local/Temp/cc6jOyxc.s 			page 88


 4542 1fdc 0124     		mov	r4, #1
 4543 1fde 3B1C     		mov	r3, r7
 4544 1fe0 A343     		bic	r3, r3, r4
 4545 1fe2 0021     		mov	r1, #0
 4546 1fe4 0F2A     		cmp	r2, #15
 4547 1fe6 00D9     		bls	.L286
 4548 1fe8 0121     		mov	r1, #1
 4549              	.L286:
 4550 1fea 0B43     		orr	r3, r3, r1
 4551 1fec 7370     		strb	r3, [r6, #1]
 4552 1fee 01F008F9 		bl	.L146	@ far jump
 4553              	.LVL174:
 4554              	.L281:
 4555 1ff2 0123     		mov	r3, #1
 4556 1ff4 3B40     		and	r3, r3, r7
 4557 1ff6 E318     		add	r3, r4, r3
 4558 1ff8 A44A     		ldr	r2, .L388+8
 4559              	.LVL175:
 4560 1ffa C318     		add	r3, r0, r3
 4561              	.LVL176:
 4562 1ffc 2A40     		and	r2, r2, r5
 4563 1ffe 1B04     		lsl	r3, r3, #16
 4564 2000 1B0C     		lsr	r3, r3, #16
 4565 2002 151C     		mov	r5, r2
 4566 2004 1D43     		orr	r5, r5, r3
 4567 2006 3C23     		mov	r3, #60
 4568 2008 1F40     		and	r7, r7, r3
 4569 200a 221C     		mov	r2, r4
 4570 200c 2B06     		lsl	r3, r5, #24
 4571 200e BC46     		mov	ip, r7
 4572 2010 7770     		strb	r7, [r6, #1]
 4573 2012 4240     		eor	r2, r2, r0
 4574 2014 1F0E     		lsr	r7, r3, #24
 4575 2016 231C     		mov	r3, r4
 4576 2018 1206     		lsl	r2, r2, #24
 4577 201a 7B40     		eor	r3, r3, r7
 4578 201c 8021     		mov	r1, #128
 4579 201e 120E     		lsr	r2, r2, #24
 4580 2020 0B40     		and	r3, r3, r1
 4581 2022 9343     		bic	r3, r2
 4582 2024 01D0     		beq	.L287
 4583 2026 4022     		mov	r2, #64
 4584 2028 00E0     		b	.L289
 4585              	.L287:
 4586 202a 0022     		mov	r2, #0
 4587              	.L289:
 4588 202c 2B04     		lsl	r3, r5, #16
 4589 202e 1B0E     		lsr	r3, r3, #24
 4590 2030 9549     		ldr	r1, .L388+4
 4591 2032 0020     		mov	r0, #0
 4592              	.LVL177:
 4593 2034 002B     		cmp	r3, #0
 4594 2036 00D0     		beq	.L290
 4595 2038 0120     		mov	r0, #1
 4596              	.L290:
 4597 203a CB5D     		ldrb	r3, [r1, r7]
 4598 203c 6146     		mov	r1, ip
ARM GAS  /cygdrive/c/Users/Zbyszko/AppData/Local/Temp/cc6jOyxc.s 			page 89


 4599 203e 0343     		orr	r3, r3, r0
 4600 2040 0A43     		orr	r2, r2, r1
 4601 2042 1343     		orr	r3, r3, r2
 4602 2044 7370     		strb	r3, [r6, #1]
 4603 2046 3770     		strb	r7, [r6]
 4604 2048 01F0DBF8 		bl	.L146	@ far jump
 4605              	.LVL178:
 4606              	.L77:
 192:Codes.h       **** case 0x7D: MR_Ax(I);M_ADC(I);break;       /* ADC $ssss,x ABS,x */
 4607              		.loc 2 192 0
 4608 204c 3089     		ldrh	r0, [r6, #8]
 4609 204e 431C     		add	r3, r0, #1
 4610 2050 3381     		strh	r3, [r6, #8]
 4611 2052 FFF7FEFF 		bl	Rd6502
 4612 2056 FF22     		mov	r2, #255
 4613              	.LVL179:
 4614 2058 3B1C     		mov	r3, r7
 4615 205a 9343     		bic	r3, r3, r2
 4616 205c 1F1C     		mov	r7, r3
 4617 205e 0743     		orr	r7, r7, r0
 4618 2060 3089     		ldrh	r0, [r6, #8]
 4619 2062 431C     		add	r3, r0, #1
 4620 2064 3381     		strh	r3, [r6, #8]
 4621 2066 FFF7FEFF 		bl	Rd6502
 4622 206a 864B     		ldr	r3, .L388
 4623 206c 3B40     		and	r3, r3, r7
 4624 206e 0002     		lsl	r0, r0, #8
 4625 2070 1F1C     		mov	r7, r3
 4626 2072 0743     		orr	r7, r7, r0
 4627 2074 B078     		ldrb	r0, [r6, #2]
 4628 2076 C019     		add	r0, r0, r7
 4629 2078 0004     		lsl	r0, r0, #16
 4630 207a 000C     		lsr	r0, r0, #16
 4631 207c FFF7FEFF 		bl	Rd6502
 4632 2080 7778     		ldrb	r7, [r6, #1]
 4633              	.LVL180:
 4634 2082 3478     		ldrb	r4, [r6]
 4635 2084 3B07     		lsl	r3, r7, #28
 4636 2086 3AD5     		bpl	.L291
 4637 2088 0F21     		mov	r1, #15
 4638 208a 8C46     		mov	ip, r1
 4639 208c 6346     		mov	r3, ip
 4640 208e 0122     		mov	r2, #1
 4641 2090 3A40     		and	r2, r2, r7
 4642 2092 2340     		and	r3, r3, r4
 4643 2094 9B18     		add	r3, r3, r2
 4644              	.LVL181:
 4645 2096 0140     		and	r1, r1, r0
 4646 2098 C918     		add	r1, r1, r3
 4647 209a FF22     		mov	r2, #255
 4648              	.LVL182:
 4649 209c 2B1C     		mov	r3, r5
 4650 209e 9343     		bic	r3, r3, r2
 4651 20a0 1D1C     		mov	r5, r3
 4652 20a2 0D43     		orr	r5, r5, r1
 4653 20a4 2B06     		lsl	r3, r5, #24
 4654 20a6 1B0E     		lsr	r3, r3, #24
ARM GAS  /cygdrive/c/Users/Zbyszko/AppData/Local/Temp/cc6jOyxc.s 			page 90


 4655 20a8 092B     		cmp	r3, #9
 4656 20aa 07D9     		bls	.L293
 4657 20ac 2A1C     		mov	r2, r5
 4658 20ae 0633     		add	r3, r3, #6
 4659 20b0 FF21     		mov	r1, #255
 4660 20b2 1B06     		lsl	r3, r3, #24
 4661 20b4 8A43     		bic	r2, r2, r1
 4662 20b6 1B0E     		lsr	r3, r3, #24
 4663 20b8 151C     		mov	r5, r2
 4664 20ba 1D43     		orr	r5, r5, r3
 4665              	.L293:
 4666 20bc 2B06     		lsl	r3, r5, #24
 4667 20be 1B0E     		lsr	r3, r3, #24
 4668 20c0 2209     		lsr	r2, r4, #4
 4669 20c2 0009     		lsr	r0, r0, #4
 4670              	.LVL183:
 4671 20c4 0024     		mov	r4, #0
 4672 20c6 0F2B     		cmp	r3, #15
 4673 20c8 00D9     		bls	.L295
 4674 20ca 0124     		mov	r4, #1
 4675              	.L295:
 4676 20cc 1219     		add	r2, r2, r4
 4677 20ce 8218     		add	r2, r0, r2
 4678 20d0 6C4B     		ldr	r3, .L388
 4679 20d2 1206     		lsl	r2, r2, #24
 4680 20d4 120E     		lsr	r2, r2, #24
 4681 20d6 2B40     		and	r3, r3, r5
 4682 20d8 1102     		lsl	r1, r2, #8
 4683 20da 1D1C     		mov	r5, r3
 4684 20dc 0D43     		orr	r5, r5, r1
 4685 20de 6346     		mov	r3, ip
 4686 20e0 1101     		lsl	r1, r2, #4
 4687 20e2 2B40     		and	r3, r3, r5
 4688 20e4 0B43     		orr	r3, r3, r1
 4689 20e6 3370     		strb	r3, [r6]
 4690 20e8 0124     		mov	r4, #1
 4691 20ea 3B1C     		mov	r3, r7
 4692 20ec A343     		bic	r3, r3, r4
 4693 20ee 0021     		mov	r1, #0
 4694 20f0 0F2A     		cmp	r2, #15
 4695 20f2 00D9     		bls	.L296
 4696 20f4 0121     		mov	r1, #1
 4697              	.L296:
 4698 20f6 0B43     		orr	r3, r3, r1
 4699 20f8 7370     		strb	r3, [r6, #1]
 4700 20fa 01F082F8 		bl	.L146	@ far jump
 4701              	.LVL184:
 4702              	.L291:
 4703 20fe 0123     		mov	r3, #1
 4704 2100 3B40     		and	r3, r3, r7
 4705 2102 E318     		add	r3, r4, r3
 4706 2104 614A     		ldr	r2, .L388+8
 4707              	.LVL185:
 4708 2106 C318     		add	r3, r0, r3
 4709              	.LVL186:
 4710 2108 2A40     		and	r2, r2, r5
 4711 210a 1B04     		lsl	r3, r3, #16
ARM GAS  /cygdrive/c/Users/Zbyszko/AppData/Local/Temp/cc6jOyxc.s 			page 91


 4712 210c 1B0C     		lsr	r3, r3, #16
 4713 210e 151C     		mov	r5, r2
 4714 2110 1D43     		orr	r5, r5, r3
 4715 2112 3C23     		mov	r3, #60
 4716 2114 1F40     		and	r7, r7, r3
 4717 2116 221C     		mov	r2, r4
 4718 2118 2B06     		lsl	r3, r5, #24
 4719 211a BC46     		mov	ip, r7
 4720 211c 7770     		strb	r7, [r6, #1]
 4721 211e 4240     		eor	r2, r2, r0
 4722 2120 1F0E     		lsr	r7, r3, #24
 4723 2122 231C     		mov	r3, r4
 4724 2124 1206     		lsl	r2, r2, #24
 4725 2126 7B40     		eor	r3, r3, r7
 4726 2128 8021     		mov	r1, #128
 4727 212a 120E     		lsr	r2, r2, #24
 4728 212c 0B40     		and	r3, r3, r1
 4729 212e 9343     		bic	r3, r2
 4730 2130 01D0     		beq	.L297
 4731 2132 4022     		mov	r2, #64
 4732 2134 00E0     		b	.L299
 4733              	.L297:
 4734 2136 0022     		mov	r2, #0
 4735              	.L299:
 4736 2138 2B04     		lsl	r3, r5, #16
 4737 213a 1B0E     		lsr	r3, r3, #24
 4738 213c 5249     		ldr	r1, .L388+4
 4739 213e 0020     		mov	r0, #0
 4740              	.LVL187:
 4741 2140 002B     		cmp	r3, #0
 4742 2142 00D0     		beq	.L300
 4743 2144 0120     		mov	r0, #1
 4744              	.L300:
 4745 2146 CB5D     		ldrb	r3, [r1, r7]
 4746 2148 6146     		mov	r1, ip
 4747 214a 0343     		orr	r3, r3, r0
 4748 214c 0A43     		orr	r2, r2, r1
 4749 214e 1343     		orr	r3, r3, r2
 4750 2150 7370     		strb	r3, [r6, #1]
 4751 2152 3770     		strb	r7, [r6]
 4752 2154 01F055F8 		bl	.L146	@ far jump
 4753              	.LVL188:
 4754              	.L78:
 193:Codes.h       **** case 0x7E: MM_Ax(M_ROR);break;            /* ROR $ssss,x ABS,x */
 4755              		.loc 2 193 0
 4756 2158 3089     		ldrh	r0, [r6, #8]
 4757 215a 431C     		add	r3, r0, #1
 4758 215c 3381     		strh	r3, [r6, #8]
 4759 215e FFF7FEFF 		bl	Rd6502
 4760 2162 FF22     		mov	r2, #255
 4761              	.LVL189:
 4762 2164 3B1C     		mov	r3, r7
 4763 2166 9343     		bic	r3, r3, r2
 4764 2168 1F1C     		mov	r7, r3
 4765 216a 0743     		orr	r7, r7, r0
 4766 216c 3089     		ldrh	r0, [r6, #8]
 4767 216e 431C     		add	r3, r0, #1
ARM GAS  /cygdrive/c/Users/Zbyszko/AppData/Local/Temp/cc6jOyxc.s 			page 92


 4768 2170 3381     		strh	r3, [r6, #8]
 4769 2172 FFF7FEFF 		bl	Rd6502
 4770 2176 434B     		ldr	r3, .L388
 4771 2178 3B40     		and	r3, r3, r7
 4772 217a 1F1C     		mov	r7, r3
 4773 217c 0002     		lsl	r0, r0, #8
 4774 217e 0743     		orr	r7, r7, r0
 4775 2180 B078     		ldrb	r0, [r6, #2]
 4776 2182 C019     		add	r0, r0, r7
 4777 2184 0004     		lsl	r0, r0, #16
 4778 2186 070C     		lsr	r7, r0, #16
 4779              	.LVL190:
 4780 2188 381C     		mov	r0, r7
 4781 218a FFF7FEFF 		bl	Rd6502
 4782 218e 7478     		ldrb	r4, [r6, #1]
 4783 2190 4308     		lsr	r3, r0, #1
 4784 2192 E201     		lsl	r2, r4, #7
 4785 2194 1343     		orr	r3, r3, r2
 4786 2196 FF21     		mov	r1, #255
 4787              	.LVL191:
 4788 2198 2A1C     		mov	r2, r5
 4789 219a 8A43     		bic	r2, r2, r1
 4790 219c 1B06     		lsl	r3, r3, #24
 4791 219e 1B0E     		lsr	r3, r3, #24
 4792 21a0 151C     		mov	r5, r2
 4793 21a2 1D43     		orr	r5, r5, r3
 4794 21a4 0123     		mov	r3, #1
 4795 21a6 1840     		and	r0, r0, r3
 4796 21a8 9C43     		bic	r4, r4, r3
 4797 21aa 0443     		orr	r4, r4, r0
 4798 21ac 7D23     		mov	r3, #125
 4799 21ae 7470     		strb	r4, [r6, #1]
 4800 21b0 2906     		lsl	r1, r5, #24
 4801 21b2 1C40     		and	r4, r4, r3
 4802 21b4 344B     		ldr	r3, .L388+4
 4803 21b6 090E     		lsr	r1, r1, #24
 4804 21b8 5B5C     		ldrb	r3, [r3, r1]
 4805 21ba 1C43     		orr	r4, r4, r3
 4806 21bc 7470     		strb	r4, [r6, #1]
 4807 21be 381C     		mov	r0, r7
 4808 21c0 FFF7FEFF 		bl	Wr6502
 4809 21c4 01F01DF8 		bl	.L146	@ far jump
 4810              	.LVL192:
 4811              	.L94:
 194:Codes.h       **** case 0x99: MW_Ay(R->A);break;             /* STA $ssss,y ABS,y */
 4812              		.loc 2 194 0
 4813 21c8 3089     		ldrh	r0, [r6, #8]
 4814 21ca 431C     		add	r3, r0, #1
 4815 21cc 3381     		strh	r3, [r6, #8]
 4816 21ce FFF7FEFF 		bl	Rd6502
 4817 21d2 FF23     		mov	r3, #255
 4818              	.LVL193:
 4819 21d4 3A1C     		mov	r2, r7
 4820 21d6 9A43     		bic	r2, r2, r3
 4821 21d8 171C     		mov	r7, r2
 4822 21da 0743     		orr	r7, r7, r0
 4823 21dc 3089     		ldrh	r0, [r6, #8]
ARM GAS  /cygdrive/c/Users/Zbyszko/AppData/Local/Temp/cc6jOyxc.s 			page 93


 4824 21de 431C     		add	r3, r0, #1
 4825 21e0 3381     		strh	r3, [r6, #8]
 4826 21e2 FFF7FEFF 		bl	Rd6502
 4827 21e6 274B     		ldr	r3, .L388
 4828 21e8 3B40     		and	r3, r3, r7
 4829 21ea 0002     		lsl	r0, r0, #8
 4830 21ec 1F1C     		mov	r7, r3
 4831 21ee 0743     		orr	r7, r7, r0
 4832 21f0 F078     		ldrb	r0, [r6, #3]
 4833 21f2 C019     		add	r0, r0, r7
 4834 21f4 0004     		lsl	r0, r0, #16
 4835 21f6 000C     		lsr	r0, r0, #16
 4836 21f8 3178     		ldrb	r1, [r6]
 4837 21fa FFF7FEFF 		bl	Wr6502
 4838 21fe 01F000F8 		bl	.L146	@ far jump
 4839              	.LVL194:
 4840              	.L96:
 195:Codes.h       **** case 0x9D: MW_Ax(R->A);break;             /* STA $ssss,x ABS,x */
 4841              		.loc 2 195 0
 4842 2202 3089     		ldrh	r0, [r6, #8]
 4843 2204 431C     		add	r3, r0, #1
 4844 2206 3381     		strh	r3, [r6, #8]
 4845 2208 FFF7FEFF 		bl	Rd6502
 4846              	.LVL195:
 4847 220c 3C1C     		mov	r4, r7
 4848 220e FF23     		mov	r3, #255
 4849 2210 9C43     		bic	r4, r4, r3
 4850 2212 271C     		mov	r7, r4
 4851 2214 0743     		orr	r7, r7, r0
 4852 2216 3089     		ldrh	r0, [r6, #8]
 4853 2218 431C     		add	r3, r0, #1
 4854 221a 3381     		strh	r3, [r6, #8]
 4855 221c FFF7FEFF 		bl	Rd6502
 4856 2220 184B     		ldr	r3, .L388
 4857 2222 3B40     		and	r3, r3, r7
 4858 2224 0002     		lsl	r0, r0, #8
 4859 2226 1F1C     		mov	r7, r3
 4860 2228 0743     		orr	r7, r7, r0
 4861 222a B078     		ldrb	r0, [r6, #2]
 4862 222c C019     		add	r0, r0, r7
 4863 222e 0004     		lsl	r0, r0, #16
 4864 2230 000C     		lsr	r0, r0, #16
 4865 2232 3178     		ldrb	r1, [r6]
 4866 2234 FFF7FEFF 		bl	Wr6502
 4867 2238 00F0E3FF 		bl	.L146	@ far jump
 4868              	.LVL196:
 4869              	.L115:
 196:Codes.h       **** case 0xB9: MR_Ay(R->A);M_FL(R->A);break;  /* LDA $ssss,y ABS,y */
 4870              		.loc 2 196 0
 4871 223c 3089     		ldrh	r0, [r6, #8]
 4872 223e 431C     		add	r3, r0, #1
 4873 2240 3381     		strh	r3, [r6, #8]
 4874 2242 FFF7FEFF 		bl	Rd6502
 4875 2246 FF23     		mov	r3, #255
 4876              	.LVL197:
 4877 2248 391C     		mov	r1, r7
 4878 224a 9943     		bic	r1, r1, r3
ARM GAS  /cygdrive/c/Users/Zbyszko/AppData/Local/Temp/cc6jOyxc.s 			page 94


 4879 224c 0F1C     		mov	r7, r1
 4880 224e 0743     		orr	r7, r7, r0
 4881 2250 3089     		ldrh	r0, [r6, #8]
 4882 2252 431C     		add	r3, r0, #1
 4883 2254 3381     		strh	r3, [r6, #8]
 4884 2256 FFF7FEFF 		bl	Rd6502
 4885 225a 0A4B     		ldr	r3, .L388
 4886 225c 3B40     		and	r3, r3, r7
 4887 225e 1F1C     		mov	r7, r3
 4888 2260 0002     		lsl	r0, r0, #8
 4889 2262 0743     		orr	r7, r7, r0
 4890 2264 F078     		ldrb	r0, [r6, #3]
 4891 2266 C019     		add	r0, r0, r7
 4892 2268 0004     		lsl	r0, r0, #16
 4893 226a 000C     		lsr	r0, r0, #16
 4894 226c FFF7FEFF 		bl	Rd6502
 4895 2270 7378     		ldrb	r3, [r6, #1]
 4896 2272 7D22     		mov	r2, #125
 4897 2274 1340     		and	r3, r3, r2
 4898 2276 3070     		strb	r0, [r6]
 4899 2278 034A     		ldr	r2, .L388+4
 4900 227a 125C     		ldrb	r2, [r2, r0]
 4901 227c 1343     		orr	r3, r3, r2
 4902 227e 7370     		strb	r3, [r6, #1]
 4903 2280 00F0BFFF 		bl	.L146	@ far jump
 4904              	.L389:
 4905              		.align	2
 4906              	.L388:
 4907 2284 FF00FFFF 		.word	-65281
 4908 2288 00000000 		.word	ZNTable
 4909 228c 0000FFFF 		.word	-65536
 4910              	.LVL198:
 4911              	.L117:
 197:Codes.h       **** case 0xBC: MR_Ax(R->Y);M_FL(R->Y);break;  /* LDY $ssss,x ABS,x */
 4912              		.loc 2 197 0
 4913 2290 3089     		ldrh	r0, [r6, #8]
 4914 2292 431C     		add	r3, r0, #1
 4915 2294 3381     		strh	r3, [r6, #8]
 4916 2296 FFF7FEFF 		bl	Rd6502
 4917 229a FF23     		mov	r3, #255
 4918              	.LVL199:
 4919 229c 3A1C     		mov	r2, r7
 4920 229e 9A43     		bic	r2, r2, r3
 4921 22a0 171C     		mov	r7, r2
 4922 22a2 0743     		orr	r7, r7, r0
 4923 22a4 3089     		ldrh	r0, [r6, #8]
 4924 22a6 431C     		add	r3, r0, #1
 4925 22a8 3381     		strh	r3, [r6, #8]
 4926 22aa FFF7FEFF 		bl	Rd6502
 4927 22ae C24B     		ldr	r3, .L390
 4928 22b0 3B40     		and	r3, r3, r7
 4929 22b2 1F1C     		mov	r7, r3
 4930 22b4 0002     		lsl	r0, r0, #8
 4931 22b6 0743     		orr	r7, r7, r0
 4932 22b8 B078     		ldrb	r0, [r6, #2]
 4933 22ba C019     		add	r0, r0, r7
 4934 22bc 0004     		lsl	r0, r0, #16
ARM GAS  /cygdrive/c/Users/Zbyszko/AppData/Local/Temp/cc6jOyxc.s 			page 95


 4935 22be 000C     		lsr	r0, r0, #16
 4936 22c0 FFF7FEFF 		bl	Rd6502
 4937 22c4 7378     		ldrb	r3, [r6, #1]
 4938 22c6 7D22     		mov	r2, #125
 4939 22c8 1340     		and	r3, r3, r2
 4940 22ca F070     		strb	r0, [r6, #3]
 4941 22cc BB4A     		ldr	r2, .L390+4
 4942 22ce 125C     		ldrb	r2, [r2, r0]
 4943 22d0 1343     		orr	r3, r3, r2
 4944 22d2 7370     		strb	r3, [r6, #1]
 4945 22d4 00F095FF 		bl	.L146	@ far jump
 4946              	.LVL200:
 4947              	.L118:
 198:Codes.h       **** case 0xBD: MR_Ax(R->A);M_FL(R->A);break;  /* LDA $ssss,x ABS,x */
 4948              		.loc 2 198 0
 4949 22d8 3089     		ldrh	r0, [r6, #8]
 4950 22da 431C     		add	r3, r0, #1
 4951 22dc 3381     		strh	r3, [r6, #8]
 4952 22de FFF7FEFF 		bl	Rd6502
 4953              	.LVL201:
 4954 22e2 3C1C     		mov	r4, r7
 4955 22e4 FF23     		mov	r3, #255
 4956 22e6 9C43     		bic	r4, r4, r3
 4957 22e8 271C     		mov	r7, r4
 4958 22ea 0743     		orr	r7, r7, r0
 4959 22ec 3089     		ldrh	r0, [r6, #8]
 4960 22ee 431C     		add	r3, r0, #1
 4961 22f0 3381     		strh	r3, [r6, #8]
 4962 22f2 FFF7FEFF 		bl	Rd6502
 4963 22f6 B04B     		ldr	r3, .L390
 4964 22f8 3B40     		and	r3, r3, r7
 4965 22fa 1F1C     		mov	r7, r3
 4966 22fc 0002     		lsl	r0, r0, #8
 4967 22fe 0743     		orr	r7, r7, r0
 4968 2300 B078     		ldrb	r0, [r6, #2]
 4969 2302 C019     		add	r0, r0, r7
 4970 2304 0004     		lsl	r0, r0, #16
 4971 2306 000C     		lsr	r0, r0, #16
 4972 2308 FFF7FEFF 		bl	Rd6502
 4973 230c 7378     		ldrb	r3, [r6, #1]
 4974 230e 7D22     		mov	r2, #125
 4975 2310 1340     		and	r3, r3, r2
 4976 2312 3070     		strb	r0, [r6]
 4977 2314 A94A     		ldr	r2, .L390+4
 4978 2316 125C     		ldrb	r2, [r2, r0]
 4979 2318 1343     		orr	r3, r3, r2
 4980 231a 7370     		strb	r3, [r6, #1]
 4981 231c 00F071FF 		bl	.L146	@ far jump
 4982              	.LVL202:
 4983              	.L119:
 199:Codes.h       **** case 0xBE: MR_Ay(R->X);M_FL(R->X);break;  /* LDX $ssss,y ABS,y */
 4984              		.loc 2 199 0
 4985 2320 3089     		ldrh	r0, [r6, #8]
 4986 2322 431C     		add	r3, r0, #1
 4987 2324 3381     		strh	r3, [r6, #8]
 4988 2326 FFF7FEFF 		bl	Rd6502
 4989 232a FF23     		mov	r3, #255
ARM GAS  /cygdrive/c/Users/Zbyszko/AppData/Local/Temp/cc6jOyxc.s 			page 96


 4990              	.LVL203:
 4991 232c 391C     		mov	r1, r7
 4992 232e 9943     		bic	r1, r1, r3
 4993 2330 0F1C     		mov	r7, r1
 4994 2332 0743     		orr	r7, r7, r0
 4995 2334 3089     		ldrh	r0, [r6, #8]
 4996 2336 431C     		add	r3, r0, #1
 4997 2338 3381     		strh	r3, [r6, #8]
 4998 233a FFF7FEFF 		bl	Rd6502
 4999 233e 9E4B     		ldr	r3, .L390
 5000 2340 3B40     		and	r3, r3, r7
 5001 2342 1F1C     		mov	r7, r3
 5002 2344 0002     		lsl	r0, r0, #8
 5003 2346 0743     		orr	r7, r7, r0
 5004 2348 F078     		ldrb	r0, [r6, #3]
 5005 234a C019     		add	r0, r0, r7
 5006 234c 0004     		lsl	r0, r0, #16
 5007 234e 000C     		lsr	r0, r0, #16
 5008 2350 FFF7FEFF 		bl	Rd6502
 5009 2354 7378     		ldrb	r3, [r6, #1]
 5010 2356 7D22     		mov	r2, #125
 5011 2358 1340     		and	r3, r3, r2
 5012 235a B070     		strb	r0, [r6, #2]
 5013 235c 974A     		ldr	r2, .L390+4
 5014 235e 125C     		ldrb	r2, [r2, r0]
 5015 2360 1343     		orr	r3, r3, r2
 5016 2362 7370     		strb	r3, [r6, #1]
 5017 2364 00F04DFF 		bl	.L146	@ far jump
 5018              	.LVL204:
 5019              	.L136:
 200:Codes.h       **** case 0xD9: MR_Ay(I);M_CMP(R->A,I);break;  /* CMP $ssss,y ABS,y */
 5020              		.loc 2 200 0
 5021 2368 3089     		ldrh	r0, [r6, #8]
 5022 236a 431C     		add	r3, r0, #1
 5023 236c 3381     		strh	r3, [r6, #8]
 5024 236e FFF7FEFF 		bl	Rd6502
 5025 2372 FF23     		mov	r3, #255
 5026              	.LVL205:
 5027 2374 3A1C     		mov	r2, r7
 5028 2376 9A43     		bic	r2, r2, r3
 5029 2378 171C     		mov	r7, r2
 5030 237a 0743     		orr	r7, r7, r0
 5031 237c 3089     		ldrh	r0, [r6, #8]
 5032 237e 431C     		add	r3, r0, #1
 5033 2380 3381     		strh	r3, [r6, #8]
 5034 2382 FFF7FEFF 		bl	Rd6502
 5035 2386 8C4B     		ldr	r3, .L390
 5036 2388 3B40     		and	r3, r3, r7
 5037 238a 1F1C     		mov	r7, r3
 5038 238c 0002     		lsl	r0, r0, #8
 5039 238e 0743     		orr	r7, r7, r0
 5040 2390 F078     		ldrb	r0, [r6, #3]
 5041 2392 C019     		add	r0, r0, r7
 5042 2394 0004     		lsl	r0, r0, #16
 5043 2396 000C     		lsr	r0, r0, #16
 5044 2398 FFF7FEFF 		bl	Rd6502
 5045 239c 3378     		ldrb	r3, [r6]
ARM GAS  /cygdrive/c/Users/Zbyszko/AppData/Local/Temp/cc6jOyxc.s 			page 97


 5046 239e 884A     		ldr	r2, .L390+8
 5047 23a0 1B1A     		sub	r3, r3, r0
 5048              	.LVL206:
 5049 23a2 2A40     		and	r2, r2, r5
 5050 23a4 1B04     		lsl	r3, r3, #16
 5051 23a6 1B0C     		lsr	r3, r3, #16
 5052 23a8 151C     		mov	r5, r2
 5053 23aa 7278     		ldrb	r2, [r6, #1]
 5054 23ac 1D43     		orr	r5, r5, r3
 5055 23ae 7C23     		mov	r3, #124
 5056 23b0 1A40     		and	r2, r2, r3
 5057 23b2 2B06     		lsl	r3, r5, #24
 5058 23b4 190E     		lsr	r1, r3, #24
 5059 23b6 2B04     		lsl	r3, r5, #16
 5060 23b8 1B0E     		lsr	r3, r3, #24
 5061 23ba 7270     		strb	r2, [r6, #1]
 5062 23bc 7F4C     		ldr	r4, .L390+4
 5063 23be 0020     		mov	r0, #0
 5064 23c0 002B     		cmp	r3, #0
 5065 23c2 00D1     		bne	.L301
 5066 23c4 0120     		mov	r0, #1
 5067              	.L301:
 5068 23c6 635C     		ldrb	r3, [r4, r1]
 5069 23c8 0243     		orr	r2, r2, r0
 5070 23ca 1343     		orr	r3, r3, r2
 5071 23cc 7370     		strb	r3, [r6, #1]
 5072 23ce 00F018FF 		bl	.L146	@ far jump
 5073              	.LVL207:
 5074              	.L137:
 201:Codes.h       **** case 0xDD: MR_Ax(I);M_CMP(R->A,I);break;  /* CMP $ssss,x ABS,x */
 5075              		.loc 2 201 0
 5076 23d2 3089     		ldrh	r0, [r6, #8]
 5077 23d4 431C     		add	r3, r0, #1
 5078 23d6 3381     		strh	r3, [r6, #8]
 5079 23d8 FFF7FEFF 		bl	Rd6502
 5080              	.LVL208:
 5081 23dc 3C1C     		mov	r4, r7
 5082 23de FF23     		mov	r3, #255
 5083 23e0 9C43     		bic	r4, r4, r3
 5084 23e2 271C     		mov	r7, r4
 5085 23e4 0743     		orr	r7, r7, r0
 5086 23e6 3089     		ldrh	r0, [r6, #8]
 5087 23e8 431C     		add	r3, r0, #1
 5088 23ea 3381     		strh	r3, [r6, #8]
 5089 23ec FFF7FEFF 		bl	Rd6502
 5090 23f0 714B     		ldr	r3, .L390
 5091 23f2 3B40     		and	r3, r3, r7
 5092 23f4 1F1C     		mov	r7, r3
 5093 23f6 0002     		lsl	r0, r0, #8
 5094 23f8 0743     		orr	r7, r7, r0
 5095 23fa B078     		ldrb	r0, [r6, #2]
 5096 23fc C019     		add	r0, r0, r7
 5097 23fe 0004     		lsl	r0, r0, #16
 5098 2400 000C     		lsr	r0, r0, #16
 5099 2402 FFF7FEFF 		bl	Rd6502
 5100 2406 3378     		ldrb	r3, [r6]
 5101 2408 6D4A     		ldr	r2, .L390+8
ARM GAS  /cygdrive/c/Users/Zbyszko/AppData/Local/Temp/cc6jOyxc.s 			page 98


 5102 240a 1B1A     		sub	r3, r3, r0
 5103              	.LVL209:
 5104 240c 2A40     		and	r2, r2, r5
 5105 240e 1B04     		lsl	r3, r3, #16
 5106 2410 1B0C     		lsr	r3, r3, #16
 5107 2412 151C     		mov	r5, r2
 5108 2414 7278     		ldrb	r2, [r6, #1]
 5109 2416 1D43     		orr	r5, r5, r3
 5110 2418 7C23     		mov	r3, #124
 5111 241a 1A40     		and	r2, r2, r3
 5112 241c 2B06     		lsl	r3, r5, #24
 5113 241e 190E     		lsr	r1, r3, #24
 5114 2420 2B04     		lsl	r3, r5, #16
 5115 2422 1B0E     		lsr	r3, r3, #24
 5116 2424 7270     		strb	r2, [r6, #1]
 5117 2426 654C     		ldr	r4, .L390+4
 5118 2428 0020     		mov	r0, #0
 5119 242a 002B     		cmp	r3, #0
 5120 242c 00D1     		bne	.L302
 5121 242e 0120     		mov	r0, #1
 5122              	.L302:
 5123 2430 635C     		ldrb	r3, [r4, r1]
 5124 2432 0243     		orr	r2, r2, r0
 5125 2434 1343     		orr	r3, r3, r2
 5126 2436 7370     		strb	r3, [r6, #1]
 5127 2438 00F0E3FE 		bl	.L146	@ far jump
 5128              	.LVL210:
 5129              	.L138:
 202:Codes.h       **** case 0xDE: MM_Ax(M_DEC);break;            /* DEC $ssss,x ABS,x */
 5130              		.loc 2 202 0
 5131 243c 3089     		ldrh	r0, [r6, #8]
 5132 243e 431C     		add	r3, r0, #1
 5133 2440 3381     		strh	r3, [r6, #8]
 5134 2442 FFF7FEFF 		bl	Rd6502
 5135 2446 FF23     		mov	r3, #255
 5136              	.LVL211:
 5137 2448 391C     		mov	r1, r7
 5138 244a 9943     		bic	r1, r1, r3
 5139 244c 0F1C     		mov	r7, r1
 5140 244e 0743     		orr	r7, r7, r0
 5141 2450 3089     		ldrh	r0, [r6, #8]
 5142 2452 431C     		add	r3, r0, #1
 5143 2454 3381     		strh	r3, [r6, #8]
 5144 2456 FFF7FEFF 		bl	Rd6502
 5145 245a 574B     		ldr	r3, .L390
 5146 245c 3B40     		and	r3, r3, r7
 5147 245e 1F1C     		mov	r7, r3
 5148 2460 B478     		ldrb	r4, [r6, #2]
 5149 2462 0002     		lsl	r0, r0, #8
 5150 2464 0743     		orr	r7, r7, r0
 5151 2466 E419     		add	r4, r4, r7
 5152 2468 2404     		lsl	r4, r4, #16
 5153 246a 240C     		lsr	r4, r4, #16
 5154 246c 201C     		mov	r0, r4
 5155 246e FFF7FEFF 		bl	Rd6502
 5156 2472 7378     		ldrb	r3, [r6, #1]
 5157 2474 011C     		mov	r1, r0
ARM GAS  /cygdrive/c/Users/Zbyszko/AppData/Local/Temp/cc6jOyxc.s 			page 99


 5158 2476 7D22     		mov	r2, #125
 5159 2478 0139     		sub	r1, r1, #1
 5160 247a 1340     		and	r3, r3, r2
 5161 247c 0906     		lsl	r1, r1, #24
 5162 247e 4F4A     		ldr	r2, .L390+4
 5163 2480 090E     		lsr	r1, r1, #24
 5164 2482 525C     		ldrb	r2, [r2, r1]
 5165 2484 1343     		orr	r3, r3, r2
 5166 2486 7370     		strb	r3, [r6, #1]
 5167 2488 201C     		mov	r0, r4
 5168 248a FFF7FEFF 		bl	Wr6502
 5169 248e 00F0B8FE 		bl	.L146	@ far jump
 5170              	.LVL212:
 5171              	.L155:
 203:Codes.h       **** case 0xF9: MR_Ay(I);M_SBC(I);break;       /* SBC $ssss,y ABS,y */
 5172              		.loc 2 203 0
 5173 2492 3089     		ldrh	r0, [r6, #8]
 5174 2494 431C     		add	r3, r0, #1
 5175 2496 3381     		strh	r3, [r6, #8]
 5176 2498 FFF7FEFF 		bl	Rd6502
 5177 249c FF22     		mov	r2, #255
 5178              	.LVL213:
 5179 249e 3B1C     		mov	r3, r7
 5180 24a0 9343     		bic	r3, r3, r2
 5181 24a2 1F1C     		mov	r7, r3
 5182 24a4 0743     		orr	r7, r7, r0
 5183 24a6 3089     		ldrh	r0, [r6, #8]
 5184 24a8 431C     		add	r3, r0, #1
 5185 24aa 3381     		strh	r3, [r6, #8]
 5186 24ac FFF7FEFF 		bl	Rd6502
 5187 24b0 414B     		ldr	r3, .L390
 5188 24b2 3B40     		and	r3, r3, r7
 5189 24b4 1F1C     		mov	r7, r3
 5190 24b6 0002     		lsl	r0, r0, #8
 5191 24b8 0743     		orr	r7, r7, r0
 5192 24ba F078     		ldrb	r0, [r6, #3]
 5193 24bc C019     		add	r0, r0, r7
 5194 24be 0004     		lsl	r0, r0, #16
 5195 24c0 000C     		lsr	r0, r0, #16
 5196 24c2 FFF7FEFF 		bl	Rd6502
 5197 24c6 7378     		ldrb	r3, [r6, #1]
 5198 24c8 3478     		ldrb	r4, [r6]
 5199 24ca 9C46     		mov	ip, r3
 5200 24cc DD43     		mvn	r5, r3
 5201 24ce 1B07     		lsl	r3, r3, #28
 5202 24d0 47D5     		bpl	.L303
 5203 24d2 0F21     		mov	r1, #15
 5204 24d4 231C     		mov	r3, r4
 5205              	.LVL214:
 5206 24d6 021C     		mov	r2, r0
 5207 24d8 0A40     		and	r2, r2, r1
 5208 24da 0B40     		and	r3, r3, r1
 5209 24dc 9B1A     		sub	r3, r3, r2
 5210 24de 0122     		mov	r2, #1
 5211 24e0 2A40     		and	r2, r2, r5
 5212 24e2 9B1A     		sub	r3, r3, r2
 5213 24e4 FF27     		mov	r7, #255
ARM GAS  /cygdrive/c/Users/Zbyszko/AppData/Local/Temp/cc6jOyxc.s 			page 100


 5214              	.LVL215:
 5215 24e6 2A1C     		mov	r2, r5
 5216 24e8 BA43     		bic	r2, r2, r7
 5217 24ea 1B06     		lsl	r3, r3, #24
 5218 24ec 1B0E     		lsr	r3, r3, #24
 5219 24ee 151C     		mov	r5, r2
 5220 24f0 1D43     		orr	r5, r5, r3
 5221 24f2 2B06     		lsl	r3, r5, #24
 5222 24f4 1B0E     		lsr	r3, r3, #24
 5223 24f6 1027     		mov	r7, #16
 5224 24f8 3B42     		tst	r3, r7
 5225 24fa 08D0     		beq	.L305
 5226 24fc 063B     		sub	r3, r3, #6
 5227 24fe 1B06     		lsl	r3, r3, #24
 5228 2500 1B0E     		lsr	r3, r3, #24
 5229 2502 0093     		str	r3, [sp]
 5230 2504 2A1C     		mov	r2, r5
 5231 2506 FF23     		mov	r3, #255
 5232 2508 009D     		ldr	r5, [sp]
 5233 250a 9A43     		bic	r2, r2, r3
 5234 250c 1543     		orr	r5, r5, r2
 5235              	.L305:
 5236 250e 0309     		lsr	r3, r0, #4
 5237 2510 2209     		lsr	r2, r4, #4
 5238 2512 D21A     		sub	r2, r2, r3
 5239 2514 2B1C     		mov	r3, r5
 5240 2516 3B40     		and	r3, r3, r7
 5241 2518 1B11     		asr	r3, r3, #4
 5242 251a D21A     		sub	r2, r2, r3
 5243 251c 264B     		ldr	r3, .L390
 5244 251e 1206     		lsl	r2, r2, #24
 5245 2520 100E     		lsr	r0, r2, #24
 5246              	.LVL216:
 5247 2522 2B40     		and	r3, r3, r5
 5248 2524 0202     		lsl	r2, r0, #8
 5249 2526 1D1C     		mov	r5, r3
 5250 2528 1543     		orr	r5, r5, r2
 5251 252a 3842     		tst	r0, r7
 5252 252c 06D0     		beq	.L307
 5253 252e 224A     		ldr	r2, .L390
 5254 2530 831F     		sub	r3, r0, #6
 5255 2532 1B06     		lsl	r3, r3, #24
 5256 2534 2A40     		and	r2, r2, r5
 5257 2536 1B0C     		lsr	r3, r3, #16
 5258 2538 151C     		mov	r5, r2
 5259 253a 1D43     		orr	r5, r5, r3
 5260              	.L307:
 5261 253c 2B04     		lsl	r3, r5, #16
 5262 253e 1B0E     		lsr	r3, r3, #24
 5263 2540 2A1C     		mov	r2, r5
 5264 2542 0A40     		and	r2, r2, r1
 5265 2544 1901     		lsl	r1, r3, #4
 5266 2546 0A43     		orr	r2, r2, r1
 5267 2548 3270     		strb	r2, [r6]
 5268 254a 0124     		mov	r4, #1
 5269 254c 6246     		mov	r2, ip
 5270 254e A243     		bic	r2, r2, r4
ARM GAS  /cygdrive/c/Users/Zbyszko/AppData/Local/Temp/cc6jOyxc.s 			page 101


 5271 2550 0021     		mov	r1, #0
 5272 2552 0F2B     		cmp	r3, #15
 5273 2554 00D8     		bhi	.L309
 5274 2556 0121     		mov	r1, #1
 5275              	.L309:
 5276 2558 131C     		mov	r3, r2
 5277 255a 0B43     		orr	r3, r3, r1
 5278 255c 7370     		strb	r3, [r6, #1]
 5279 255e 00F050FE 		bl	.L146	@ far jump
 5280              	.LVL217:
 5281              	.L303:
 5282 2562 0122     		mov	r2, #1
 5283 2564 2A40     		and	r2, r2, r5
 5284              	.LVL218:
 5285 2566 231A     		sub	r3, r4, r0
 5286 2568 9B1A     		sub	r3, r3, r2
 5287 256a 154A     		ldr	r2, .L390+8
 5288 256c 1B04     		lsl	r3, r3, #16
 5289              	.LVL219:
 5290 256e 2A40     		and	r2, r2, r5
 5291 2570 1B0C     		lsr	r3, r3, #16
 5292 2572 151C     		mov	r5, r2
 5293 2574 1D43     		orr	r5, r5, r3
 5294 2576 6746     		mov	r7, ip
 5295              	.LVL220:
 5296 2578 3C23     		mov	r3, #60
 5297 257a 1F40     		and	r7, r7, r3
 5298 257c 2B06     		lsl	r3, r5, #24
 5299 257e 190E     		lsr	r1, r3, #24
 5300 2580 221C     		mov	r2, r4
 5301 2582 231C     		mov	r3, r4
 5302 2584 4340     		eor	r3, r3, r0
 5303 2586 4A40     		eor	r2, r2, r1
 5304 2588 1340     		and	r3, r3, r2
 5305 258a 1B06     		lsl	r3, r3, #24
 5306 258c 7770     		strb	r7, [r6, #1]
 5307 258e 002B     		cmp	r3, #0
 5308 2590 01DA     		bge	.L310
 5309 2592 4022     		mov	r2, #64
 5310 2594 00E0     		b	.L312
 5311              	.L310:
 5312 2596 0022     		mov	r2, #0
 5313              	.L312:
 5314 2598 2B04     		lsl	r3, r5, #16
 5315 259a 1B0E     		lsr	r3, r3, #24
 5316 259c 0748     		ldr	r0, .L390+4
 5317              	.LVL221:
 5318 259e 0024     		mov	r4, #0
 5319 25a0 002B     		cmp	r3, #0
 5320 25a2 00D1     		bne	.L313
 5321 25a4 0124     		mov	r4, #1
 5322              	.L313:
 5323 25a6 435C     		ldrb	r3, [r0, r1]
 5324 25a8 3A43     		orr	r2, r2, r7
 5325 25aa 2343     		orr	r3, r3, r4
 5326 25ac 1343     		orr	r3, r3, r2
 5327 25ae 7370     		strb	r3, [r6, #1]
ARM GAS  /cygdrive/c/Users/Zbyszko/AppData/Local/Temp/cc6jOyxc.s 			page 102


 5328 25b0 3170     		strb	r1, [r6]
 5329 25b2 00F026FE 		bl	.L146	@ far jump
 5330              	.L391:
 5331 25b6 0000     		.align	2
 5332              	.L390:
 5333 25b8 FF00FFFF 		.word	-65281
 5334 25bc 00000000 		.word	ZNTable
 5335 25c0 0000FFFF 		.word	-65536
 5336              	.LVL222:
 5337              	.L156:
 204:Codes.h       **** case 0xFD: MR_Ax(I);M_SBC(I);break;       /* SBC $ssss,x ABS,x */
 5338              		.loc 2 204 0
 5339 25c4 3089     		ldrh	r0, [r6, #8]
 5340 25c6 431C     		add	r3, r0, #1
 5341 25c8 3381     		strh	r3, [r6, #8]
 5342 25ca FFF7FEFF 		bl	Rd6502
 5343 25ce FF21     		mov	r1, #255
 5344              	.LVL223:
 5345 25d0 3B1C     		mov	r3, r7
 5346 25d2 8B43     		bic	r3, r3, r1
 5347 25d4 1F1C     		mov	r7, r3
 5348 25d6 0743     		orr	r7, r7, r0
 5349 25d8 3089     		ldrh	r0, [r6, #8]
 5350 25da 431C     		add	r3, r0, #1
 5351 25dc 3381     		strh	r3, [r6, #8]
 5352 25de FFF7FEFF 		bl	Rd6502
 5353 25e2 DA4B     		ldr	r3, .L392
 5354 25e4 3B40     		and	r3, r3, r7
 5355 25e6 0002     		lsl	r0, r0, #8
 5356 25e8 1F1C     		mov	r7, r3
 5357 25ea 0743     		orr	r7, r7, r0
 5358 25ec B078     		ldrb	r0, [r6, #2]
 5359 25ee C019     		add	r0, r0, r7
 5360 25f0 0004     		lsl	r0, r0, #16
 5361 25f2 000C     		lsr	r0, r0, #16
 5362 25f4 FFF7FEFF 		bl	Rd6502
 5363 25f8 7278     		ldrb	r2, [r6, #1]
 5364 25fa 3478     		ldrb	r4, [r6]
 5365 25fc 9446     		mov	ip, r2
 5366 25fe D543     		mvn	r5, r2
 5367 2600 1207     		lsl	r2, r2, #28
 5368 2602 47D5     		bpl	.L314
 5369 2604 0F21     		mov	r1, #15
 5370 2606 231C     		mov	r3, r4
 5371              	.LVL224:
 5372 2608 021C     		mov	r2, r0
 5373 260a 0A40     		and	r2, r2, r1
 5374 260c 0B40     		and	r3, r3, r1
 5375 260e 9B1A     		sub	r3, r3, r2
 5376 2610 0122     		mov	r2, #1
 5377 2612 2A40     		and	r2, r2, r5
 5378 2614 9B1A     		sub	r3, r3, r2
 5379 2616 FF27     		mov	r7, #255
 5380              	.LVL225:
 5381 2618 2A1C     		mov	r2, r5
 5382 261a BA43     		bic	r2, r2, r7
 5383 261c 1B06     		lsl	r3, r3, #24
ARM GAS  /cygdrive/c/Users/Zbyszko/AppData/Local/Temp/cc6jOyxc.s 			page 103


 5384 261e 1B0E     		lsr	r3, r3, #24
 5385 2620 151C     		mov	r5, r2
 5386 2622 1D43     		orr	r5, r5, r3
 5387 2624 2B06     		lsl	r3, r5, #24
 5388 2626 1B0E     		lsr	r3, r3, #24
 5389 2628 1027     		mov	r7, #16
 5390 262a 3B42     		tst	r3, r7
 5391 262c 08D0     		beq	.L316
 5392 262e 063B     		sub	r3, r3, #6
 5393 2630 1B06     		lsl	r3, r3, #24
 5394 2632 1B0E     		lsr	r3, r3, #24
 5395 2634 0093     		str	r3, [sp]
 5396 2636 2A1C     		mov	r2, r5
 5397 2638 FF23     		mov	r3, #255
 5398 263a 009D     		ldr	r5, [sp]
 5399 263c 9A43     		bic	r2, r2, r3
 5400 263e 1543     		orr	r5, r5, r2
 5401              	.L316:
 5402 2640 0309     		lsr	r3, r0, #4
 5403 2642 2209     		lsr	r2, r4, #4
 5404 2644 D21A     		sub	r2, r2, r3
 5405 2646 2B1C     		mov	r3, r5
 5406 2648 3B40     		and	r3, r3, r7
 5407 264a 1B11     		asr	r3, r3, #4
 5408 264c D21A     		sub	r2, r2, r3
 5409 264e BF4B     		ldr	r3, .L392
 5410 2650 1206     		lsl	r2, r2, #24
 5411 2652 100E     		lsr	r0, r2, #24
 5412              	.LVL226:
 5413 2654 2B40     		and	r3, r3, r5
 5414 2656 0202     		lsl	r2, r0, #8
 5415 2658 1D1C     		mov	r5, r3
 5416 265a 1543     		orr	r5, r5, r2
 5417 265c 3842     		tst	r0, r7
 5418 265e 06D0     		beq	.L318
 5419 2660 BA4A     		ldr	r2, .L392
 5420 2662 831F     		sub	r3, r0, #6
 5421 2664 1B06     		lsl	r3, r3, #24
 5422 2666 2A40     		and	r2, r2, r5
 5423 2668 1B0C     		lsr	r3, r3, #16
 5424 266a 151C     		mov	r5, r2
 5425 266c 1D43     		orr	r5, r5, r3
 5426              	.L318:
 5427 266e 2B04     		lsl	r3, r5, #16
 5428 2670 1B0E     		lsr	r3, r3, #24
 5429 2672 2A1C     		mov	r2, r5
 5430 2674 0A40     		and	r2, r2, r1
 5431 2676 1901     		lsl	r1, r3, #4
 5432 2678 0A43     		orr	r2, r2, r1
 5433 267a 3270     		strb	r2, [r6]
 5434 267c 0124     		mov	r4, #1
 5435 267e 6246     		mov	r2, ip
 5436 2680 A243     		bic	r2, r2, r4
 5437 2682 0021     		mov	r1, #0
 5438 2684 0F2B     		cmp	r3, #15
 5439 2686 00D8     		bhi	.L320
 5440 2688 0121     		mov	r1, #1
ARM GAS  /cygdrive/c/Users/Zbyszko/AppData/Local/Temp/cc6jOyxc.s 			page 104


 5441              	.L320:
 5442 268a 131C     		mov	r3, r2
 5443 268c 0B43     		orr	r3, r3, r1
 5444 268e 7370     		strb	r3, [r6, #1]
 5445 2690 00F0B7FD 		bl	.L146	@ far jump
 5446              	.LVL227:
 5447              	.L314:
 5448 2694 0122     		mov	r2, #1
 5449 2696 2A40     		and	r2, r2, r5
 5450              	.LVL228:
 5451 2698 231A     		sub	r3, r4, r0
 5452 269a 9B1A     		sub	r3, r3, r2
 5453 269c AC4A     		ldr	r2, .L392+4
 5454 269e 1B04     		lsl	r3, r3, #16
 5455              	.LVL229:
 5456 26a0 2A40     		and	r2, r2, r5
 5457 26a2 1B0C     		lsr	r3, r3, #16
 5458 26a4 151C     		mov	r5, r2
 5459 26a6 1D43     		orr	r5, r5, r3
 5460 26a8 6746     		mov	r7, ip
 5461              	.LVL230:
 5462 26aa 3C23     		mov	r3, #60
 5463 26ac 1F40     		and	r7, r7, r3
 5464 26ae 2B06     		lsl	r3, r5, #24
 5465 26b0 190E     		lsr	r1, r3, #24
 5466 26b2 221C     		mov	r2, r4
 5467 26b4 231C     		mov	r3, r4
 5468 26b6 4340     		eor	r3, r3, r0
 5469 26b8 4A40     		eor	r2, r2, r1
 5470 26ba 1340     		and	r3, r3, r2
 5471 26bc 1B06     		lsl	r3, r3, #24
 5472 26be 7770     		strb	r7, [r6, #1]
 5473 26c0 002B     		cmp	r3, #0
 5474 26c2 01DA     		bge	.L321
 5475 26c4 4022     		mov	r2, #64
 5476 26c6 00E0     		b	.L323
 5477              	.L321:
 5478 26c8 0022     		mov	r2, #0
 5479              	.L323:
 5480 26ca 2B04     		lsl	r3, r5, #16
 5481 26cc 1B0E     		lsr	r3, r3, #24
 5482 26ce A148     		ldr	r0, .L392+8
 5483              	.LVL231:
 5484 26d0 0024     		mov	r4, #0
 5485 26d2 002B     		cmp	r3, #0
 5486 26d4 00D1     		bne	.L324
 5487 26d6 0124     		mov	r4, #1
 5488              	.L324:
 5489 26d8 435C     		ldrb	r3, [r0, r1]
 5490 26da 3A43     		orr	r2, r2, r7
 5491 26dc 2343     		orr	r3, r3, r4
 5492 26de 1343     		orr	r3, r3, r2
 5493 26e0 7370     		strb	r3, [r6, #1]
 5494 26e2 3170     		strb	r1, [r6]
 5495 26e4 00F08DFD 		bl	.L146	@ far jump
 5496              	.LVL232:
 5497              	.L157:
ARM GAS  /cygdrive/c/Users/Zbyszko/AppData/Local/Temp/cc6jOyxc.s 			page 105


 205:Codes.h       **** case 0xFE: MM_Ax(M_INC);break;            /* INC $ssss,x ABS,x */
 5498              		.loc 2 205 0
 5499 26e8 3089     		ldrh	r0, [r6, #8]
 5500 26ea 431C     		add	r3, r0, #1
 5501 26ec 3381     		strh	r3, [r6, #8]
 5502 26ee FFF7FEFF 		bl	Rd6502
 5503 26f2 FF23     		mov	r3, #255
 5504              	.LVL233:
 5505 26f4 391C     		mov	r1, r7
 5506 26f6 9943     		bic	r1, r1, r3
 5507 26f8 0F1C     		mov	r7, r1
 5508 26fa 0743     		orr	r7, r7, r0
 5509 26fc 3089     		ldrh	r0, [r6, #8]
 5510 26fe 431C     		add	r3, r0, #1
 5511 2700 3381     		strh	r3, [r6, #8]
 5512 2702 FFF7FEFF 		bl	Rd6502
 5513 2706 914B     		ldr	r3, .L392
 5514 2708 3B40     		and	r3, r3, r7
 5515 270a 1F1C     		mov	r7, r3
 5516 270c B478     		ldrb	r4, [r6, #2]
 5517 270e 0002     		lsl	r0, r0, #8
 5518 2710 0743     		orr	r7, r7, r0
 5519 2712 E419     		add	r4, r4, r7
 5520 2714 2404     		lsl	r4, r4, #16
 5521 2716 240C     		lsr	r4, r4, #16
 5522 2718 201C     		mov	r0, r4
 5523 271a FFF7FEFF 		bl	Rd6502
 5524 271e 7378     		ldrb	r3, [r6, #1]
 5525 2720 011C     		mov	r1, r0
 5526 2722 7D22     		mov	r2, #125
 5527 2724 0131     		add	r1, r1, #1
 5528 2726 1340     		and	r3, r3, r2
 5529 2728 0906     		lsl	r1, r1, #24
 5530 272a 8A4A     		ldr	r2, .L392+8
 5531 272c 090E     		lsr	r1, r1, #24
 5532 272e 525C     		ldrb	r2, [r2, r1]
 5533 2730 1343     		orr	r3, r3, r2
 5534 2732 7370     		strb	r3, [r6, #1]
 5535 2734 201C     		mov	r0, r4
 5536 2736 FFF7FEFF 		bl	Wr6502
 5537 273a 00F062FD 		bl	.L146	@ far jump
 5538              	.LVL234:
 5539              	.L8:
 206:Codes.h       **** 
 207:Codes.h       **** case 0x01: MR_Ix(I);M_ORA(I);break;       /* ORA ($ss,x) INDEXINDIR */
 5540              		.loc 2 207 0
 5541 273e 3089     		ldrh	r0, [r6, #8]
 5542 2740 431C     		add	r3, r0, #1
 5543 2742 3381     		strh	r3, [r6, #8]
 5544 2744 FFF7FEFF 		bl	Rd6502
 5545 2748 B378     		ldrb	r3, [r6, #2]
 5546 274a 8149     		ldr	r1, .L392+4
 5547 274c C018     		add	r0, r0, r3
 5548              	.LVL235:
 5549 274e 2B1C     		mov	r3, r5
 5550 2750 0B40     		and	r3, r3, r1
 5551 2752 0006     		lsl	r0, r0, #24
ARM GAS  /cygdrive/c/Users/Zbyszko/AppData/Local/Temp/cc6jOyxc.s 			page 106


 5552 2754 000E     		lsr	r0, r0, #24
 5553 2756 1D1C     		mov	r5, r3
 5554 2758 0543     		orr	r5, r5, r0
 5555 275a 2B1C     		mov	r3, r5
 5556 275c 0B40     		and	r3, r3, r1
 5557 275e 421C     		add	r2, r0, #1
 5558 2760 1D1C     		mov	r5, r3
 5559 2762 1543     		orr	r5, r5, r2
 5560 2764 FFF7FEFF 		bl	Rd6502
 5561 2768 FF23     		mov	r3, #255
 5562              	.LVL236:
 5563 276a 3A1C     		mov	r2, r7
 5564 276c 9A43     		bic	r2, r2, r3
 5565 276e 171C     		mov	r7, r2
 5566 2770 0743     		orr	r7, r7, r0
 5567 2772 2804     		lsl	r0, r5, #16
 5568 2774 000C     		lsr	r0, r0, #16
 5569 2776 FFF7FEFF 		bl	Rd6502
 5570 277a 744B     		ldr	r3, .L392
 5571 277c 3B40     		and	r3, r3, r7
 5572 277e 1F1C     		mov	r7, r3
 5573 2780 0002     		lsl	r0, r0, #8
 5574 2782 0743     		orr	r7, r7, r0
 5575 2784 3804     		lsl	r0, r7, #16
 5576 2786 000C     		lsr	r0, r0, #16
 5577 2788 FFF7FEFF 		bl	Rd6502
 5578 278c 3378     		ldrb	r3, [r6]
 5579 278e 0343     		orr	r3, r3, r0
 5580 2790 7278     		ldrb	r2, [r6, #1]
 5581 2792 1B06     		lsl	r3, r3, #24
 5582 2794 1B0E     		lsr	r3, r3, #24
 5583 2796 7D21     		mov	r1, #125
 5584 2798 0A40     		and	r2, r2, r1
 5585 279a 3370     		strb	r3, [r6]
 5586 279c 6D49     		ldr	r1, .L392+8
 5587 279e CB5C     		ldrb	r3, [r1, r3]
 5588 27a0 1A43     		orr	r2, r2, r3
 5589 27a2 7270     		strb	r2, [r6, #1]
 5590 27a4 00F02DFD 		bl	.L146	@ far jump
 5591              	.LVL237:
 5592              	.L17:
 208:Codes.h       **** case 0x11: MR_Iy(I);M_ORA(I);break;       /* ORA ($ss),y INDIRINDEX */
 5593              		.loc 2 208 0
 5594 27a8 3089     		ldrh	r0, [r6, #8]
 5595 27aa 431C     		add	r3, r0, #1
 5596 27ac 3381     		strh	r3, [r6, #8]
 5597 27ae FFF7FEFF 		bl	Rd6502
 5598 27b2 674A     		ldr	r2, .L392+4
 5599              	.LVL238:
 5600 27b4 2B1C     		mov	r3, r5
 5601 27b6 1340     		and	r3, r3, r2
 5602 27b8 0004     		lsl	r0, r0, #16
 5603 27ba 000C     		lsr	r0, r0, #16
 5604 27bc 1D1C     		mov	r5, r3
 5605 27be 0543     		orr	r5, r5, r0
 5606 27c0 431C     		add	r3, r0, #1
 5607 27c2 2A40     		and	r2, r2, r5
ARM GAS  /cygdrive/c/Users/Zbyszko/AppData/Local/Temp/cc6jOyxc.s 			page 107


 5608 27c4 1B04     		lsl	r3, r3, #16
 5609 27c6 151C     		mov	r5, r2
 5610 27c8 1B0C     		lsr	r3, r3, #16
 5611 27ca 1D43     		orr	r5, r5, r3
 5612 27cc FFF7FEFF 		bl	Rd6502
 5613              	.LVL239:
 5614 27d0 3C1C     		mov	r4, r7
 5615 27d2 FF23     		mov	r3, #255
 5616 27d4 9C43     		bic	r4, r4, r3
 5617 27d6 271C     		mov	r7, r4
 5618 27d8 0743     		orr	r7, r7, r0
 5619 27da 2804     		lsl	r0, r5, #16
 5620 27dc 000C     		lsr	r0, r0, #16
 5621 27de FFF7FEFF 		bl	Rd6502
 5622 27e2 5A4B     		ldr	r3, .L392
 5623 27e4 3B40     		and	r3, r3, r7
 5624 27e6 1F1C     		mov	r7, r3
 5625 27e8 0002     		lsl	r0, r0, #8
 5626 27ea 0743     		orr	r7, r7, r0
 5627 27ec F078     		ldrb	r0, [r6, #3]
 5628 27ee C019     		add	r0, r0, r7
 5629 27f0 0004     		lsl	r0, r0, #16
 5630 27f2 000C     		lsr	r0, r0, #16
 5631 27f4 FFF7FEFF 		bl	Rd6502
 5632 27f8 3378     		ldrb	r3, [r6]
 5633 27fa 0343     		orr	r3, r3, r0
 5634 27fc 7278     		ldrb	r2, [r6, #1]
 5635 27fe 1B06     		lsl	r3, r3, #24
 5636 2800 1B0E     		lsr	r3, r3, #24
 5637 2802 7D21     		mov	r1, #125
 5638 2804 0A40     		and	r2, r2, r1
 5639 2806 3370     		strb	r3, [r6]
 5640 2808 5249     		ldr	r1, .L392+8
 5641 280a CB5C     		ldrb	r3, [r1, r3]
 5642 280c 1A43     		orr	r2, r2, r3
 5643 280e 7270     		strb	r2, [r6, #1]
 5644 2810 00F0F7FC 		bl	.L146	@ far jump
 5645              	.LVL240:
 5646              	.L25:
 209:Codes.h       **** case 0x21: MR_Ix(I);M_AND(I);break;       /* AND ($ss,x) INDEXINDIR */
 5647              		.loc 2 209 0
 5648 2814 3089     		ldrh	r0, [r6, #8]
 5649 2816 431C     		add	r3, r0, #1
 5650 2818 3381     		strh	r3, [r6, #8]
 5651 281a FFF7FEFF 		bl	Rd6502
 5652 281e B378     		ldrb	r3, [r6, #2]
 5653 2820 4B49     		ldr	r1, .L392+4
 5654 2822 C018     		add	r0, r0, r3
 5655              	.LVL241:
 5656 2824 2B1C     		mov	r3, r5
 5657 2826 0B40     		and	r3, r3, r1
 5658 2828 0006     		lsl	r0, r0, #24
 5659 282a 000E     		lsr	r0, r0, #24
 5660 282c 1D1C     		mov	r5, r3
 5661 282e 0543     		orr	r5, r5, r0
 5662 2830 2B1C     		mov	r3, r5
 5663 2832 0B40     		and	r3, r3, r1
ARM GAS  /cygdrive/c/Users/Zbyszko/AppData/Local/Temp/cc6jOyxc.s 			page 108


 5664 2834 421C     		add	r2, r0, #1
 5665 2836 1D1C     		mov	r5, r3
 5666 2838 1543     		orr	r5, r5, r2
 5667 283a FFF7FEFF 		bl	Rd6502
 5668 283e FF23     		mov	r3, #255
 5669              	.LVL242:
 5670 2840 391C     		mov	r1, r7
 5671 2842 9943     		bic	r1, r1, r3
 5672 2844 0F1C     		mov	r7, r1
 5673 2846 0743     		orr	r7, r7, r0
 5674 2848 2804     		lsl	r0, r5, #16
 5675 284a 000C     		lsr	r0, r0, #16
 5676 284c FFF7FEFF 		bl	Rd6502
 5677 2850 3E4B     		ldr	r3, .L392
 5678 2852 3B40     		and	r3, r3, r7
 5679 2854 1F1C     		mov	r7, r3
 5680 2856 0002     		lsl	r0, r0, #8
 5681 2858 0743     		orr	r7, r7, r0
 5682 285a 3804     		lsl	r0, r7, #16
 5683 285c 000C     		lsr	r0, r0, #16
 5684 285e FFF7FEFF 		bl	Rd6502
 5685 2862 3178     		ldrb	r1, [r6]
 5686 2864 7378     		ldrb	r3, [r6, #1]
 5687 2866 0140     		and	r1, r1, r0
 5688 2868 7D22     		mov	r2, #125
 5689 286a 1340     		and	r3, r3, r2
 5690 286c 3170     		strb	r1, [r6]
 5691 286e 394A     		ldr	r2, .L392+8
 5692 2870 525C     		ldrb	r2, [r2, r1]
 5693 2872 1343     		orr	r3, r3, r2
 5694 2874 7370     		strb	r3, [r6, #1]
 5695 2876 00F0C4FC 		bl	.L146	@ far jump
 5696              	.LVL243:
 5697              	.L36:
 210:Codes.h       **** case 0x31: MR_Iy(I);M_AND(I);break;       /* AND ($ss),y INDIRINDEX */
 5698              		.loc 2 210 0
 5699 287a 3089     		ldrh	r0, [r6, #8]
 5700 287c 431C     		add	r3, r0, #1
 5701 287e 3381     		strh	r3, [r6, #8]
 5702 2880 FFF7FEFF 		bl	Rd6502
 5703 2884 324A     		ldr	r2, .L392+4
 5704              	.LVL244:
 5705 2886 2B1C     		mov	r3, r5
 5706 2888 1340     		and	r3, r3, r2
 5707 288a 0004     		lsl	r0, r0, #16
 5708 288c 000C     		lsr	r0, r0, #16
 5709 288e 1D1C     		mov	r5, r3
 5710 2890 0543     		orr	r5, r5, r0
 5711 2892 431C     		add	r3, r0, #1
 5712 2894 2A40     		and	r2, r2, r5
 5713 2896 1B04     		lsl	r3, r3, #16
 5714 2898 1B0C     		lsr	r3, r3, #16
 5715 289a 151C     		mov	r5, r2
 5716 289c 1D43     		orr	r5, r5, r3
 5717 289e FFF7FEFF 		bl	Rd6502
 5718 28a2 FF23     		mov	r3, #255
 5719              	.LVL245:
ARM GAS  /cygdrive/c/Users/Zbyszko/AppData/Local/Temp/cc6jOyxc.s 			page 109


 5720 28a4 3A1C     		mov	r2, r7
 5721 28a6 9A43     		bic	r2, r2, r3
 5722 28a8 171C     		mov	r7, r2
 5723 28aa 0743     		orr	r7, r7, r0
 5724 28ac 2804     		lsl	r0, r5, #16
 5725 28ae 000C     		lsr	r0, r0, #16
 5726 28b0 FFF7FEFF 		bl	Rd6502
 5727 28b4 254B     		ldr	r3, .L392
 5728 28b6 3B40     		and	r3, r3, r7
 5729 28b8 1F1C     		mov	r7, r3
 5730 28ba 0002     		lsl	r0, r0, #8
 5731 28bc 0743     		orr	r7, r7, r0
 5732 28be F078     		ldrb	r0, [r6, #3]
 5733 28c0 C019     		add	r0, r0, r7
 5734 28c2 0004     		lsl	r0, r0, #16
 5735 28c4 000C     		lsr	r0, r0, #16
 5736 28c6 FFF7FEFF 		bl	Rd6502
 5737 28ca 3178     		ldrb	r1, [r6]
 5738 28cc 7378     		ldrb	r3, [r6, #1]
 5739 28ce 0140     		and	r1, r1, r0
 5740 28d0 7D22     		mov	r2, #125
 5741 28d2 1340     		and	r3, r3, r2
 5742 28d4 3170     		strb	r1, [r6]
 5743 28d6 1F4A     		ldr	r2, .L392+8
 5744 28d8 525C     		ldrb	r2, [r2, r1]
 5745 28da 1343     		orr	r3, r3, r2
 5746 28dc 7370     		strb	r3, [r6, #1]
 5747 28de 00F090FC 		bl	.L146	@ far jump
 5748              	.LVL246:
 5749              	.L44:
 211:Codes.h       **** case 0x41: MR_Ix(I);M_EOR(I);break;       /* EOR ($ss,x) INDEXINDIR */
 5750              		.loc 2 211 0
 5751 28e2 3089     		ldrh	r0, [r6, #8]
 5752 28e4 431C     		add	r3, r0, #1
 5753 28e6 3381     		strh	r3, [r6, #8]
 5754 28e8 FFF7FEFF 		bl	Rd6502
 5755 28ec B378     		ldrb	r3, [r6, #2]
 5756 28ee 1849     		ldr	r1, .L392+4
 5757 28f0 C018     		add	r0, r0, r3
 5758              	.LVL247:
 5759 28f2 2B1C     		mov	r3, r5
 5760 28f4 0B40     		and	r3, r3, r1
 5761 28f6 0006     		lsl	r0, r0, #24
 5762 28f8 000E     		lsr	r0, r0, #24
 5763 28fa 1D1C     		mov	r5, r3
 5764 28fc 0543     		orr	r5, r5, r0
 5765 28fe 2B1C     		mov	r3, r5
 5766 2900 0B40     		and	r3, r3, r1
 5767 2902 421C     		add	r2, r0, #1
 5768 2904 1D1C     		mov	r5, r3
 5769 2906 1543     		orr	r5, r5, r2
 5770 2908 FFF7FEFF 		bl	Rd6502
 5771              	.LVL248:
 5772 290c 3C1C     		mov	r4, r7
 5773 290e FF23     		mov	r3, #255
 5774 2910 9C43     		bic	r4, r4, r3
 5775 2912 271C     		mov	r7, r4
ARM GAS  /cygdrive/c/Users/Zbyszko/AppData/Local/Temp/cc6jOyxc.s 			page 110


 5776 2914 0743     		orr	r7, r7, r0
 5777 2916 2804     		lsl	r0, r5, #16
 5778 2918 000C     		lsr	r0, r0, #16
 5779 291a FFF7FEFF 		bl	Rd6502
 5780 291e 0B4B     		ldr	r3, .L392
 5781 2920 3B40     		and	r3, r3, r7
 5782 2922 1F1C     		mov	r7, r3
 5783 2924 0002     		lsl	r0, r0, #8
 5784 2926 0743     		orr	r7, r7, r0
 5785 2928 3804     		lsl	r0, r7, #16
 5786 292a 000C     		lsr	r0, r0, #16
 5787 292c FFF7FEFF 		bl	Rd6502
 5788 2930 3378     		ldrb	r3, [r6]
 5789 2932 4340     		eor	r3, r3, r0
 5790 2934 7278     		ldrb	r2, [r6, #1]
 5791 2936 1B06     		lsl	r3, r3, #24
 5792 2938 1B0E     		lsr	r3, r3, #24
 5793 293a 7D21     		mov	r1, #125
 5794 293c 0A40     		and	r2, r2, r1
 5795 293e 3370     		strb	r3, [r6]
 5796 2940 0449     		ldr	r1, .L392+8
 5797 2942 CB5C     		ldrb	r3, [r1, r3]
 5798 2944 1A43     		orr	r2, r2, r3
 5799 2946 7270     		strb	r2, [r6, #1]
 5800 2948 00F05BFC 		bl	.L146	@ far jump
 5801              	.L393:
 5802              		.align	2
 5803              	.L392:
 5804 294c FF00FFFF 		.word	-65281
 5805 2950 0000FFFF 		.word	-65536
 5806 2954 00000000 		.word	ZNTable
 5807              	.LVL249:
 5808              	.L54:
 212:Codes.h       **** case 0x51: MR_Iy(I);M_EOR(I);break;       /* EOR ($ss),y INDIRINDEX */
 5809              		.loc 2 212 0
 5810 2958 3089     		ldrh	r0, [r6, #8]
 5811 295a 431C     		add	r3, r0, #1
 5812 295c 3381     		strh	r3, [r6, #8]
 5813 295e FFF7FEFF 		bl	Rd6502
 5814 2962 EB4A     		ldr	r2, .L394
 5815              	.LVL250:
 5816 2964 2B1C     		mov	r3, r5
 5817 2966 1340     		and	r3, r3, r2
 5818 2968 0004     		lsl	r0, r0, #16
 5819 296a 000C     		lsr	r0, r0, #16
 5820 296c 1D1C     		mov	r5, r3
 5821 296e 0543     		orr	r5, r5, r0
 5822 2970 431C     		add	r3, r0, #1
 5823 2972 2A40     		and	r2, r2, r5
 5824 2974 1B04     		lsl	r3, r3, #16
 5825 2976 151C     		mov	r5, r2
 5826 2978 1B0C     		lsr	r3, r3, #16
 5827 297a 1D43     		orr	r5, r5, r3
 5828 297c FFF7FEFF 		bl	Rd6502
 5829 2980 FF23     		mov	r3, #255
 5830              	.LVL251:
 5831 2982 391C     		mov	r1, r7
ARM GAS  /cygdrive/c/Users/Zbyszko/AppData/Local/Temp/cc6jOyxc.s 			page 111


 5832 2984 9943     		bic	r1, r1, r3
 5833 2986 0F1C     		mov	r7, r1
 5834 2988 0743     		orr	r7, r7, r0
 5835 298a 2804     		lsl	r0, r5, #16
 5836 298c 000C     		lsr	r0, r0, #16
 5837 298e FFF7FEFF 		bl	Rd6502
 5838 2992 E04B     		ldr	r3, .L394+4
 5839 2994 3B40     		and	r3, r3, r7
 5840 2996 1F1C     		mov	r7, r3
 5841 2998 0002     		lsl	r0, r0, #8
 5842 299a 0743     		orr	r7, r7, r0
 5843 299c F078     		ldrb	r0, [r6, #3]
 5844 299e C019     		add	r0, r0, r7
 5845 29a0 0004     		lsl	r0, r0, #16
 5846 29a2 000C     		lsr	r0, r0, #16
 5847 29a4 FFF7FEFF 		bl	Rd6502
 5848 29a8 3378     		ldrb	r3, [r6]
 5849 29aa 4340     		eor	r3, r3, r0
 5850 29ac 7278     		ldrb	r2, [r6, #1]
 5851 29ae 1B06     		lsl	r3, r3, #24
 5852 29b0 1B0E     		lsr	r3, r3, #24
 5853 29b2 7D21     		mov	r1, #125
 5854 29b4 0A40     		and	r2, r2, r1
 5855 29b6 3370     		strb	r3, [r6]
 5856 29b8 D749     		ldr	r1, .L394+8
 5857 29ba CB5C     		ldrb	r3, [r1, r3]
 5858 29bc 1A43     		orr	r2, r2, r3
 5859 29be 7270     		strb	r2, [r6, #1]
 5860 29c0 00F01FFC 		bl	.L146	@ far jump
 5861              	.LVL252:
 5862              	.L62:
 213:Codes.h       **** case 0x61: MR_Ix(I);M_ADC(I);break;       /* ADC ($ss,x) INDEXINDIR */
 5863              		.loc 2 213 0
 5864 29c4 3089     		ldrh	r0, [r6, #8]
 5865 29c6 431C     		add	r3, r0, #1
 5866 29c8 3381     		strh	r3, [r6, #8]
 5867 29ca FFF7FEFF 		bl	Rd6502
 5868 29ce B378     		ldrb	r3, [r6, #2]
 5869 29d0 C018     		add	r0, r0, r3
 5870 29d2 CF4B     		ldr	r3, .L394
 5871 29d4 0006     		lsl	r0, r0, #24
 5872              	.LVL253:
 5873 29d6 2B40     		and	r3, r3, r5
 5874 29d8 000E     		lsr	r0, r0, #24
 5875 29da 1D1C     		mov	r5, r3
 5876 29dc CC4B     		ldr	r3, .L394
 5877 29de 0543     		orr	r5, r5, r0
 5878 29e0 2B40     		and	r3, r3, r5
 5879 29e2 421C     		add	r2, r0, #1
 5880 29e4 1D1C     		mov	r5, r3
 5881 29e6 1543     		orr	r5, r5, r2
 5882 29e8 FFF7FEFF 		bl	Rd6502
 5883 29ec FF22     		mov	r2, #255
 5884              	.LVL254:
 5885 29ee 3B1C     		mov	r3, r7
 5886 29f0 9343     		bic	r3, r3, r2
 5887 29f2 1F1C     		mov	r7, r3
ARM GAS  /cygdrive/c/Users/Zbyszko/AppData/Local/Temp/cc6jOyxc.s 			page 112


 5888 29f4 0743     		orr	r7, r7, r0
 5889 29f6 2804     		lsl	r0, r5, #16
 5890 29f8 000C     		lsr	r0, r0, #16
 5891 29fa FFF7FEFF 		bl	Rd6502
 5892 29fe C54B     		ldr	r3, .L394+4
 5893 2a00 3B40     		and	r3, r3, r7
 5894 2a02 0002     		lsl	r0, r0, #8
 5895 2a04 1F1C     		mov	r7, r3
 5896 2a06 0743     		orr	r7, r7, r0
 5897 2a08 3804     		lsl	r0, r7, #16
 5898 2a0a 000C     		lsr	r0, r0, #16
 5899 2a0c FFF7FEFF 		bl	Rd6502
 5900 2a10 7778     		ldrb	r7, [r6, #1]
 5901              	.LVL255:
 5902 2a12 3478     		ldrb	r4, [r6]
 5903 2a14 3B07     		lsl	r3, r7, #28
 5904 2a16 39D5     		bpl	.L325
 5905 2a18 0F21     		mov	r1, #15
 5906 2a1a 8C46     		mov	ip, r1
 5907 2a1c 6346     		mov	r3, ip
 5908 2a1e 0122     		mov	r2, #1
 5909 2a20 3A40     		and	r2, r2, r7
 5910 2a22 2340     		and	r3, r3, r4
 5911 2a24 9B18     		add	r3, r3, r2
 5912              	.LVL256:
 5913 2a26 0140     		and	r1, r1, r0
 5914 2a28 C918     		add	r1, r1, r3
 5915 2a2a FF22     		mov	r2, #255
 5916 2a2c 2B1C     		mov	r3, r5
 5917 2a2e 9343     		bic	r3, r3, r2
 5918 2a30 1D1C     		mov	r5, r3
 5919 2a32 0D43     		orr	r5, r5, r1
 5920 2a34 2B06     		lsl	r3, r5, #24
 5921 2a36 1B0E     		lsr	r3, r3, #24
 5922 2a38 092B     		cmp	r3, #9
 5923 2a3a 07D9     		bls	.L327
 5924 2a3c 2A1C     		mov	r2, r5
 5925 2a3e 0633     		add	r3, r3, #6
 5926 2a40 FF21     		mov	r1, #255
 5927 2a42 1B06     		lsl	r3, r3, #24
 5928 2a44 8A43     		bic	r2, r2, r1
 5929 2a46 1B0E     		lsr	r3, r3, #24
 5930 2a48 151C     		mov	r5, r2
 5931 2a4a 1D43     		orr	r5, r5, r3
 5932              	.L327:
 5933 2a4c 2B06     		lsl	r3, r5, #24
 5934 2a4e 1B0E     		lsr	r3, r3, #24
 5935 2a50 2209     		lsr	r2, r4, #4
 5936 2a52 0009     		lsr	r0, r0, #4
 5937              	.LVL257:
 5938 2a54 0024     		mov	r4, #0
 5939 2a56 0F2B     		cmp	r3, #15
 5940 2a58 00D9     		bls	.L329
 5941 2a5a 0124     		mov	r4, #1
 5942              	.L329:
 5943 2a5c 1219     		add	r2, r2, r4
 5944 2a5e 8218     		add	r2, r0, r2
ARM GAS  /cygdrive/c/Users/Zbyszko/AppData/Local/Temp/cc6jOyxc.s 			page 113


 5945 2a60 AC4B     		ldr	r3, .L394+4
 5946 2a62 1206     		lsl	r2, r2, #24
 5947 2a64 120E     		lsr	r2, r2, #24
 5948 2a66 2B40     		and	r3, r3, r5
 5949 2a68 1102     		lsl	r1, r2, #8
 5950 2a6a 1D1C     		mov	r5, r3
 5951 2a6c 0D43     		orr	r5, r5, r1
 5952 2a6e 6346     		mov	r3, ip
 5953 2a70 1101     		lsl	r1, r2, #4
 5954 2a72 2B40     		and	r3, r3, r5
 5955 2a74 0B43     		orr	r3, r3, r1
 5956 2a76 3370     		strb	r3, [r6]
 5957 2a78 0124     		mov	r4, #1
 5958 2a7a 3B1C     		mov	r3, r7
 5959 2a7c A343     		bic	r3, r3, r4
 5960 2a7e 0021     		mov	r1, #0
 5961 2a80 0F2A     		cmp	r2, #15
 5962 2a82 00D9     		bls	.L330
 5963 2a84 0121     		mov	r1, #1
 5964              	.L330:
 5965 2a86 0B43     		orr	r3, r3, r1
 5966 2a88 7370     		strb	r3, [r6, #1]
 5967 2a8a BAE3     		b	.L146
 5968              	.L325:
 5969 2a8c 0123     		mov	r3, #1
 5970 2a8e 3B40     		and	r3, r3, r7
 5971 2a90 E318     		add	r3, r4, r3
 5972 2a92 9F4A     		ldr	r2, .L394
 5973              	.LVL258:
 5974 2a94 C318     		add	r3, r0, r3
 5975 2a96 2A40     		and	r2, r2, r5
 5976 2a98 1B04     		lsl	r3, r3, #16
 5977 2a9a 1B0C     		lsr	r3, r3, #16
 5978 2a9c 151C     		mov	r5, r2
 5979 2a9e 1D43     		orr	r5, r5, r3
 5980 2aa0 3C23     		mov	r3, #60
 5981 2aa2 1F40     		and	r7, r7, r3
 5982 2aa4 221C     		mov	r2, r4
 5983 2aa6 2B06     		lsl	r3, r5, #24
 5984 2aa8 BC46     		mov	ip, r7
 5985 2aaa 7770     		strb	r7, [r6, #1]
 5986 2aac 4240     		eor	r2, r2, r0
 5987 2aae 1F0E     		lsr	r7, r3, #24
 5988 2ab0 231C     		mov	r3, r4
 5989 2ab2 1206     		lsl	r2, r2, #24
 5990 2ab4 7B40     		eor	r3, r3, r7
 5991 2ab6 8021     		mov	r1, #128
 5992 2ab8 120E     		lsr	r2, r2, #24
 5993 2aba 0B40     		and	r3, r3, r1
 5994 2abc 9343     		bic	r3, r2
 5995 2abe 01D0     		beq	.L331
 5996 2ac0 4022     		mov	r2, #64
 5997 2ac2 00E0     		b	.L333
 5998              	.L331:
 5999 2ac4 0022     		mov	r2, #0
 6000              	.L333:
 6001 2ac6 2B04     		lsl	r3, r5, #16
ARM GAS  /cygdrive/c/Users/Zbyszko/AppData/Local/Temp/cc6jOyxc.s 			page 114


 6002 2ac8 1B0E     		lsr	r3, r3, #24
 6003 2aca 9349     		ldr	r1, .L394+8
 6004 2acc 0020     		mov	r0, #0
 6005              	.LVL259:
 6006 2ace 002B     		cmp	r3, #0
 6007 2ad0 00D0     		beq	.L334
 6008 2ad2 0120     		mov	r0, #1
 6009              	.L334:
 6010 2ad4 CB5D     		ldrb	r3, [r1, r7]
 6011 2ad6 6146     		mov	r1, ip
 6012 2ad8 0343     		orr	r3, r3, r0
 6013 2ada 0A43     		orr	r2, r2, r1
 6014 2adc 1343     		orr	r3, r3, r2
 6015 2ade 7370     		strb	r3, [r6, #1]
 6016 2ae0 3770     		strb	r7, [r6]
 6017 2ae2 8EE3     		b	.L146
 6018              	.LVL260:
 6019              	.L72:
 214:Codes.h       **** case 0x71: MR_Iy(I);M_ADC(I);break;       /* ADC ($ss),y INDIRINDEX */
 6020              		.loc 2 214 0
 6021 2ae4 3089     		ldrh	r0, [r6, #8]
 6022 2ae6 431C     		add	r3, r0, #1
 6023 2ae8 3381     		strh	r3, [r6, #8]
 6024 2aea FFF7FEFF 		bl	Rd6502
 6025 2aee 884B     		ldr	r3, .L394
 6026 2af0 0004     		lsl	r0, r0, #16
 6027              	.LVL261:
 6028 2af2 2B40     		and	r3, r3, r5
 6029 2af4 000C     		lsr	r0, r0, #16
 6030 2af6 1D1C     		mov	r5, r3
 6031 2af8 854A     		ldr	r2, .L394
 6032 2afa 0543     		orr	r5, r5, r0
 6033 2afc 431C     		add	r3, r0, #1
 6034 2afe 2A40     		and	r2, r2, r5
 6035 2b00 1B04     		lsl	r3, r3, #16
 6036 2b02 1B0C     		lsr	r3, r3, #16
 6037 2b04 151C     		mov	r5, r2
 6038 2b06 1D43     		orr	r5, r5, r3
 6039 2b08 FFF7FEFF 		bl	Rd6502
 6040 2b0c FF22     		mov	r2, #255
 6041              	.LVL262:
 6042 2b0e 3B1C     		mov	r3, r7
 6043 2b10 9343     		bic	r3, r3, r2
 6044 2b12 1F1C     		mov	r7, r3
 6045 2b14 0743     		orr	r7, r7, r0
 6046 2b16 2804     		lsl	r0, r5, #16
 6047 2b18 000C     		lsr	r0, r0, #16
 6048 2b1a FFF7FEFF 		bl	Rd6502
 6049 2b1e 7D4B     		ldr	r3, .L394+4
 6050 2b20 3B40     		and	r3, r3, r7
 6051 2b22 0002     		lsl	r0, r0, #8
 6052 2b24 1F1C     		mov	r7, r3
 6053 2b26 0743     		orr	r7, r7, r0
 6054 2b28 F078     		ldrb	r0, [r6, #3]
 6055 2b2a C019     		add	r0, r0, r7
 6056 2b2c 0004     		lsl	r0, r0, #16
 6057 2b2e 000C     		lsr	r0, r0, #16
ARM GAS  /cygdrive/c/Users/Zbyszko/AppData/Local/Temp/cc6jOyxc.s 			page 115


 6058 2b30 FFF7FEFF 		bl	Rd6502
 6059 2b34 7778     		ldrb	r7, [r6, #1]
 6060              	.LVL263:
 6061 2b36 3478     		ldrb	r4, [r6]
 6062 2b38 3B07     		lsl	r3, r7, #28
 6063 2b3a 39D5     		bpl	.L335
 6064 2b3c 0F21     		mov	r1, #15
 6065 2b3e 8C46     		mov	ip, r1
 6066 2b40 6346     		mov	r3, ip
 6067 2b42 0122     		mov	r2, #1
 6068 2b44 3A40     		and	r2, r2, r7
 6069 2b46 2340     		and	r3, r3, r4
 6070 2b48 9B18     		add	r3, r3, r2
 6071              	.LVL264:
 6072 2b4a 0140     		and	r1, r1, r0
 6073 2b4c C918     		add	r1, r1, r3
 6074 2b4e FF22     		mov	r2, #255
 6075 2b50 2B1C     		mov	r3, r5
 6076 2b52 9343     		bic	r3, r3, r2
 6077 2b54 1D1C     		mov	r5, r3
 6078 2b56 0D43     		orr	r5, r5, r1
 6079 2b58 2B06     		lsl	r3, r5, #24
 6080 2b5a 1B0E     		lsr	r3, r3, #24
 6081 2b5c 092B     		cmp	r3, #9
 6082 2b5e 07D9     		bls	.L337
 6083 2b60 2A1C     		mov	r2, r5
 6084 2b62 0633     		add	r3, r3, #6
 6085 2b64 FF21     		mov	r1, #255
 6086 2b66 1B06     		lsl	r3, r3, #24
 6087 2b68 8A43     		bic	r2, r2, r1
 6088 2b6a 1B0E     		lsr	r3, r3, #24
 6089 2b6c 151C     		mov	r5, r2
 6090 2b6e 1D43     		orr	r5, r5, r3
 6091              	.L337:
 6092 2b70 2B06     		lsl	r3, r5, #24
 6093 2b72 1B0E     		lsr	r3, r3, #24
 6094 2b74 2209     		lsr	r2, r4, #4
 6095 2b76 0009     		lsr	r0, r0, #4
 6096              	.LVL265:
 6097 2b78 0024     		mov	r4, #0
 6098 2b7a 0F2B     		cmp	r3, #15
 6099 2b7c 00D9     		bls	.L339
 6100 2b7e 0124     		mov	r4, #1
 6101              	.L339:
 6102 2b80 1219     		add	r2, r2, r4
 6103 2b82 8218     		add	r2, r0, r2
 6104 2b84 634B     		ldr	r3, .L394+4
 6105 2b86 1206     		lsl	r2, r2, #24
 6106 2b88 120E     		lsr	r2, r2, #24
 6107 2b8a 2B40     		and	r3, r3, r5
 6108 2b8c 1102     		lsl	r1, r2, #8
 6109 2b8e 1D1C     		mov	r5, r3
 6110 2b90 0D43     		orr	r5, r5, r1
 6111 2b92 6346     		mov	r3, ip
 6112 2b94 1101     		lsl	r1, r2, #4
 6113 2b96 2B40     		and	r3, r3, r5
 6114 2b98 0B43     		orr	r3, r3, r1
ARM GAS  /cygdrive/c/Users/Zbyszko/AppData/Local/Temp/cc6jOyxc.s 			page 116


 6115 2b9a 3370     		strb	r3, [r6]
 6116 2b9c 0124     		mov	r4, #1
 6117 2b9e 3B1C     		mov	r3, r7
 6118 2ba0 A343     		bic	r3, r3, r4
 6119 2ba2 0021     		mov	r1, #0
 6120 2ba4 0F2A     		cmp	r2, #15
 6121 2ba6 00D9     		bls	.L340
 6122 2ba8 0121     		mov	r1, #1
 6123              	.L340:
 6124 2baa 0B43     		orr	r3, r3, r1
 6125 2bac 7370     		strb	r3, [r6, #1]
 6126 2bae 28E3     		b	.L146
 6127              	.L335:
 6128 2bb0 0123     		mov	r3, #1
 6129 2bb2 3B40     		and	r3, r3, r7
 6130 2bb4 E318     		add	r3, r4, r3
 6131 2bb6 564A     		ldr	r2, .L394
 6132              	.LVL266:
 6133 2bb8 C318     		add	r3, r0, r3
 6134 2bba 2A40     		and	r2, r2, r5
 6135 2bbc 1B04     		lsl	r3, r3, #16
 6136 2bbe 1B0C     		lsr	r3, r3, #16
 6137 2bc0 151C     		mov	r5, r2
 6138 2bc2 1D43     		orr	r5, r5, r3
 6139 2bc4 3C23     		mov	r3, #60
 6140 2bc6 1F40     		and	r7, r7, r3
 6141 2bc8 221C     		mov	r2, r4
 6142 2bca 2B06     		lsl	r3, r5, #24
 6143 2bcc BC46     		mov	ip, r7
 6144 2bce 7770     		strb	r7, [r6, #1]
 6145 2bd0 4240     		eor	r2, r2, r0
 6146 2bd2 1F0E     		lsr	r7, r3, #24
 6147 2bd4 231C     		mov	r3, r4
 6148 2bd6 1206     		lsl	r2, r2, #24
 6149 2bd8 7B40     		eor	r3, r3, r7
 6150 2bda 8021     		mov	r1, #128
 6151 2bdc 120E     		lsr	r2, r2, #24
 6152 2bde 0B40     		and	r3, r3, r1
 6153 2be0 9343     		bic	r3, r2
 6154 2be2 01D0     		beq	.L341
 6155 2be4 4022     		mov	r2, #64
 6156 2be6 00E0     		b	.L343
 6157              	.L341:
 6158 2be8 0022     		mov	r2, #0
 6159              	.L343:
 6160 2bea 2B04     		lsl	r3, r5, #16
 6161 2bec 1B0E     		lsr	r3, r3, #24
 6162 2bee 4A49     		ldr	r1, .L394+8
 6163 2bf0 0020     		mov	r0, #0
 6164              	.LVL267:
 6165 2bf2 002B     		cmp	r3, #0
 6166 2bf4 00D0     		beq	.L344
 6167 2bf6 0120     		mov	r0, #1
 6168              	.L344:
 6169 2bf8 CB5D     		ldrb	r3, [r1, r7]
 6170 2bfa 6146     		mov	r1, ip
 6171 2bfc 0343     		orr	r3, r3, r0
ARM GAS  /cygdrive/c/Users/Zbyszko/AppData/Local/Temp/cc6jOyxc.s 			page 117


 6172 2bfe 0A43     		orr	r2, r2, r1
 6173 2c00 1343     		orr	r3, r3, r2
 6174 2c02 7370     		strb	r3, [r6, #1]
 6175 2c04 3770     		strb	r7, [r6]
 6176 2c06 FCE2     		b	.L146
 6177              	.LVL268:
 6178              	.L79:
 215:Codes.h       **** case 0x81: MW_Ix(R->A);break;             /* STA ($ss,x) INDEXINDIR */
 6179              		.loc 2 215 0
 6180 2c08 3089     		ldrh	r0, [r6, #8]
 6181 2c0a 431C     		add	r3, r0, #1
 6182 2c0c 3381     		strh	r3, [r6, #8]
 6183 2c0e FFF7FEFF 		bl	Rd6502
 6184 2c12 B378     		ldrb	r3, [r6, #2]
 6185 2c14 3E49     		ldr	r1, .L394
 6186 2c16 C018     		add	r0, r0, r3
 6187              	.LVL269:
 6188 2c18 2B1C     		mov	r3, r5
 6189 2c1a 0B40     		and	r3, r3, r1
 6190 2c1c 0006     		lsl	r0, r0, #24
 6191 2c1e 000E     		lsr	r0, r0, #24
 6192 2c20 1D1C     		mov	r5, r3
 6193 2c22 0543     		orr	r5, r5, r0
 6194 2c24 2B1C     		mov	r3, r5
 6195 2c26 0B40     		and	r3, r3, r1
 6196 2c28 421C     		add	r2, r0, #1
 6197 2c2a 1D1C     		mov	r5, r3
 6198 2c2c 1543     		orr	r5, r5, r2
 6199 2c2e FFF7FEFF 		bl	Rd6502
 6200 2c32 FF23     		mov	r3, #255
 6201              	.LVL270:
 6202 2c34 3A1C     		mov	r2, r7
 6203 2c36 9A43     		bic	r2, r2, r3
 6204 2c38 171C     		mov	r7, r2
 6205 2c3a 0743     		orr	r7, r7, r0
 6206 2c3c 2804     		lsl	r0, r5, #16
 6207 2c3e 000C     		lsr	r0, r0, #16
 6208 2c40 FFF7FEFF 		bl	Rd6502
 6209 2c44 334B     		ldr	r3, .L394+4
 6210 2c46 3B40     		and	r3, r3, r7
 6211 2c48 0002     		lsl	r0, r0, #8
 6212 2c4a 1F1C     		mov	r7, r3
 6213 2c4c 0743     		orr	r7, r7, r0
 6214 2c4e 3804     		lsl	r0, r7, #16
 6215 2c50 000C     		lsr	r0, r0, #16
 6216 2c52 3178     		ldrb	r1, [r6]
 6217 2c54 FFF7FEFF 		bl	Wr6502
 6218 2c58 D3E2     		b	.L146
 6219              	.LVL271:
 6220              	.L89:
 216:Codes.h       **** case 0x91: MW_Iy(R->A);break;             /* STA ($ss),y INDIRINDEX */
 6221              		.loc 2 216 0
 6222 2c5a 3089     		ldrh	r0, [r6, #8]
 6223 2c5c 431C     		add	r3, r0, #1
 6224 2c5e 3381     		strh	r3, [r6, #8]
 6225 2c60 FFF7FEFF 		bl	Rd6502
 6226 2c64 2A4A     		ldr	r2, .L394
ARM GAS  /cygdrive/c/Users/Zbyszko/AppData/Local/Temp/cc6jOyxc.s 			page 118


 6227              	.LVL272:
 6228 2c66 2B1C     		mov	r3, r5
 6229 2c68 1340     		and	r3, r3, r2
 6230 2c6a 0004     		lsl	r0, r0, #16
 6231 2c6c 000C     		lsr	r0, r0, #16
 6232 2c6e 1D1C     		mov	r5, r3
 6233 2c70 0543     		orr	r5, r5, r0
 6234 2c72 431C     		add	r3, r0, #1
 6235 2c74 2A40     		and	r2, r2, r5
 6236 2c76 1B04     		lsl	r3, r3, #16
 6237 2c78 151C     		mov	r5, r2
 6238 2c7a 1B0C     		lsr	r3, r3, #16
 6239 2c7c 1D43     		orr	r5, r5, r3
 6240 2c7e FFF7FEFF 		bl	Rd6502
 6241              	.LVL273:
 6242 2c82 3C1C     		mov	r4, r7
 6243 2c84 FF23     		mov	r3, #255
 6244 2c86 9C43     		bic	r4, r4, r3
 6245 2c88 271C     		mov	r7, r4
 6246 2c8a 0743     		orr	r7, r7, r0
 6247 2c8c 2804     		lsl	r0, r5, #16
 6248 2c8e 000C     		lsr	r0, r0, #16
 6249 2c90 FFF7FEFF 		bl	Rd6502
 6250 2c94 1F4B     		ldr	r3, .L394+4
 6251 2c96 3B40     		and	r3, r3, r7
 6252 2c98 0002     		lsl	r0, r0, #8
 6253 2c9a 1F1C     		mov	r7, r3
 6254 2c9c 0743     		orr	r7, r7, r0
 6255 2c9e F078     		ldrb	r0, [r6, #3]
 6256 2ca0 C019     		add	r0, r0, r7
 6257 2ca2 0004     		lsl	r0, r0, #16
 6258 2ca4 000C     		lsr	r0, r0, #16
 6259 2ca6 3178     		ldrb	r1, [r6]
 6260 2ca8 FFF7FEFF 		bl	Wr6502
 6261 2cac A9E2     		b	.L146
 6262              	.LVL274:
 6263              	.L98:
 217:Codes.h       **** case 0xA1: MR_Ix(R->A);M_FL(R->A);break;  /* LDA ($ss,x) INDEXINDIR */
 6264              		.loc 2 217 0
 6265 2cae 3089     		ldrh	r0, [r6, #8]
 6266 2cb0 431C     		add	r3, r0, #1
 6267 2cb2 3381     		strh	r3, [r6, #8]
 6268 2cb4 FFF7FEFF 		bl	Rd6502
 6269 2cb8 B378     		ldrb	r3, [r6, #2]
 6270 2cba 1549     		ldr	r1, .L394
 6271 2cbc C018     		add	r0, r0, r3
 6272              	.LVL275:
 6273 2cbe 2B1C     		mov	r3, r5
 6274 2cc0 0B40     		and	r3, r3, r1
 6275 2cc2 0006     		lsl	r0, r0, #24
 6276 2cc4 000E     		lsr	r0, r0, #24
 6277 2cc6 1D1C     		mov	r5, r3
 6278 2cc8 0543     		orr	r5, r5, r0
 6279 2cca 2B1C     		mov	r3, r5
 6280 2ccc 0B40     		and	r3, r3, r1
 6281 2cce 421C     		add	r2, r0, #1
 6282 2cd0 1D1C     		mov	r5, r3
ARM GAS  /cygdrive/c/Users/Zbyszko/AppData/Local/Temp/cc6jOyxc.s 			page 119


 6283 2cd2 1543     		orr	r5, r5, r2
 6284 2cd4 FFF7FEFF 		bl	Rd6502
 6285 2cd8 FF23     		mov	r3, #255
 6286              	.LVL276:
 6287 2cda 391C     		mov	r1, r7
 6288 2cdc 9943     		bic	r1, r1, r3
 6289 2cde 0F1C     		mov	r7, r1
 6290 2ce0 0743     		orr	r7, r7, r0
 6291 2ce2 2804     		lsl	r0, r5, #16
 6292 2ce4 000C     		lsr	r0, r0, #16
 6293 2ce6 FFF7FEFF 		bl	Rd6502
 6294 2cea 0A4B     		ldr	r3, .L394+4
 6295 2cec 3B40     		and	r3, r3, r7
 6296 2cee 1F1C     		mov	r7, r3
 6297 2cf0 0002     		lsl	r0, r0, #8
 6298 2cf2 0743     		orr	r7, r7, r0
 6299 2cf4 3804     		lsl	r0, r7, #16
 6300 2cf6 000C     		lsr	r0, r0, #16
 6301 2cf8 FFF7FEFF 		bl	Rd6502
 6302 2cfc 7378     		ldrb	r3, [r6, #1]
 6303 2cfe 7D22     		mov	r2, #125
 6304 2d00 1340     		and	r3, r3, r2
 6305 2d02 3070     		strb	r0, [r6]
 6306 2d04 044A     		ldr	r2, .L394+8
 6307 2d06 125C     		ldrb	r2, [r2, r0]
 6308 2d08 1343     		orr	r3, r3, r2
 6309 2d0a 7370     		strb	r3, [r6, #1]
 6310 2d0c 79E2     		b	.L146
 6311              	.L395:
 6312 2d0e 0000     		.align	2
 6313              	.L394:
 6314 2d10 0000FFFF 		.word	-65536
 6315 2d14 FF00FFFF 		.word	-65281
 6316 2d18 00000000 		.word	ZNTable
 6317              	.LVL277:
 6318              	.L110:
 218:Codes.h       **** case 0xB1: MR_Iy(R->A);M_FL(R->A);break;  /* LDA ($ss),y INDIRINDEX */
 6319              		.loc 2 218 0
 6320 2d1c 3089     		ldrh	r0, [r6, #8]
 6321 2d1e 431C     		add	r3, r0, #1
 6322 2d20 3381     		strh	r3, [r6, #8]
 6323 2d22 FFF7FEFF 		bl	Rd6502
 6324 2d26 E14A     		ldr	r2, .L396
 6325              	.LVL278:
 6326 2d28 2B1C     		mov	r3, r5
 6327 2d2a 1340     		and	r3, r3, r2
 6328 2d2c 0004     		lsl	r0, r0, #16
 6329 2d2e 000C     		lsr	r0, r0, #16
 6330 2d30 1D1C     		mov	r5, r3
 6331 2d32 0543     		orr	r5, r5, r0
 6332 2d34 431C     		add	r3, r0, #1
 6333 2d36 2A40     		and	r2, r2, r5
 6334 2d38 1B04     		lsl	r3, r3, #16
 6335 2d3a 1B0C     		lsr	r3, r3, #16
 6336 2d3c 151C     		mov	r5, r2
 6337 2d3e 1D43     		orr	r5, r5, r3
 6338 2d40 FFF7FEFF 		bl	Rd6502
ARM GAS  /cygdrive/c/Users/Zbyszko/AppData/Local/Temp/cc6jOyxc.s 			page 120


 6339 2d44 FF23     		mov	r3, #255
 6340              	.LVL279:
 6341 2d46 3A1C     		mov	r2, r7
 6342 2d48 9A43     		bic	r2, r2, r3
 6343 2d4a 171C     		mov	r7, r2
 6344 2d4c 0743     		orr	r7, r7, r0
 6345 2d4e 2804     		lsl	r0, r5, #16
 6346 2d50 000C     		lsr	r0, r0, #16
 6347 2d52 FFF7FEFF 		bl	Rd6502
 6348 2d56 D64B     		ldr	r3, .L396+4
 6349 2d58 3B40     		and	r3, r3, r7
 6350 2d5a 1F1C     		mov	r7, r3
 6351 2d5c 0002     		lsl	r0, r0, #8
 6352 2d5e 0743     		orr	r7, r7, r0
 6353 2d60 F078     		ldrb	r0, [r6, #3]
 6354 2d62 C019     		add	r0, r0, r7
 6355 2d64 0004     		lsl	r0, r0, #16
 6356 2d66 000C     		lsr	r0, r0, #16
 6357 2d68 FFF7FEFF 		bl	Rd6502
 6358 2d6c 7378     		ldrb	r3, [r6, #1]
 6359 2d6e 7D22     		mov	r2, #125
 6360 2d70 1340     		and	r3, r3, r2
 6361 2d72 3070     		strb	r0, [r6]
 6362 2d74 CF4A     		ldr	r2, .L396+8
 6363 2d76 125C     		ldrb	r2, [r2, r0]
 6364 2d78 1343     		orr	r3, r3, r2
 6365 2d7a 7370     		strb	r3, [r6, #1]
 6366 2d7c 41E2     		b	.L146
 6367              	.LVL280:
 6368              	.L121:
 219:Codes.h       **** case 0xC1: MR_Ix(I);M_CMP(R->A,I);break;  /* CMP ($ss,x) INDEXINDIR */
 6369              		.loc 2 219 0
 6370 2d7e 3089     		ldrh	r0, [r6, #8]
 6371 2d80 431C     		add	r3, r0, #1
 6372 2d82 3381     		strh	r3, [r6, #8]
 6373 2d84 FFF7FEFF 		bl	Rd6502
 6374 2d88 B378     		ldrb	r3, [r6, #2]
 6375 2d8a C84C     		ldr	r4, .L396
 6376 2d8c C018     		add	r0, r0, r3
 6377              	.LVL281:
 6378 2d8e 2B1C     		mov	r3, r5
 6379 2d90 2340     		and	r3, r3, r4
 6380 2d92 0006     		lsl	r0, r0, #24
 6381 2d94 000E     		lsr	r0, r0, #24
 6382 2d96 1D1C     		mov	r5, r3
 6383 2d98 0543     		orr	r5, r5, r0
 6384 2d9a 2B1C     		mov	r3, r5
 6385 2d9c 2340     		and	r3, r3, r4
 6386 2d9e 421C     		add	r2, r0, #1
 6387 2da0 1D1C     		mov	r5, r3
 6388 2da2 1543     		orr	r5, r5, r2
 6389 2da4 FFF7FEFF 		bl	Rd6502
 6390 2da8 FF23     		mov	r3, #255
 6391              	.LVL282:
 6392 2daa 391C     		mov	r1, r7
 6393 2dac 9943     		bic	r1, r1, r3
 6394 2dae 0F1C     		mov	r7, r1
ARM GAS  /cygdrive/c/Users/Zbyszko/AppData/Local/Temp/cc6jOyxc.s 			page 121


 6395 2db0 0743     		orr	r7, r7, r0
 6396 2db2 2804     		lsl	r0, r5, #16
 6397 2db4 000C     		lsr	r0, r0, #16
 6398 2db6 FFF7FEFF 		bl	Rd6502
 6399 2dba BD4B     		ldr	r3, .L396+4
 6400 2dbc 3B40     		and	r3, r3, r7
 6401 2dbe 1F1C     		mov	r7, r3
 6402 2dc0 0002     		lsl	r0, r0, #8
 6403 2dc2 0743     		orr	r7, r7, r0
 6404 2dc4 3804     		lsl	r0, r7, #16
 6405 2dc6 000C     		lsr	r0, r0, #16
 6406 2dc8 FFF7FEFF 		bl	Rd6502
 6407 2dcc 3378     		ldrb	r3, [r6]
 6408 2dce 2A1C     		mov	r2, r5
 6409 2dd0 1B1A     		sub	r3, r3, r0
 6410 2dd2 2240     		and	r2, r2, r4
 6411 2dd4 1B04     		lsl	r3, r3, #16
 6412 2dd6 1B0C     		lsr	r3, r3, #16
 6413 2dd8 151C     		mov	r5, r2
 6414 2dda 7278     		ldrb	r2, [r6, #1]
 6415 2ddc 1D43     		orr	r5, r5, r3
 6416 2dde 7C23     		mov	r3, #124
 6417 2de0 1A40     		and	r2, r2, r3
 6418 2de2 2B06     		lsl	r3, r5, #24
 6419 2de4 190E     		lsr	r1, r3, #24
 6420 2de6 2B04     		lsl	r3, r5, #16
 6421 2de8 1B0E     		lsr	r3, r3, #24
 6422 2dea 7270     		strb	r2, [r6, #1]
 6423 2dec B14C     		ldr	r4, .L396+8
 6424 2dee 0020     		mov	r0, #0
 6425 2df0 002B     		cmp	r3, #0
 6426 2df2 00D1     		bne	.L345
 6427 2df4 0120     		mov	r0, #1
 6428              	.L345:
 6429 2df6 635C     		ldrb	r3, [r4, r1]
 6430 2df8 0243     		orr	r2, r2, r0
 6431 2dfa 1343     		orr	r3, r3, r2
 6432 2dfc 7370     		strb	r3, [r6, #1]
 6433 2dfe 00E2     		b	.L146
 6434              	.LVL283:
 6435              	.L132:
 220:Codes.h       **** case 0xD1: MR_Iy(I);M_CMP(R->A,I);break;  /* CMP ($ss),y INDIRINDEX */
 6436              		.loc 2 220 0
 6437 2e00 3089     		ldrh	r0, [r6, #8]
 6438 2e02 431C     		add	r3, r0, #1
 6439 2e04 3381     		strh	r3, [r6, #8]
 6440 2e06 FFF7FEFF 		bl	Rd6502
 6441 2e0a A84C     		ldr	r4, .L396
 6442              	.LVL284:
 6443 2e0c 2B1C     		mov	r3, r5
 6444 2e0e 2340     		and	r3, r3, r4
 6445 2e10 0004     		lsl	r0, r0, #16
 6446 2e12 000C     		lsr	r0, r0, #16
 6447 2e14 1D1C     		mov	r5, r3
 6448 2e16 0543     		orr	r5, r5, r0
 6449 2e18 431C     		add	r3, r0, #1
 6450 2e1a 2A1C     		mov	r2, r5
ARM GAS  /cygdrive/c/Users/Zbyszko/AppData/Local/Temp/cc6jOyxc.s 			page 122


 6451 2e1c 2240     		and	r2, r2, r4
 6452 2e1e 1B04     		lsl	r3, r3, #16
 6453 2e20 1B0C     		lsr	r3, r3, #16
 6454 2e22 151C     		mov	r5, r2
 6455 2e24 1D43     		orr	r5, r5, r3
 6456 2e26 FFF7FEFF 		bl	Rd6502
 6457 2e2a FF23     		mov	r3, #255
 6458              	.LVL285:
 6459 2e2c 3A1C     		mov	r2, r7
 6460 2e2e 9A43     		bic	r2, r2, r3
 6461 2e30 171C     		mov	r7, r2
 6462 2e32 0743     		orr	r7, r7, r0
 6463 2e34 2804     		lsl	r0, r5, #16
 6464 2e36 000C     		lsr	r0, r0, #16
 6465 2e38 FFF7FEFF 		bl	Rd6502
 6466 2e3c 9C4B     		ldr	r3, .L396+4
 6467 2e3e 3B40     		and	r3, r3, r7
 6468 2e40 1F1C     		mov	r7, r3
 6469 2e42 0002     		lsl	r0, r0, #8
 6470 2e44 0743     		orr	r7, r7, r0
 6471 2e46 F078     		ldrb	r0, [r6, #3]
 6472 2e48 C019     		add	r0, r0, r7
 6473 2e4a 0004     		lsl	r0, r0, #16
 6474 2e4c 000C     		lsr	r0, r0, #16
 6475 2e4e FFF7FEFF 		bl	Rd6502
 6476 2e52 3378     		ldrb	r3, [r6]
 6477 2e54 2A1C     		mov	r2, r5
 6478 2e56 1B1A     		sub	r3, r3, r0
 6479 2e58 2240     		and	r2, r2, r4
 6480 2e5a 1B04     		lsl	r3, r3, #16
 6481 2e5c 1B0C     		lsr	r3, r3, #16
 6482 2e5e 151C     		mov	r5, r2
 6483 2e60 7278     		ldrb	r2, [r6, #1]
 6484 2e62 1D43     		orr	r5, r5, r3
 6485 2e64 7C23     		mov	r3, #124
 6486 2e66 1A40     		and	r2, r2, r3
 6487 2e68 2B06     		lsl	r3, r5, #24
 6488 2e6a 190E     		lsr	r1, r3, #24
 6489 2e6c 2B04     		lsl	r3, r5, #16
 6490 2e6e 1B0E     		lsr	r3, r3, #24
 6491 2e70 7270     		strb	r2, [r6, #1]
 6492 2e72 904C     		ldr	r4, .L396+8
 6493 2e74 0020     		mov	r0, #0
 6494 2e76 002B     		cmp	r3, #0
 6495 2e78 00D1     		bne	.L346
 6496 2e7a 0120     		mov	r0, #1
 6497              	.L346:
 6498 2e7c 635C     		ldrb	r3, [r4, r1]
 6499 2e7e 0243     		orr	r2, r2, r0
 6500 2e80 1343     		orr	r3, r3, r2
 6501 2e82 7370     		strb	r3, [r6, #1]
 6502 2e84 BDE1     		b	.L146
 6503              	.LVL286:
 6504              	.L140:
 221:Codes.h       **** case 0xE1: MR_Ix(I);M_SBC(I);break;       /* SBC ($ss,x) INDEXINDIR */
 6505              		.loc 2 221 0
 6506 2e86 3089     		ldrh	r0, [r6, #8]
ARM GAS  /cygdrive/c/Users/Zbyszko/AppData/Local/Temp/cc6jOyxc.s 			page 123


 6507 2e88 431C     		add	r3, r0, #1
 6508 2e8a 3381     		strh	r3, [r6, #8]
 6509 2e8c FFF7FEFF 		bl	Rd6502
 6510 2e90 B378     		ldrb	r3, [r6, #2]
 6511 2e92 C018     		add	r0, r0, r3
 6512 2e94 854B     		ldr	r3, .L396
 6513 2e96 0006     		lsl	r0, r0, #24
 6514              	.LVL287:
 6515 2e98 2B40     		and	r3, r3, r5
 6516 2e9a 000E     		lsr	r0, r0, #24
 6517 2e9c 1D1C     		mov	r5, r3
 6518 2e9e 834B     		ldr	r3, .L396
 6519 2ea0 0543     		orr	r5, r5, r0
 6520 2ea2 2B40     		and	r3, r3, r5
 6521 2ea4 421C     		add	r2, r0, #1
 6522 2ea6 1D1C     		mov	r5, r3
 6523 2ea8 1543     		orr	r5, r5, r2
 6524 2eaa FFF7FEFF 		bl	Rd6502
 6525 2eae FF24     		mov	r4, #255
 6526              	.LVL288:
 6527 2eb0 3B1C     		mov	r3, r7
 6528 2eb2 A343     		bic	r3, r3, r4
 6529 2eb4 1F1C     		mov	r7, r3
 6530 2eb6 0743     		orr	r7, r7, r0
 6531 2eb8 2804     		lsl	r0, r5, #16
 6532 2eba 000C     		lsr	r0, r0, #16
 6533 2ebc FFF7FEFF 		bl	Rd6502
 6534 2ec0 7B4B     		ldr	r3, .L396+4
 6535 2ec2 3B40     		and	r3, r3, r7
 6536 2ec4 0002     		lsl	r0, r0, #8
 6537 2ec6 1F1C     		mov	r7, r3
 6538 2ec8 0743     		orr	r7, r7, r0
 6539 2eca 3804     		lsl	r0, r7, #16
 6540 2ecc 000C     		lsr	r0, r0, #16
 6541 2ece FFF7FEFF 		bl	Rd6502
 6542 2ed2 7778     		ldrb	r7, [r6, #1]
 6543              	.LVL289:
 6544 2ed4 BC46     		mov	ip, r7
 6545 2ed6 6146     		mov	r1, ip
 6546 2ed8 3478     		ldrb	r4, [r6]
 6547 2eda FF43     		mvn	r7, r7
 6548 2edc 0907     		lsl	r1, r1, #28
 6549 2ede 46D5     		bpl	.L347
 6550 2ee0 0F21     		mov	r1, #15
 6551 2ee2 231C     		mov	r3, r4
 6552              	.LVL290:
 6553 2ee4 021C     		mov	r2, r0
 6554 2ee6 0A40     		and	r2, r2, r1
 6555 2ee8 0B40     		and	r3, r3, r1
 6556 2eea 9B1A     		sub	r3, r3, r2
 6557 2eec 0122     		mov	r2, #1
 6558 2eee 3A40     		and	r2, r2, r7
 6559 2ef0 9B1A     		sub	r3, r3, r2
 6560 2ef2 FF27     		mov	r7, #255
 6561 2ef4 2A1C     		mov	r2, r5
 6562 2ef6 BA43     		bic	r2, r2, r7
 6563 2ef8 1B06     		lsl	r3, r3, #24
ARM GAS  /cygdrive/c/Users/Zbyszko/AppData/Local/Temp/cc6jOyxc.s 			page 124


 6564 2efa 1B0E     		lsr	r3, r3, #24
 6565 2efc 151C     		mov	r5, r2
 6566 2efe 1D43     		orr	r5, r5, r3
 6567 2f00 2B06     		lsl	r3, r5, #24
 6568 2f02 1B0E     		lsr	r3, r3, #24
 6569 2f04 1027     		mov	r7, #16
 6570 2f06 3B42     		tst	r3, r7
 6571 2f08 08D0     		beq	.L349
 6572 2f0a 063B     		sub	r3, r3, #6
 6573 2f0c 1B06     		lsl	r3, r3, #24
 6574 2f0e 1B0E     		lsr	r3, r3, #24
 6575 2f10 0093     		str	r3, [sp]
 6576 2f12 2A1C     		mov	r2, r5
 6577 2f14 FF23     		mov	r3, #255
 6578 2f16 009D     		ldr	r5, [sp]
 6579 2f18 9A43     		bic	r2, r2, r3
 6580 2f1a 1543     		orr	r5, r5, r2
 6581              	.L349:
 6582 2f1c 0309     		lsr	r3, r0, #4
 6583 2f1e 2209     		lsr	r2, r4, #4
 6584 2f20 D21A     		sub	r2, r2, r3
 6585 2f22 2B1C     		mov	r3, r5
 6586 2f24 3B40     		and	r3, r3, r7
 6587 2f26 1B11     		asr	r3, r3, #4
 6588 2f28 D21A     		sub	r2, r2, r3
 6589 2f2a 614B     		ldr	r3, .L396+4
 6590 2f2c 1206     		lsl	r2, r2, #24
 6591 2f2e 100E     		lsr	r0, r2, #24
 6592              	.LVL291:
 6593 2f30 2B40     		and	r3, r3, r5
 6594 2f32 0202     		lsl	r2, r0, #8
 6595 2f34 1D1C     		mov	r5, r3
 6596 2f36 1543     		orr	r5, r5, r2
 6597 2f38 3842     		tst	r0, r7
 6598 2f3a 06D0     		beq	.L351
 6599 2f3c 5C4A     		ldr	r2, .L396+4
 6600 2f3e 831F     		sub	r3, r0, #6
 6601 2f40 1B06     		lsl	r3, r3, #24
 6602 2f42 2A40     		and	r2, r2, r5
 6603 2f44 1B0C     		lsr	r3, r3, #16
 6604 2f46 151C     		mov	r5, r2
 6605 2f48 1D43     		orr	r5, r5, r3
 6606              	.L351:
 6607 2f4a 2B04     		lsl	r3, r5, #16
 6608 2f4c 1B0E     		lsr	r3, r3, #24
 6609 2f4e 2A1C     		mov	r2, r5
 6610 2f50 0A40     		and	r2, r2, r1
 6611 2f52 1901     		lsl	r1, r3, #4
 6612 2f54 0A43     		orr	r2, r2, r1
 6613 2f56 3270     		strb	r2, [r6]
 6614 2f58 0124     		mov	r4, #1
 6615 2f5a 6246     		mov	r2, ip
 6616 2f5c A243     		bic	r2, r2, r4
 6617 2f5e 0021     		mov	r1, #0
 6618 2f60 0F2B     		cmp	r3, #15
 6619 2f62 00D8     		bhi	.L353
 6620 2f64 0121     		mov	r1, #1
ARM GAS  /cygdrive/c/Users/Zbyszko/AppData/Local/Temp/cc6jOyxc.s 			page 125


 6621              	.L353:
 6622 2f66 131C     		mov	r3, r2
 6623 2f68 0B43     		orr	r3, r3, r1
 6624 2f6a 7370     		strb	r3, [r6, #1]
 6625 2f6c 49E1     		b	.L146
 6626              	.L347:
 6627 2f6e 0122     		mov	r2, #1
 6628 2f70 3A40     		and	r2, r2, r7
 6629              	.LVL292:
 6630 2f72 231A     		sub	r3, r4, r0
 6631 2f74 9B1A     		sub	r3, r3, r2
 6632 2f76 4D4A     		ldr	r2, .L396
 6633 2f78 1B04     		lsl	r3, r3, #16
 6634 2f7a 2A40     		and	r2, r2, r5
 6635 2f7c 1B0C     		lsr	r3, r3, #16
 6636 2f7e 151C     		mov	r5, r2
 6637 2f80 1D43     		orr	r5, r5, r3
 6638 2f82 6746     		mov	r7, ip
 6639 2f84 3C23     		mov	r3, #60
 6640 2f86 1F40     		and	r7, r7, r3
 6641 2f88 2B06     		lsl	r3, r5, #24
 6642 2f8a 190E     		lsr	r1, r3, #24
 6643 2f8c 221C     		mov	r2, r4
 6644 2f8e 231C     		mov	r3, r4
 6645 2f90 4340     		eor	r3, r3, r0
 6646 2f92 4A40     		eor	r2, r2, r1
 6647 2f94 1340     		and	r3, r3, r2
 6648 2f96 1B06     		lsl	r3, r3, #24
 6649 2f98 7770     		strb	r7, [r6, #1]
 6650 2f9a 002B     		cmp	r3, #0
 6651 2f9c 01DA     		bge	.L354
 6652 2f9e 4022     		mov	r2, #64
 6653 2fa0 00E0     		b	.L356
 6654              	.L354:
 6655 2fa2 0022     		mov	r2, #0
 6656              	.L356:
 6657 2fa4 2B04     		lsl	r3, r5, #16
 6658 2fa6 1B0E     		lsr	r3, r3, #24
 6659 2fa8 4248     		ldr	r0, .L396+8
 6660              	.LVL293:
 6661 2faa 0024     		mov	r4, #0
 6662 2fac 002B     		cmp	r3, #0
 6663 2fae 00D1     		bne	.L357
 6664 2fb0 0124     		mov	r4, #1
 6665              	.L357:
 6666 2fb2 435C     		ldrb	r3, [r0, r1]
 6667 2fb4 3A43     		orr	r2, r2, r7
 6668 2fb6 2343     		orr	r3, r3, r4
 6669 2fb8 1343     		orr	r3, r3, r2
 6670 2fba 7370     		strb	r3, [r6, #1]
 6671 2fbc 3170     		strb	r1, [r6]
 6672 2fbe 20E1     		b	.L146
 6673              	.LVL294:
 6674              	.L151:
 222:Codes.h       **** case 0xF1: MR_Iy(I);M_SBC(I);break;       /* SBC ($ss),y INDIRINDEX */
 6675              		.loc 2 222 0
 6676 2fc0 3089     		ldrh	r0, [r6, #8]
ARM GAS  /cygdrive/c/Users/Zbyszko/AppData/Local/Temp/cc6jOyxc.s 			page 126


 6677 2fc2 431C     		add	r3, r0, #1
 6678 2fc4 3381     		strh	r3, [r6, #8]
 6679 2fc6 FFF7FEFF 		bl	Rd6502
 6680 2fca 384B     		ldr	r3, .L396
 6681 2fcc 0004     		lsl	r0, r0, #16
 6682              	.LVL295:
 6683 2fce 2B40     		and	r3, r3, r5
 6684 2fd0 000C     		lsr	r0, r0, #16
 6685 2fd2 1D1C     		mov	r5, r3
 6686 2fd4 354A     		ldr	r2, .L396
 6687 2fd6 0543     		orr	r5, r5, r0
 6688 2fd8 431C     		add	r3, r0, #1
 6689 2fda 2A40     		and	r2, r2, r5
 6690 2fdc 1B04     		lsl	r3, r3, #16
 6691 2fde 151C     		mov	r5, r2
 6692 2fe0 1B0C     		lsr	r3, r3, #16
 6693 2fe2 1D43     		orr	r5, r5, r3
 6694 2fe4 FFF7FEFF 		bl	Rd6502
 6695 2fe8 FF21     		mov	r1, #255
 6696              	.LVL296:
 6697 2fea 3B1C     		mov	r3, r7
 6698 2fec 8B43     		bic	r3, r3, r1
 6699 2fee 1F1C     		mov	r7, r3
 6700 2ff0 0743     		orr	r7, r7, r0
 6701 2ff2 2804     		lsl	r0, r5, #16
 6702 2ff4 000C     		lsr	r0, r0, #16
 6703 2ff6 FFF7FEFF 		bl	Rd6502
 6704 2ffa 2D4B     		ldr	r3, .L396+4
 6705 2ffc 3B40     		and	r3, r3, r7
 6706 2ffe 0002     		lsl	r0, r0, #8
 6707 3000 1F1C     		mov	r7, r3
 6708 3002 0743     		orr	r7, r7, r0
 6709 3004 F078     		ldrb	r0, [r6, #3]
 6710 3006 C019     		add	r0, r0, r7
 6711 3008 0004     		lsl	r0, r0, #16
 6712 300a 000C     		lsr	r0, r0, #16
 6713 300c FFF7FEFF 		bl	Rd6502
 6714 3010 7278     		ldrb	r2, [r6, #1]
 6715 3012 3478     		ldrb	r4, [r6]
 6716 3014 9446     		mov	ip, r2
 6717 3016 D743     		mvn	r7, r2
 6718              	.LVL297:
 6719 3018 1207     		lsl	r2, r2, #28
 6720 301a 4DD5     		bpl	.L358
 6721 301c 0F21     		mov	r1, #15
 6722 301e 231C     		mov	r3, r4
 6723              	.LVL298:
 6724 3020 021C     		mov	r2, r0
 6725 3022 0A40     		and	r2, r2, r1
 6726 3024 0B40     		and	r3, r3, r1
 6727 3026 9B1A     		sub	r3, r3, r2
 6728 3028 0122     		mov	r2, #1
 6729 302a 3A40     		and	r2, r2, r7
 6730 302c 9B1A     		sub	r3, r3, r2
 6731 302e FF27     		mov	r7, #255
 6732 3030 2A1C     		mov	r2, r5
 6733 3032 BA43     		bic	r2, r2, r7
ARM GAS  /cygdrive/c/Users/Zbyszko/AppData/Local/Temp/cc6jOyxc.s 			page 127


 6734 3034 1B06     		lsl	r3, r3, #24
 6735 3036 1B0E     		lsr	r3, r3, #24
 6736 3038 151C     		mov	r5, r2
 6737 303a 1D43     		orr	r5, r5, r3
 6738 303c 2B06     		lsl	r3, r5, #24
 6739 303e 1B0E     		lsr	r3, r3, #24
 6740 3040 1027     		mov	r7, #16
 6741 3042 3B42     		tst	r3, r7
 6742 3044 08D0     		beq	.L360
 6743 3046 063B     		sub	r3, r3, #6
 6744 3048 1B06     		lsl	r3, r3, #24
 6745 304a 1B0E     		lsr	r3, r3, #24
 6746 304c 0093     		str	r3, [sp]
 6747 304e 2A1C     		mov	r2, r5
 6748 3050 FF23     		mov	r3, #255
 6749 3052 009D     		ldr	r5, [sp]
 6750 3054 9A43     		bic	r2, r2, r3
 6751 3056 1543     		orr	r5, r5, r2
 6752              	.L360:
 6753 3058 0309     		lsr	r3, r0, #4
 6754 305a 2209     		lsr	r2, r4, #4
 6755 305c D21A     		sub	r2, r2, r3
 6756 305e 2B1C     		mov	r3, r5
 6757 3060 3B40     		and	r3, r3, r7
 6758 3062 1B11     		asr	r3, r3, #4
 6759 3064 D21A     		sub	r2, r2, r3
 6760 3066 124B     		ldr	r3, .L396+4
 6761 3068 1206     		lsl	r2, r2, #24
 6762 306a 100E     		lsr	r0, r2, #24
 6763              	.LVL299:
 6764 306c 2B40     		and	r3, r3, r5
 6765 306e 0202     		lsl	r2, r0, #8
 6766 3070 1D1C     		mov	r5, r3
 6767 3072 1543     		orr	r5, r5, r2
 6768 3074 3842     		tst	r0, r7
 6769 3076 06D0     		beq	.L362
 6770 3078 0D4A     		ldr	r2, .L396+4
 6771 307a 831F     		sub	r3, r0, #6
 6772 307c 1B06     		lsl	r3, r3, #24
 6773 307e 2A40     		and	r2, r2, r5
 6774 3080 1B0C     		lsr	r3, r3, #16
 6775 3082 151C     		mov	r5, r2
 6776 3084 1D43     		orr	r5, r5, r3
 6777              	.L362:
 6778 3086 2B04     		lsl	r3, r5, #16
 6779 3088 1B0E     		lsr	r3, r3, #24
 6780 308a 2A1C     		mov	r2, r5
 6781 308c 0A40     		and	r2, r2, r1
 6782 308e 1901     		lsl	r1, r3, #4
 6783 3090 0A43     		orr	r2, r2, r1
 6784 3092 3270     		strb	r2, [r6]
 6785 3094 0124     		mov	r4, #1
 6786 3096 6246     		mov	r2, ip
 6787 3098 A243     		bic	r2, r2, r4
 6788 309a 0021     		mov	r1, #0
 6789 309c 0F2B     		cmp	r3, #15
 6790 309e 00D8     		bhi	.L364
ARM GAS  /cygdrive/c/Users/Zbyszko/AppData/Local/Temp/cc6jOyxc.s 			page 128


 6791 30a0 0121     		mov	r1, #1
 6792              	.L364:
 6793 30a2 131C     		mov	r3, r2
 6794 30a4 0B43     		orr	r3, r3, r1
 6795 30a6 7370     		strb	r3, [r6, #1]
 6796 30a8 ABE0     		b	.L146
 6797              	.L397:
 6798 30aa 0000     		.align	2
 6799              	.L396:
 6800 30ac 0000FFFF 		.word	-65536
 6801 30b0 FF00FFFF 		.word	-65281
 6802 30b4 00000000 		.word	ZNTable
 6803              	.L358:
 6804 30b8 0122     		mov	r2, #1
 6805 30ba 3A40     		and	r2, r2, r7
 6806              	.LVL300:
 6807 30bc 231A     		sub	r3, r4, r0
 6808 30be 9B1A     		sub	r3, r3, r2
 6809 30c0 524A     		ldr	r2, .L398
 6810 30c2 1B04     		lsl	r3, r3, #16
 6811 30c4 2A40     		and	r2, r2, r5
 6812 30c6 1B0C     		lsr	r3, r3, #16
 6813 30c8 151C     		mov	r5, r2
 6814 30ca 1D43     		orr	r5, r5, r3
 6815 30cc 6746     		mov	r7, ip
 6816 30ce 3C23     		mov	r3, #60
 6817 30d0 1F40     		and	r7, r7, r3
 6818 30d2 2B06     		lsl	r3, r5, #24
 6819 30d4 190E     		lsr	r1, r3, #24
 6820 30d6 221C     		mov	r2, r4
 6821 30d8 231C     		mov	r3, r4
 6822 30da 4340     		eor	r3, r3, r0
 6823 30dc 4A40     		eor	r2, r2, r1
 6824 30de 1340     		and	r3, r3, r2
 6825 30e0 1B06     		lsl	r3, r3, #24
 6826 30e2 7770     		strb	r7, [r6, #1]
 6827 30e4 002B     		cmp	r3, #0
 6828 30e6 01DA     		bge	.L365
 6829 30e8 4022     		mov	r2, #64
 6830 30ea 00E0     		b	.L367
 6831              	.L365:
 6832 30ec 0022     		mov	r2, #0
 6833              	.L367:
 6834 30ee 2B04     		lsl	r3, r5, #16
 6835 30f0 1B0E     		lsr	r3, r3, #24
 6836 30f2 4748     		ldr	r0, .L398+4
 6837              	.LVL301:
 6838 30f4 0024     		mov	r4, #0
 6839 30f6 002B     		cmp	r3, #0
 6840 30f8 00D1     		bne	.L368
 6841 30fa 0124     		mov	r4, #1
 6842              	.L368:
 6843 30fc 435C     		ldrb	r3, [r0, r1]
 6844 30fe 3A43     		orr	r2, r2, r7
 6845 3100 2343     		orr	r3, r3, r4
 6846 3102 1343     		orr	r3, r3, r2
 6847 3104 7370     		strb	r3, [r6, #1]
ARM GAS  /cygdrive/c/Users/Zbyszko/AppData/Local/Temp/cc6jOyxc.s 			page 129


 6848 3106 3170     		strb	r1, [r6]
 6849 3108 7BE0     		b	.L146
 6850              	.LVL302:
 6851              	.L13:
 223:Codes.h       **** 
 224:Codes.h       **** case 0x0A: M_ASL(R->A);break;             /* ASL a ACC */
 6852              		.loc 2 224 0
 6853 310a 7278     		ldrb	r2, [r6, #1]
 6854 310c FE23     		mov	r3, #254
 6855 310e 1A40     		and	r2, r2, r3
 6856 3110 3378     		ldrb	r3, [r6]
 6857 3112 D909     		lsr	r1, r3, #7
 6858 3114 0A43     		orr	r2, r2, r1
 6859 3116 7270     		strb	r2, [r6, #1]
 6860 3118 5B06     		lsl	r3, r3, #25
 6861 311a 7278     		ldrb	r2, [r6, #1]
 6862 311c 1B0E     		lsr	r3, r3, #24
 6863 311e 7D21     		mov	r1, #125
 6864 3120 0A40     		and	r2, r2, r1
 6865 3122 3370     		strb	r3, [r6]
 6866 3124 3A49     		ldr	r1, .L398+4
 6867 3126 CB5C     		ldrb	r3, [r1, r3]
 6868 3128 1A43     		orr	r2, r2, r3
 6869 312a 7270     		strb	r2, [r6, #1]
 6870 312c 69E0     		b	.L146
 6871              	.L31:
 225:Codes.h       **** case 0x2A: M_ROL(R->A);break;             /* ROL a ACC */
 6872              		.loc 2 225 0
 6873 312e 7178     		ldrb	r1, [r6, #1]
 6874 3130 3078     		ldrb	r0, [r6]
 6875 3132 0122     		mov	r2, #1
 6876 3134 0A40     		and	r2, r2, r1
 6877 3136 4300     		lsl	r3, r0, #1
 6878 3138 1343     		orr	r3, r3, r2
 6879              	.LVL303:
 6880 313a 2F1C     		mov	r7, r5
 6881 313c FF22     		mov	r2, #255
 6882 313e 9743     		bic	r7, r7, r2
 6883 3140 1B06     		lsl	r3, r3, #24
 6884 3142 1B0E     		lsr	r3, r3, #24
 6885 3144 3D1C     		mov	r5, r7
 6886 3146 1D43     		orr	r5, r5, r3
 6887 3148 FE23     		mov	r3, #254
 6888 314a 1940     		and	r1, r1, r3
 6889 314c C009     		lsr	r0, r0, #7
 6890 314e 0143     		orr	r1, r1, r0
 6891 3150 7170     		strb	r1, [r6, #1]
 6892 3152 2906     		lsl	r1, r5, #24
 6893 3154 7378     		ldrb	r3, [r6, #1]
 6894 3156 090E     		lsr	r1, r1, #24
 6895 3158 7D22     		mov	r2, #125
 6896 315a 1340     		and	r3, r3, r2
 6897 315c 3170     		strb	r1, [r6]
 6898 315e 2C4A     		ldr	r2, .L398+4
 6899 3160 525C     		ldrb	r2, [r2, r1]
 6900 3162 1343     		orr	r3, r3, r2
 6901 3164 7370     		strb	r3, [r6, #1]
ARM GAS  /cygdrive/c/Users/Zbyszko/AppData/Local/Temp/cc6jOyxc.s 			page 130


 6902 3166 4CE0     		b	.L146
 6903              	.LVL304:
 6904              	.L49:
 226:Codes.h       **** case 0x4A: M_LSR(R->A);break;             /* LSR a ACC */
 6905              		.loc 2 226 0
 6906 3168 7278     		ldrb	r2, [r6, #1]
 6907 316a 3178     		ldrb	r1, [r6]
 6908 316c FE23     		mov	r3, #254
 6909 316e 1A40     		and	r2, r2, r3
 6910 3170 0123     		mov	r3, #1
 6911 3172 0B40     		and	r3, r3, r1
 6912 3174 1A43     		orr	r2, r2, r3
 6913 3176 7270     		strb	r2, [r6, #1]
 6914 3178 7378     		ldrb	r3, [r6, #1]
 6915 317a 4908     		lsr	r1, r1, #1
 6916 317c 7D22     		mov	r2, #125
 6917 317e 1340     		and	r3, r3, r2
 6918 3180 3170     		strb	r1, [r6]
 6919 3182 234A     		ldr	r2, .L398+4
 6920 3184 525C     		ldrb	r2, [r2, r1]
 6921 3186 1343     		orr	r3, r3, r2
 6922 3188 7370     		strb	r3, [r6, #1]
 6923 318a 3AE0     		b	.L146
 6924              	.L67:
 227:Codes.h       **** case 0x6A: M_ROR(R->A);break;             /* ROR a ACC */
 6925              		.loc 2 227 0
 6926 318c 7178     		ldrb	r1, [r6, #1]
 6927 318e 3078     		ldrb	r0, [r6]
 6928 3190 CA01     		lsl	r2, r1, #7
 6929 3192 4308     		lsr	r3, r0, #1
 6930 3194 1343     		orr	r3, r3, r2
 6931              	.LVL305:
 6932 3196 2C1C     		mov	r4, r5
 6933 3198 FF22     		mov	r2, #255
 6934 319a 9443     		bic	r4, r4, r2
 6935 319c 1B06     		lsl	r3, r3, #24
 6936 319e 1B0E     		lsr	r3, r3, #24
 6937 31a0 251C     		mov	r5, r4
 6938 31a2 1D43     		orr	r5, r5, r3
 6939 31a4 FE23     		mov	r3, #254
 6940 31a6 1940     		and	r1, r1, r3
 6941 31a8 0123     		mov	r3, #1
 6942 31aa 1840     		and	r0, r0, r3
 6943 31ac 0143     		orr	r1, r1, r0
 6944 31ae 7170     		strb	r1, [r6, #1]
 6945 31b0 2906     		lsl	r1, r5, #24
 6946 31b2 7378     		ldrb	r3, [r6, #1]
 6947 31b4 090E     		lsr	r1, r1, #24
 6948 31b6 7D22     		mov	r2, #125
 6949 31b8 1340     		and	r3, r3, r2
 6950 31ba 3170     		strb	r1, [r6]
 6951 31bc 144A     		ldr	r2, .L398+4
 6952 31be 525C     		ldrb	r2, [r2, r1]
 6953 31c0 1343     		orr	r3, r3, r2
 6954 31c2 7370     		strb	r3, [r6, #1]
 6955 31c4 1DE0     		b	.L146
 6956              	.LVL306:
ARM GAS  /cygdrive/c/Users/Zbyszko/AppData/Local/Temp/cc6jOyxc.s 			page 131


 6957              	.L6:
 228:Codes.h       **** 
 229:Codes.h       **** default:
 230:Codes.h       ****   /* Try to execute a patch function. If it fails, treat */
 231:Codes.h       ****   /* the opcode as undefined.                            */
 232:Codes.h       ****   if(!Patch6502(Op6502(R->PC.W-1),R))
 6958              		.loc 2 232 0
 6959 31c6 3089     		ldrh	r0, [r6, #8]
 6960 31c8 0138     		sub	r0, r0, #1
 6961 31ca 0004     		lsl	r0, r0, #16
 6962 31cc 000C     		lsr	r0, r0, #16
 6963 31ce FFF7FEFF 		bl	Rd6502
 6964 31d2 311C     		mov	r1, r6
 6965 31d4 FFF7FEFF 		bl	Patch6502
 6966 31d8 0028     		cmp	r0, #0
 6967 31da 12D1     		bne	.L146
 233:Codes.h       ****     if(R->TrapBadOps)
 6968              		.loc 2 233 0
 6969 31dc 737F     		ldrb	r3, [r6, #29]
 6970 31de 002B     		cmp	r3, #0
 6971 31e0 0FD0     		beq	.L146
 234:Codes.h       ****       printf
 6972              		.loc 2 234 0
 6973 31e2 3089     		ldrh	r0, [r6, #8]
 6974 31e4 0138     		sub	r0, r0, #1
 6975 31e6 0004     		lsl	r0, r0, #16
 6976 31e8 000C     		lsr	r0, r0, #16
 6977 31ea 746A     		ldr	r4, [r6, #36]
 6978 31ec FFF7FEFF 		bl	Rd6502
 6979 31f0 3389     		ldrh	r3, [r6, #8]
 6980 31f2 013B     		sub	r3, r3, #1
 6981 31f4 1B04     		lsl	r3, r3, #16
 6982 31f6 021C     		mov	r2, r0
 6983 31f8 1B0C     		lsr	r3, r3, #16
 6984 31fa 0648     		ldr	r0, .L398+8
 6985 31fc 211C     		mov	r1, r4
 6986 31fe FFF7FEFF 		bl	simplePrintf
 6987              	.LVL307:
 6988              	.L146:
 6989 3202 3089     		ldrh	r0, [r6, #8]
 6990              	.LVL308:
 219:M6502.c       ****   {
 220:M6502.c       **** #include "Codes.h"
 221:M6502.c       ****   }
 222:M6502.c       **** 
 223:M6502.c       ****   /* We are done */
 224:M6502.c       ****   return(R->PC.W);
 225:M6502.c       **** }
 6991              		.loc 1 225 0
 6992 3204 01B0     		add	sp, sp, #4
 6993              		@ sp needed for prologue
 6994              	.LVL309:
 6995              	.LVL310:
 6996              	.LVL311:
 6997 3206 F0BC     		pop	{r4, r5, r6, r7}
 6998 3208 02BC     		pop	{r1}
 6999 320a 0847     		bx	r1
ARM GAS  /cygdrive/c/Users/Zbyszko/AppData/Local/Temp/cc6jOyxc.s 			page 132


 7000              	.L399:
 7001              		.align	2
 7002              	.L398:
 7003 320c 0000FFFF 		.word	-65536
 7004 3210 00000000 		.word	ZNTable
 7005 3214 00000000 		.word	.LC3
 7006              	.LFE3:
 7007              		.size	Exec6502, .-Exec6502
 7008              		.global	ZNTable
 7009              		.data
 7010              		.type	ZNTable, %object
 7011              		.size	ZNTable, 256
 7012              	ZNTable:
 7013 0000 02       		.byte	2
 7014 0001 00       		.byte	0
 7015 0002 00       		.byte	0
 7016 0003 00       		.byte	0
 7017 0004 00       		.byte	0
 7018 0005 00       		.byte	0
 7019 0006 00       		.byte	0
 7020 0007 00       		.byte	0
 7021 0008 00       		.byte	0
 7022 0009 00       		.byte	0
 7023 000a 00       		.byte	0
 7024 000b 00       		.byte	0
 7025 000c 00       		.byte	0
 7026 000d 00       		.byte	0
 7027 000e 00       		.byte	0
 7028 000f 00       		.byte	0
 7029 0010 00       		.byte	0
 7030 0011 00       		.byte	0
 7031 0012 00       		.byte	0
 7032 0013 00       		.byte	0
 7033 0014 00       		.byte	0
 7034 0015 00       		.byte	0
 7035 0016 00       		.byte	0
 7036 0017 00       		.byte	0
 7037 0018 00       		.byte	0
 7038 0019 00       		.byte	0
 7039 001a 00       		.byte	0
 7040 001b 00       		.byte	0
 7041 001c 00       		.byte	0
 7042 001d 00       		.byte	0
 7043 001e 00       		.byte	0
 7044 001f 00       		.byte	0
 7045 0020 00       		.byte	0
 7046 0021 00       		.byte	0
 7047 0022 00       		.byte	0
 7048 0023 00       		.byte	0
 7049 0024 00       		.byte	0
 7050 0025 00       		.byte	0
 7051 0026 00       		.byte	0
 7052 0027 00       		.byte	0
 7053 0028 00       		.byte	0
 7054 0029 00       		.byte	0
 7055 002a 00       		.byte	0
 7056 002b 00       		.byte	0
ARM GAS  /cygdrive/c/Users/Zbyszko/AppData/Local/Temp/cc6jOyxc.s 			page 133


 7057 002c 00       		.byte	0
 7058 002d 00       		.byte	0
 7059 002e 00       		.byte	0
 7060 002f 00       		.byte	0
 7061 0030 00       		.byte	0
 7062 0031 00       		.byte	0
 7063 0032 00       		.byte	0
 7064 0033 00       		.byte	0
 7065 0034 00       		.byte	0
 7066 0035 00       		.byte	0
 7067 0036 00       		.byte	0
 7068 0037 00       		.byte	0
 7069 0038 00       		.byte	0
 7070 0039 00       		.byte	0
 7071 003a 00       		.byte	0
 7072 003b 00       		.byte	0
 7073 003c 00       		.byte	0
 7074 003d 00       		.byte	0
 7075 003e 00       		.byte	0
 7076 003f 00       		.byte	0
 7077 0040 00       		.byte	0
 7078 0041 00       		.byte	0
 7079 0042 00       		.byte	0
 7080 0043 00       		.byte	0
 7081 0044 00       		.byte	0
 7082 0045 00       		.byte	0
 7083 0046 00       		.byte	0
 7084 0047 00       		.byte	0
 7085 0048 00       		.byte	0
 7086 0049 00       		.byte	0
 7087 004a 00       		.byte	0
 7088 004b 00       		.byte	0
 7089 004c 00       		.byte	0
 7090 004d 00       		.byte	0
 7091 004e 00       		.byte	0
 7092 004f 00       		.byte	0
 7093 0050 00       		.byte	0
 7094 0051 00       		.byte	0
 7095 0052 00       		.byte	0
 7096 0053 00       		.byte	0
 7097 0054 00       		.byte	0
 7098 0055 00       		.byte	0
 7099 0056 00       		.byte	0
 7100 0057 00       		.byte	0
 7101 0058 00       		.byte	0
 7102 0059 00       		.byte	0
 7103 005a 00       		.byte	0
 7104 005b 00       		.byte	0
 7105 005c 00       		.byte	0
 7106 005d 00       		.byte	0
 7107 005e 00       		.byte	0
 7108 005f 00       		.byte	0
 7109 0060 00       		.byte	0
 7110 0061 00       		.byte	0
 7111 0062 00       		.byte	0
 7112 0063 00       		.byte	0
 7113 0064 00       		.byte	0
ARM GAS  /cygdrive/c/Users/Zbyszko/AppData/Local/Temp/cc6jOyxc.s 			page 134


 7114 0065 00       		.byte	0
 7115 0066 00       		.byte	0
 7116 0067 00       		.byte	0
 7117 0068 00       		.byte	0
 7118 0069 00       		.byte	0
 7119 006a 00       		.byte	0
 7120 006b 00       		.byte	0
 7121 006c 00       		.byte	0
 7122 006d 00       		.byte	0
 7123 006e 00       		.byte	0
 7124 006f 00       		.byte	0
 7125 0070 00       		.byte	0
 7126 0071 00       		.byte	0
 7127 0072 00       		.byte	0
 7128 0073 00       		.byte	0
 7129 0074 00       		.byte	0
 7130 0075 00       		.byte	0
 7131 0076 00       		.byte	0
 7132 0077 00       		.byte	0
 7133 0078 00       		.byte	0
 7134 0079 00       		.byte	0
 7135 007a 00       		.byte	0
 7136 007b 00       		.byte	0
 7137 007c 00       		.byte	0
 7138 007d 00       		.byte	0
 7139 007e 00       		.byte	0
 7140 007f 00       		.byte	0
 7141 0080 80       		.byte	-128
 7142 0081 80       		.byte	-128
 7143 0082 80       		.byte	-128
 7144 0083 80       		.byte	-128
 7145 0084 80       		.byte	-128
 7146 0085 80       		.byte	-128
 7147 0086 80       		.byte	-128
 7148 0087 80       		.byte	-128
 7149 0088 80       		.byte	-128
 7150 0089 80       		.byte	-128
 7151 008a 80       		.byte	-128
 7152 008b 80       		.byte	-128
 7153 008c 80       		.byte	-128
 7154 008d 80       		.byte	-128
 7155 008e 80       		.byte	-128
 7156 008f 80       		.byte	-128
 7157 0090 80       		.byte	-128
 7158 0091 80       		.byte	-128
 7159 0092 80       		.byte	-128
 7160 0093 80       		.byte	-128
 7161 0094 80       		.byte	-128
 7162 0095 80       		.byte	-128
 7163 0096 80       		.byte	-128
 7164 0097 80       		.byte	-128
 7165 0098 80       		.byte	-128
 7166 0099 80       		.byte	-128
 7167 009a 80       		.byte	-128
 7168 009b 80       		.byte	-128
 7169 009c 80       		.byte	-128
 7170 009d 80       		.byte	-128
ARM GAS  /cygdrive/c/Users/Zbyszko/AppData/Local/Temp/cc6jOyxc.s 			page 135


 7171 009e 80       		.byte	-128
 7172 009f 80       		.byte	-128
 7173 00a0 80       		.byte	-128
 7174 00a1 80       		.byte	-128
 7175 00a2 80       		.byte	-128
 7176 00a3 80       		.byte	-128
 7177 00a4 80       		.byte	-128
 7178 00a5 80       		.byte	-128
 7179 00a6 80       		.byte	-128
 7180 00a7 80       		.byte	-128
 7181 00a8 80       		.byte	-128
 7182 00a9 80       		.byte	-128
 7183 00aa 80       		.byte	-128
 7184 00ab 80       		.byte	-128
 7185 00ac 80       		.byte	-128
 7186 00ad 80       		.byte	-128
 7187 00ae 80       		.byte	-128
 7188 00af 80       		.byte	-128
 7189 00b0 80       		.byte	-128
 7190 00b1 80       		.byte	-128
 7191 00b2 80       		.byte	-128
 7192 00b3 80       		.byte	-128
 7193 00b4 80       		.byte	-128
 7194 00b5 80       		.byte	-128
 7195 00b6 80       		.byte	-128
 7196 00b7 80       		.byte	-128
 7197 00b8 80       		.byte	-128
 7198 00b9 80       		.byte	-128
 7199 00ba 80       		.byte	-128
 7200 00bb 80       		.byte	-128
 7201 00bc 80       		.byte	-128
 7202 00bd 80       		.byte	-128
 7203 00be 80       		.byte	-128
 7204 00bf 80       		.byte	-128
 7205 00c0 80       		.byte	-128
 7206 00c1 80       		.byte	-128
 7207 00c2 80       		.byte	-128
 7208 00c3 80       		.byte	-128
 7209 00c4 80       		.byte	-128
 7210 00c5 80       		.byte	-128
 7211 00c6 80       		.byte	-128
 7212 00c7 80       		.byte	-128
 7213 00c8 80       		.byte	-128
 7214 00c9 80       		.byte	-128
 7215 00ca 80       		.byte	-128
 7216 00cb 80       		.byte	-128
 7217 00cc 80       		.byte	-128
 7218 00cd 80       		.byte	-128
 7219 00ce 80       		.byte	-128
 7220 00cf 80       		.byte	-128
 7221 00d0 80       		.byte	-128
 7222 00d1 80       		.byte	-128
 7223 00d2 80       		.byte	-128
 7224 00d3 80       		.byte	-128
 7225 00d4 80       		.byte	-128
 7226 00d5 80       		.byte	-128
 7227 00d6 80       		.byte	-128
ARM GAS  /cygdrive/c/Users/Zbyszko/AppData/Local/Temp/cc6jOyxc.s 			page 136


 7228 00d7 80       		.byte	-128
 7229 00d8 80       		.byte	-128
 7230 00d9 80       		.byte	-128
 7231 00da 80       		.byte	-128
 7232 00db 80       		.byte	-128
 7233 00dc 80       		.byte	-128
 7234 00dd 80       		.byte	-128
 7235 00de 80       		.byte	-128
 7236 00df 80       		.byte	-128
 7237 00e0 80       		.byte	-128
 7238 00e1 80       		.byte	-128
 7239 00e2 80       		.byte	-128
 7240 00e3 80       		.byte	-128
 7241 00e4 80       		.byte	-128
 7242 00e5 80       		.byte	-128
 7243 00e6 80       		.byte	-128
 7244 00e7 80       		.byte	-128
 7245 00e8 80       		.byte	-128
 7246 00e9 80       		.byte	-128
 7247 00ea 80       		.byte	-128
 7248 00eb 80       		.byte	-128
 7249 00ec 80       		.byte	-128
 7250 00ed 80       		.byte	-128
 7251 00ee 80       		.byte	-128
 7252 00ef 80       		.byte	-128
 7253 00f0 80       		.byte	-128
 7254 00f1 80       		.byte	-128
 7255 00f2 80       		.byte	-128
 7256 00f3 80       		.byte	-128
 7257 00f4 80       		.byte	-128
 7258 00f5 80       		.byte	-128
 7259 00f6 80       		.byte	-128
 7260 00f7 80       		.byte	-128
 7261 00f8 80       		.byte	-128
 7262 00f9 80       		.byte	-128
 7263 00fa 80       		.byte	-128
 7264 00fb 80       		.byte	-128
 7265 00fc 80       		.byte	-128
 7266 00fd 80       		.byte	-128
 7267 00fe 80       		.byte	-128
 7268 00ff 80       		.byte	-128
 7269              		.section	.rodata
 7270              		.type	Cycles, %object
 7271              		.size	Cycles, 256
 7272              	Cycles:
 7273 03fc 07       		.byte	7
 7274 03fd 06       		.byte	6
 7275 03fe 02       		.byte	2
 7276 03ff 08       		.byte	8
 7277 0400 03       		.byte	3
 7278 0401 03       		.byte	3
 7279 0402 05       		.byte	5
 7280 0403 05       		.byte	5
 7281 0404 03       		.byte	3
 7282 0405 02       		.byte	2
 7283 0406 02       		.byte	2
 7284 0407 02       		.byte	2
ARM GAS  /cygdrive/c/Users/Zbyszko/AppData/Local/Temp/cc6jOyxc.s 			page 137


 7285 0408 04       		.byte	4
 7286 0409 04       		.byte	4
 7287 040a 06       		.byte	6
 7288 040b 06       		.byte	6
 7289 040c 02       		.byte	2
 7290 040d 05       		.byte	5
 7291 040e 02       		.byte	2
 7292 040f 08       		.byte	8
 7293 0410 04       		.byte	4
 7294 0411 04       		.byte	4
 7295 0412 06       		.byte	6
 7296 0413 06       		.byte	6
 7297 0414 02       		.byte	2
 7298 0415 04       		.byte	4
 7299 0416 02       		.byte	2
 7300 0417 07       		.byte	7
 7301 0418 05       		.byte	5
 7302 0419 05       		.byte	5
 7303 041a 07       		.byte	7
 7304 041b 07       		.byte	7
 7305 041c 06       		.byte	6
 7306 041d 06       		.byte	6
 7307 041e 02       		.byte	2
 7308 041f 08       		.byte	8
 7309 0420 03       		.byte	3
 7310 0421 03       		.byte	3
 7311 0422 05       		.byte	5
 7312 0423 05       		.byte	5
 7313 0424 04       		.byte	4
 7314 0425 02       		.byte	2
 7315 0426 02       		.byte	2
 7316 0427 02       		.byte	2
 7317 0428 04       		.byte	4
 7318 0429 04       		.byte	4
 7319 042a 06       		.byte	6
 7320 042b 06       		.byte	6
 7321 042c 02       		.byte	2
 7322 042d 05       		.byte	5
 7323 042e 02       		.byte	2
 7324 042f 08       		.byte	8
 7325 0430 04       		.byte	4
 7326 0431 04       		.byte	4
 7327 0432 06       		.byte	6
 7328 0433 06       		.byte	6
 7329 0434 02       		.byte	2
 7330 0435 04       		.byte	4
 7331 0436 02       		.byte	2
 7332 0437 07       		.byte	7
 7333 0438 05       		.byte	5
 7334 0439 05       		.byte	5
 7335 043a 07       		.byte	7
 7336 043b 07       		.byte	7
 7337 043c 06       		.byte	6
 7338 043d 06       		.byte	6
 7339 043e 02       		.byte	2
 7340 043f 08       		.byte	8
 7341 0440 03       		.byte	3
ARM GAS  /cygdrive/c/Users/Zbyszko/AppData/Local/Temp/cc6jOyxc.s 			page 138


 7342 0441 03       		.byte	3
 7343 0442 05       		.byte	5
 7344 0443 05       		.byte	5
 7345 0444 03       		.byte	3
 7346 0445 02       		.byte	2
 7347 0446 02       		.byte	2
 7348 0447 02       		.byte	2
 7349 0448 03       		.byte	3
 7350 0449 04       		.byte	4
 7351 044a 06       		.byte	6
 7352 044b 06       		.byte	6
 7353 044c 02       		.byte	2
 7354 044d 05       		.byte	5
 7355 044e 02       		.byte	2
 7356 044f 08       		.byte	8
 7357 0450 04       		.byte	4
 7358 0451 04       		.byte	4
 7359 0452 06       		.byte	6
 7360 0453 06       		.byte	6
 7361 0454 02       		.byte	2
 7362 0455 04       		.byte	4
 7363 0456 02       		.byte	2
 7364 0457 07       		.byte	7
 7365 0458 05       		.byte	5
 7366 0459 05       		.byte	5
 7367 045a 07       		.byte	7
 7368 045b 07       		.byte	7
 7369 045c 06       		.byte	6
 7370 045d 06       		.byte	6
 7371 045e 02       		.byte	2
 7372 045f 08       		.byte	8
 7373 0460 03       		.byte	3
 7374 0461 03       		.byte	3
 7375 0462 05       		.byte	5
 7376 0463 05       		.byte	5
 7377 0464 04       		.byte	4
 7378 0465 02       		.byte	2
 7379 0466 02       		.byte	2
 7380 0467 02       		.byte	2
 7381 0468 05       		.byte	5
 7382 0469 04       		.byte	4
 7383 046a 06       		.byte	6
 7384 046b 06       		.byte	6
 7385 046c 02       		.byte	2
 7386 046d 05       		.byte	5
 7387 046e 02       		.byte	2
 7388 046f 08       		.byte	8
 7389 0470 04       		.byte	4
 7390 0471 04       		.byte	4
 7391 0472 06       		.byte	6
 7392 0473 06       		.byte	6
 7393 0474 02       		.byte	2
 7394 0475 04       		.byte	4
 7395 0476 02       		.byte	2
 7396 0477 07       		.byte	7
 7397 0478 05       		.byte	5
 7398 0479 05       		.byte	5
ARM GAS  /cygdrive/c/Users/Zbyszko/AppData/Local/Temp/cc6jOyxc.s 			page 139


 7399 047a 07       		.byte	7
 7400 047b 07       		.byte	7
 7401 047c 02       		.byte	2
 7402 047d 06       		.byte	6
 7403 047e 02       		.byte	2
 7404 047f 06       		.byte	6
 7405 0480 03       		.byte	3
 7406 0481 03       		.byte	3
 7407 0482 03       		.byte	3
 7408 0483 03       		.byte	3
 7409 0484 02       		.byte	2
 7410 0485 02       		.byte	2
 7411 0486 02       		.byte	2
 7412 0487 02       		.byte	2
 7413 0488 04       		.byte	4
 7414 0489 04       		.byte	4
 7415 048a 04       		.byte	4
 7416 048b 04       		.byte	4
 7417 048c 02       		.byte	2
 7418 048d 06       		.byte	6
 7419 048e 02       		.byte	2
 7420 048f 06       		.byte	6
 7421 0490 04       		.byte	4
 7422 0491 04       		.byte	4
 7423 0492 04       		.byte	4
 7424 0493 04       		.byte	4
 7425 0494 02       		.byte	2
 7426 0495 05       		.byte	5
 7427 0496 02       		.byte	2
 7428 0497 05       		.byte	5
 7429 0498 05       		.byte	5
 7430 0499 05       		.byte	5
 7431 049a 05       		.byte	5
 7432 049b 05       		.byte	5
 7433 049c 02       		.byte	2
 7434 049d 06       		.byte	6
 7435 049e 02       		.byte	2
 7436 049f 06       		.byte	6
 7437 04a0 03       		.byte	3
 7438 04a1 03       		.byte	3
 7439 04a2 03       		.byte	3
 7440 04a3 03       		.byte	3
 7441 04a4 02       		.byte	2
 7442 04a5 02       		.byte	2
 7443 04a6 02       		.byte	2
 7444 04a7 02       		.byte	2
 7445 04a8 04       		.byte	4
 7446 04a9 04       		.byte	4
 7447 04aa 04       		.byte	4
 7448 04ab 04       		.byte	4
 7449 04ac 02       		.byte	2
 7450 04ad 05       		.byte	5
 7451 04ae 02       		.byte	2
 7452 04af 05       		.byte	5
 7453 04b0 04       		.byte	4
 7454 04b1 04       		.byte	4
 7455 04b2 04       		.byte	4
ARM GAS  /cygdrive/c/Users/Zbyszko/AppData/Local/Temp/cc6jOyxc.s 			page 140


 7456 04b3 04       		.byte	4
 7457 04b4 02       		.byte	2
 7458 04b5 04       		.byte	4
 7459 04b6 02       		.byte	2
 7460 04b7 05       		.byte	5
 7461 04b8 04       		.byte	4
 7462 04b9 04       		.byte	4
 7463 04ba 04       		.byte	4
 7464 04bb 04       		.byte	4
 7465 04bc 02       		.byte	2
 7466 04bd 06       		.byte	6
 7467 04be 02       		.byte	2
 7468 04bf 08       		.byte	8
 7469 04c0 03       		.byte	3
 7470 04c1 03       		.byte	3
 7471 04c2 05       		.byte	5
 7472 04c3 05       		.byte	5
 7473 04c4 02       		.byte	2
 7474 04c5 02       		.byte	2
 7475 04c6 02       		.byte	2
 7476 04c7 02       		.byte	2
 7477 04c8 04       		.byte	4
 7478 04c9 04       		.byte	4
 7479 04ca 06       		.byte	6
 7480 04cb 06       		.byte	6
 7481 04cc 02       		.byte	2
 7482 04cd 05       		.byte	5
 7483 04ce 02       		.byte	2
 7484 04cf 08       		.byte	8
 7485 04d0 04       		.byte	4
 7486 04d1 04       		.byte	4
 7487 04d2 06       		.byte	6
 7488 04d3 06       		.byte	6
 7489 04d4 02       		.byte	2
 7490 04d5 04       		.byte	4
 7491 04d6 02       		.byte	2
 7492 04d7 07       		.byte	7
 7493 04d8 05       		.byte	5
 7494 04d9 05       		.byte	5
 7495 04da 07       		.byte	7
 7496 04db 07       		.byte	7
 7497 04dc 02       		.byte	2
 7498 04dd 06       		.byte	6
 7499 04de 02       		.byte	2
 7500 04df 08       		.byte	8
 7501 04e0 03       		.byte	3
 7502 04e1 03       		.byte	3
 7503 04e2 05       		.byte	5
 7504 04e3 05       		.byte	5
 7505 04e4 02       		.byte	2
 7506 04e5 02       		.byte	2
 7507 04e6 02       		.byte	2
 7508 04e7 02       		.byte	2
 7509 04e8 04       		.byte	4
 7510 04e9 04       		.byte	4
 7511 04ea 06       		.byte	6
 7512 04eb 06       		.byte	6
ARM GAS  /cygdrive/c/Users/Zbyszko/AppData/Local/Temp/cc6jOyxc.s 			page 141


 7513 04ec 02       		.byte	2
 7514 04ed 05       		.byte	5
 7515 04ee 02       		.byte	2
 7516 04ef 08       		.byte	8
 7517 04f0 04       		.byte	4
 7518 04f1 04       		.byte	4
 7519 04f2 06       		.byte	6
 7520 04f3 06       		.byte	6
 7521 04f4 02       		.byte	2
 7522 04f5 04       		.byte	4
 7523 04f6 02       		.byte	2
 7524 04f7 07       		.byte	7
 7525 04f8 05       		.byte	5
 7526 04f9 05       		.byte	5
 7527 04fa 07       		.byte	7
 7528 04fb 07       		.byte	7
 7529              		.section	.debug_frame,"",%progbits
 7530              	.Lframe0:
 7531 0000 0C000000 		.4byte	.LECIE0-.LSCIE0
 7532              	.LSCIE0:
 7533 0004 FFFFFFFF 		.4byte	0xffffffff
 7534 0008 01       		.byte	0x1
 7535 0009 00       		.ascii	"\000"
 7536 000a 01       		.uleb128 0x1
 7537 000b 7C       		.sleb128 -4
 7538 000c 0E       		.byte	0xe
 7539 000d 0C       		.byte	0xc
 7540 000e 0D       		.uleb128 0xd
 7541 000f 00       		.uleb128 0x0
 7542              		.align	2
 7543              	.LECIE0:
 7544              	.LSFDE0:
 7545 0010 18000000 		.4byte	.LEFDE0-.LASFDE0
 7546              	.LASFDE0:
 7547 0014 00000000 		.4byte	.Lframe0
 7548 0018 00000000 		.4byte	.LFB2
 7549 001c 3C000000 		.4byte	.LFE2-.LFB2
 7550 0020 42       		.byte	0x4
 7551              		.4byte	.LCFI0-.LFB2
 7552 0021 0E       		.byte	0xe
 7553 0022 0C       		.uleb128 0xc
 7554 0023 84       		.byte	0x84
 7555 0024 03       		.uleb128 0x3
 7556 0025 85       		.byte	0x85
 7557 0026 02       		.uleb128 0x2
 7558 0027 8E       		.byte	0x8e
 7559 0028 01       		.uleb128 0x1
 7560 0029 000000   		.align	2
 7561              	.LEFDE0:
 7562              	.LSFDE2:
 7563 002c 1C000000 		.4byte	.LEFDE2-.LASFDE2
 7564              	.LASFDE2:
 7565 0030 00000000 		.4byte	.Lframe0
 7566 0034 3C000000 		.4byte	.LFB3
 7567 0038 DC310000 		.4byte	.LFE3-.LFB3
 7568 003c 42       		.byte	0x4
 7569              		.4byte	.LCFI1-.LFB3
ARM GAS  /cygdrive/c/Users/Zbyszko/AppData/Local/Temp/cc6jOyxc.s 			page 142


 7570 003d 0E       		.byte	0xe
 7571 003e 14       		.uleb128 0x14
 7572 003f 84       		.byte	0x84
 7573 0040 05       		.uleb128 0x5
 7574 0041 85       		.byte	0x85
 7575 0042 04       		.uleb128 0x4
 7576 0043 86       		.byte	0x86
 7577 0044 03       		.uleb128 0x3
 7578 0045 87       		.byte	0x87
 7579 0046 02       		.uleb128 0x2
 7580 0047 8E       		.byte	0x8e
 7581 0048 01       		.uleb128 0x1
 7582 0049 4A       		.byte	0x4
 7583              		.4byte	.LCFI2-.LCFI1
 7584 004a 0E       		.byte	0xe
 7585 004b 18       		.uleb128 0x18
 7586              		.align	2
 7587              	.LEFDE2:
 7588              		.file 3 "M6502.h"
 7589              		.file 4 "Tables.h"
 7590              		.text
 7591              	.Letext0:
 7592              		.section	.debug_loc,"",%progbits
 7593              	.Ldebug_loc0:
 7594              	.LLST0:
 7595 0000 00000000 		.4byte	.LFB2-.Ltext0
 7596 0004 02000000 		.4byte	.LCFI0-.Ltext0
 7597 0008 0100     		.2byte	0x1
 7598 000a 5D       		.byte	0x5d
 7599 000b 02000000 		.4byte	.LCFI0-.Ltext0
 7600 000f 3C000000 		.4byte	.LFE2-.Ltext0
 7601 0013 0200     		.2byte	0x2
 7602 0015 7D       		.byte	0x7d
 7603 0016 0C       		.sleb128 12
 7604 0017 00000000 		.4byte	0x0
 7605 001b 00000000 		.4byte	0x0
 7606              	.LLST1:
 7607 001f 02000000 		.4byte	.LVL0-.Ltext0
 7608 0023 18000000 		.4byte	.LVL1-.Ltext0
 7609 0027 0100     		.2byte	0x1
 7610 0029 50       		.byte	0x50
 7611 002a 18000000 		.4byte	.LVL1-.Ltext0
 7612 002e 2E000000 		.4byte	.LVL2-.Ltext0
 7613 0032 0100     		.2byte	0x1
 7614 0034 54       		.byte	0x54
 7615 0035 00000000 		.4byte	0x0
 7616 0039 00000000 		.4byte	0x0
 7617              	.LLST2:
 7618 003d 3C000000 		.4byte	.LFB3-.Ltext0
 7619 0041 3E000000 		.4byte	.LCFI1-.Ltext0
 7620 0045 0100     		.2byte	0x1
 7621 0047 5D       		.byte	0x5d
 7622 0048 3E000000 		.4byte	.LCFI1-.Ltext0
 7623 004c 48000000 		.4byte	.LCFI2-.Ltext0
 7624 0050 0200     		.2byte	0x2
 7625 0052 7D       		.byte	0x7d
 7626 0053 14       		.sleb128 20
ARM GAS  /cygdrive/c/Users/Zbyszko/AppData/Local/Temp/cc6jOyxc.s 			page 143


 7627 0054 48000000 		.4byte	.LCFI2-.Ltext0
 7628 0058 18320000 		.4byte	.LFE3-.Ltext0
 7629 005c 0200     		.2byte	0x2
 7630 005e 7D       		.byte	0x7d
 7631 005f 18       		.sleb128 24
 7632 0060 00000000 		.4byte	0x0
 7633 0064 00000000 		.4byte	0x0
 7634              	.LLST3:
 7635 0068 3E000000 		.4byte	.LVL3-.Ltext0
 7636 006c 42000000 		.4byte	.LVL4-.Ltext0
 7637 0070 0100     		.2byte	0x1
 7638 0072 50       		.byte	0x50
 7639 0073 42000000 		.4byte	.LVL4-.Ltext0
 7640 0077 06320000 		.4byte	.LVL310-.Ltext0
 7641 007b 0100     		.2byte	0x1
 7642 007d 56       		.byte	0x56
 7643 007e 00000000 		.4byte	0x0
 7644 0082 00000000 		.4byte	0x0
 7645              	.LLST4:
 7646 0086 98050000 		.4byte	.LVL15-.Ltext0
 7647 008a E0050000 		.4byte	.LVL17-.Ltext0
 7648 008e 0100     		.2byte	0x1
 7649 0090 57       		.byte	0x57
 7650 0091 7A0B0000 		.4byte	.LVL44-.Ltext0
 7651 0095 BA0B0000 		.4byte	.LVL45-.Ltext0
 7652 0099 0100     		.2byte	0x1
 7653 009b 57       		.byte	0x57
 7654 009c C60B0000 		.4byte	.LVL46-.Ltext0
 7655 00a0 240C0000 		.4byte	.LVL47-.Ltext0
 7656 00a4 0100     		.2byte	0x1
 7657 00a6 57       		.byte	0x57
 7658 00a7 2E0C0000 		.4byte	.LVL48-.Ltext0
 7659 00ab 6C0C0000 		.4byte	.LVL49-.Ltext0
 7660 00af 0100     		.2byte	0x1
 7661 00b1 57       		.byte	0x57
 7662 00b2 780C0000 		.4byte	.LVL50-.Ltext0
 7663 00b6 AA0C0000 		.4byte	.LVL51-.Ltext0
 7664 00ba 0100     		.2byte	0x1
 7665 00bc 57       		.byte	0x57
 7666 00bd EA0C0000 		.4byte	.LVL53-.Ltext0
 7667 00c1 2A0D0000 		.4byte	.LVL54-.Ltext0
 7668 00c5 0100     		.2byte	0x1
 7669 00c7 57       		.byte	0x57
 7670 00c8 360D0000 		.4byte	.LVL55-.Ltext0
 7671 00cc 820D0000 		.4byte	.LVL56-.Ltext0
 7672 00d0 0100     		.2byte	0x1
 7673 00d2 57       		.byte	0x57
 7674 00d3 8E0D0000 		.4byte	.LVL57-.Ltext0
 7675 00d7 B40D0000 		.4byte	.LVL58-.Ltext0
 7676 00db 0100     		.2byte	0x1
 7677 00dd 57       		.byte	0x57
 7678 00de 980E0000 		.4byte	.LVL67-.Ltext0
 7679 00e2 B80E0000 		.4byte	.LVL68-.Ltext0
 7680 00e6 0100     		.2byte	0x1
 7681 00e8 57       		.byte	0x57
 7682 00e9 040F0000 		.4byte	.LVL71-.Ltext0
 7683 00ed 2E0F0000 		.4byte	.LVL72-.Ltext0
ARM GAS  /cygdrive/c/Users/Zbyszko/AppData/Local/Temp/cc6jOyxc.s 			page 144


 7684 00f1 0100     		.2byte	0x1
 7685 00f3 57       		.byte	0x57
 7686 00f4 380F0000 		.4byte	.LVL73-.Ltext0
 7687 00f8 640F0000 		.4byte	.LVL74-.Ltext0
 7688 00fc 0100     		.2byte	0x1
 7689 00fe 57       		.byte	0x57
 7690 00ff 700F0000 		.4byte	.LVL75-.Ltext0
 7691 0103 9A0F0000 		.4byte	.LVL76-.Ltext0
 7692 0107 0100     		.2byte	0x1
 7693 0109 57       		.byte	0x57
 7694 010a A60F0000 		.4byte	.LVL77-.Ltext0
 7695 010e EC0F0000 		.4byte	.LVL78-.Ltext0
 7696 0112 0100     		.2byte	0x1
 7697 0114 57       		.byte	0x57
 7698 0115 F60F0000 		.4byte	.LVL79-.Ltext0
 7699 0119 30100000 		.4byte	.LVL80-.Ltext0
 7700 011d 0100     		.2byte	0x1
 7701 011f 57       		.byte	0x57
 7702 0120 3C100000 		.4byte	.LVL81-.Ltext0
 7703 0124 74100000 		.4byte	.LVL82-.Ltext0
 7704 0128 0100     		.2byte	0x1
 7705 012a 57       		.byte	0x57
 7706 012b 80100000 		.4byte	.LVL83-.Ltext0
 7707 012f DA100000 		.4byte	.LVL85-.Ltext0
 7708 0133 0100     		.2byte	0x1
 7709 0135 57       		.byte	0x57
 7710 0136 E4100000 		.4byte	.LVL86-.Ltext0
 7711 013a 40110000 		.4byte	.LVL88-.Ltext0
 7712 013e 0100     		.2byte	0x1
 7713 0140 57       		.byte	0x57
 7714 0141 4C110000 		.4byte	.LVL89-.Ltext0
 7715 0145 92110000 		.4byte	.LVL90-.Ltext0
 7716 0149 0100     		.2byte	0x1
 7717 014b 57       		.byte	0x57
 7718 014c 9E110000 		.4byte	.LVL91-.Ltext0
 7719 0150 F8110000 		.4byte	.LVL93-.Ltext0
 7720 0154 0100     		.2byte	0x1
 7721 0156 57       		.byte	0x57
 7722 0157 04120000 		.4byte	.LVL94-.Ltext0
 7723 015b 2A120000 		.4byte	.LVL95-.Ltext0
 7724 015f 0100     		.2byte	0x1
 7725 0161 57       		.byte	0x57
 7726 0162 24130000 		.4byte	.LVL104-.Ltext0
 7727 0166 6A130000 		.4byte	.LVL105-.Ltext0
 7728 016a 0100     		.2byte	0x1
 7729 016c 57       		.byte	0x57
 7730 016d 361C0000 		.4byte	.LVL150-.Ltext0
 7731 0171 7A1C0000 		.4byte	.LVL151-.Ltext0
 7732 0175 0100     		.2byte	0x1
 7733 0177 57       		.byte	0x57
 7734 0178 861C0000 		.4byte	.LVL152-.Ltext0
 7735 017c CA1C0000 		.4byte	.LVL153-.Ltext0
 7736 0180 0100     		.2byte	0x1
 7737 0182 57       		.byte	0x57
 7738 0183 D41C0000 		.4byte	.LVL154-.Ltext0
 7739 0187 2A1D0000 		.4byte	.LVL155-.Ltext0
 7740 018b 0100     		.2byte	0x1
ARM GAS  /cygdrive/c/Users/Zbyszko/AppData/Local/Temp/cc6jOyxc.s 			page 145


 7741 018d 57       		.byte	0x57
 7742 018e 361D0000 		.4byte	.LVL156-.Ltext0
 7743 0192 761D0000 		.4byte	.LVL157-.Ltext0
 7744 0196 0100     		.2byte	0x1
 7745 0198 57       		.byte	0x57
 7746 0199 821D0000 		.4byte	.LVL158-.Ltext0
 7747 019d C21D0000 		.4byte	.LVL159-.Ltext0
 7748 01a1 0100     		.2byte	0x1
 7749 01a3 57       		.byte	0x57
 7750 01a4 CE1D0000 		.4byte	.LVL160-.Ltext0
 7751 01a8 041E0000 		.4byte	.LVL161-.Ltext0
 7752 01ac 0100     		.2byte	0x1
 7753 01ae 57       		.byte	0x57
 7754 01af 441E0000 		.4byte	.LVL163-.Ltext0
 7755 01b3 881E0000 		.4byte	.LVL164-.Ltext0
 7756 01b7 0100     		.2byte	0x1
 7757 01b9 57       		.byte	0x57
 7758 01ba 941E0000 		.4byte	.LVL165-.Ltext0
 7759 01be E41E0000 		.4byte	.LVL166-.Ltext0
 7760 01c2 0100     		.2byte	0x1
 7761 01c4 57       		.byte	0x57
 7762 01c5 EE1E0000 		.4byte	.LVL167-.Ltext0
 7763 01c9 401F0000 		.4byte	.LVL168-.Ltext0
 7764 01cd 0100     		.2byte	0x1
 7765 01cf 57       		.byte	0x57
 7766 01d0 4C1F0000 		.4byte	.LVL169-.Ltext0
 7767 01d4 761F0000 		.4byte	.LVL170-.Ltext0
 7768 01d8 0100     		.2byte	0x1
 7769 01da 57       		.byte	0x57
 7770 01db 58200000 		.4byte	.LVL179-.Ltext0
 7771 01df 82200000 		.4byte	.LVL180-.Ltext0
 7772 01e3 0100     		.2byte	0x1
 7773 01e5 57       		.byte	0x57
 7774 01e6 64210000 		.4byte	.LVL189-.Ltext0
 7775 01ea 88210000 		.4byte	.LVL190-.Ltext0
 7776 01ee 0100     		.2byte	0x1
 7777 01f0 57       		.byte	0x57
 7778 01f1 D4210000 		.4byte	.LVL193-.Ltext0
 7779 01f5 02220000 		.4byte	.LVL194-.Ltext0
 7780 01f9 0100     		.2byte	0x1
 7781 01fb 57       		.byte	0x57
 7782 01fc 0C220000 		.4byte	.LVL195-.Ltext0
 7783 0200 3C220000 		.4byte	.LVL196-.Ltext0
 7784 0204 0100     		.2byte	0x1
 7785 0206 57       		.byte	0x57
 7786 0207 48220000 		.4byte	.LVL197-.Ltext0
 7787 020b 90220000 		.4byte	.LVL198-.Ltext0
 7788 020f 0100     		.2byte	0x1
 7789 0211 57       		.byte	0x57
 7790 0212 9C220000 		.4byte	.LVL199-.Ltext0
 7791 0216 D8220000 		.4byte	.LVL200-.Ltext0
 7792 021a 0100     		.2byte	0x1
 7793 021c 57       		.byte	0x57
 7794 021d E2220000 		.4byte	.LVL201-.Ltext0
 7795 0221 20230000 		.4byte	.LVL202-.Ltext0
 7796 0225 0100     		.2byte	0x1
 7797 0227 57       		.byte	0x57
ARM GAS  /cygdrive/c/Users/Zbyszko/AppData/Local/Temp/cc6jOyxc.s 			page 146


 7798 0228 2C230000 		.4byte	.LVL203-.Ltext0
 7799 022c 68230000 		.4byte	.LVL204-.Ltext0
 7800 0230 0100     		.2byte	0x1
 7801 0232 57       		.byte	0x57
 7802 0233 74230000 		.4byte	.LVL205-.Ltext0
 7803 0237 D2230000 		.4byte	.LVL207-.Ltext0
 7804 023b 0100     		.2byte	0x1
 7805 023d 57       		.byte	0x57
 7806 023e DC230000 		.4byte	.LVL208-.Ltext0
 7807 0242 3C240000 		.4byte	.LVL210-.Ltext0
 7808 0246 0100     		.2byte	0x1
 7809 0248 57       		.byte	0x57
 7810 0249 48240000 		.4byte	.LVL211-.Ltext0
 7811 024d 92240000 		.4byte	.LVL212-.Ltext0
 7812 0251 0100     		.2byte	0x1
 7813 0253 57       		.byte	0x57
 7814 0254 9E240000 		.4byte	.LVL213-.Ltext0
 7815 0258 E6240000 		.4byte	.LVL215-.Ltext0
 7816 025c 0100     		.2byte	0x1
 7817 025e 57       		.byte	0x57
 7818 025f 62250000 		.4byte	.LVL217-.Ltext0
 7819 0263 78250000 		.4byte	.LVL220-.Ltext0
 7820 0267 0100     		.2byte	0x1
 7821 0269 57       		.byte	0x57
 7822 026a D0250000 		.4byte	.LVL223-.Ltext0
 7823 026e 18260000 		.4byte	.LVL225-.Ltext0
 7824 0272 0100     		.2byte	0x1
 7825 0274 57       		.byte	0x57
 7826 0275 94260000 		.4byte	.LVL227-.Ltext0
 7827 0279 AA260000 		.4byte	.LVL230-.Ltext0
 7828 027d 0100     		.2byte	0x1
 7829 027f 57       		.byte	0x57
 7830 0280 F4260000 		.4byte	.LVL233-.Ltext0
 7831 0284 3E270000 		.4byte	.LVL234-.Ltext0
 7832 0288 0100     		.2byte	0x1
 7833 028a 57       		.byte	0x57
 7834 028b 6A270000 		.4byte	.LVL236-.Ltext0
 7835 028f A8270000 		.4byte	.LVL237-.Ltext0
 7836 0293 0100     		.2byte	0x1
 7837 0295 57       		.byte	0x57
 7838 0296 D0270000 		.4byte	.LVL239-.Ltext0
 7839 029a 14280000 		.4byte	.LVL240-.Ltext0
 7840 029e 0100     		.2byte	0x1
 7841 02a0 57       		.byte	0x57
 7842 02a1 40280000 		.4byte	.LVL242-.Ltext0
 7843 02a5 7A280000 		.4byte	.LVL243-.Ltext0
 7844 02a9 0100     		.2byte	0x1
 7845 02ab 57       		.byte	0x57
 7846 02ac A4280000 		.4byte	.LVL245-.Ltext0
 7847 02b0 E2280000 		.4byte	.LVL246-.Ltext0
 7848 02b4 0100     		.2byte	0x1
 7849 02b6 57       		.byte	0x57
 7850 02b7 0C290000 		.4byte	.LVL248-.Ltext0
 7851 02bb 58290000 		.4byte	.LVL249-.Ltext0
 7852 02bf 0100     		.2byte	0x1
 7853 02c1 57       		.byte	0x57
 7854 02c2 82290000 		.4byte	.LVL251-.Ltext0
ARM GAS  /cygdrive/c/Users/Zbyszko/AppData/Local/Temp/cc6jOyxc.s 			page 147


 7855 02c6 C4290000 		.4byte	.LVL252-.Ltext0
 7856 02ca 0100     		.2byte	0x1
 7857 02cc 57       		.byte	0x57
 7858 02cd EE290000 		.4byte	.LVL254-.Ltext0
 7859 02d1 122A0000 		.4byte	.LVL255-.Ltext0
 7860 02d5 0100     		.2byte	0x1
 7861 02d7 57       		.byte	0x57
 7862 02d8 0E2B0000 		.4byte	.LVL262-.Ltext0
 7863 02dc 362B0000 		.4byte	.LVL263-.Ltext0
 7864 02e0 0100     		.2byte	0x1
 7865 02e2 57       		.byte	0x57
 7866 02e3 342C0000 		.4byte	.LVL270-.Ltext0
 7867 02e7 5A2C0000 		.4byte	.LVL271-.Ltext0
 7868 02eb 0100     		.2byte	0x1
 7869 02ed 57       		.byte	0x57
 7870 02ee 822C0000 		.4byte	.LVL273-.Ltext0
 7871 02f2 AE2C0000 		.4byte	.LVL274-.Ltext0
 7872 02f6 0100     		.2byte	0x1
 7873 02f8 57       		.byte	0x57
 7874 02f9 DA2C0000 		.4byte	.LVL276-.Ltext0
 7875 02fd 1C2D0000 		.4byte	.LVL277-.Ltext0
 7876 0301 0100     		.2byte	0x1
 7877 0303 57       		.byte	0x57
 7878 0304 462D0000 		.4byte	.LVL279-.Ltext0
 7879 0308 7E2D0000 		.4byte	.LVL280-.Ltext0
 7880 030c 0100     		.2byte	0x1
 7881 030e 57       		.byte	0x57
 7882 030f AA2D0000 		.4byte	.LVL282-.Ltext0
 7883 0313 002E0000 		.4byte	.LVL283-.Ltext0
 7884 0317 0100     		.2byte	0x1
 7885 0319 57       		.byte	0x57
 7886 031a 2C2E0000 		.4byte	.LVL285-.Ltext0
 7887 031e 862E0000 		.4byte	.LVL286-.Ltext0
 7888 0322 0100     		.2byte	0x1
 7889 0324 57       		.byte	0x57
 7890 0325 B02E0000 		.4byte	.LVL288-.Ltext0
 7891 0329 D42E0000 		.4byte	.LVL289-.Ltext0
 7892 032d 0100     		.2byte	0x1
 7893 032f 57       		.byte	0x57
 7894 0330 EA2F0000 		.4byte	.LVL296-.Ltext0
 7895 0334 18300000 		.4byte	.LVL297-.Ltext0
 7896 0338 0100     		.2byte	0x1
 7897 033a 57       		.byte	0x57
 7898 033b 02320000 		.4byte	.LVL307-.Ltext0
 7899 033f 06320000 		.4byte	.LVL311-.Ltext0
 7900 0343 0100     		.2byte	0x1
 7901 0345 57       		.byte	0x57
 7902 0346 00000000 		.4byte	0x0
 7903 034a 00000000 		.4byte	0x0
 7904              	.LLST5:
 7905 034e 3A020000 		.4byte	.LVL5-.Ltext0
 7906 0352 7E020000 		.4byte	.LVL6-.Ltext0
 7907 0356 0100     		.2byte	0x1
 7908 0358 55       		.byte	0x55
 7909 0359 8A020000 		.4byte	.LVL7-.Ltext0
 7910 035d AC020000 		.4byte	.LVL8-.Ltext0
 7911 0361 0100     		.2byte	0x1
ARM GAS  /cygdrive/c/Users/Zbyszko/AppData/Local/Temp/cc6jOyxc.s 			page 148


 7912 0363 55       		.byte	0x55
 7913 0364 B8020000 		.4byte	.LVL9-.Ltext0
 7914 0368 FA020000 		.4byte	.LVL10-.Ltext0
 7915 036c 0100     		.2byte	0x1
 7916 036e 55       		.byte	0x55
 7917 036f 94060000 		.4byte	.LVL18-.Ltext0
 7918 0373 CA060000 		.4byte	.LVL19-.Ltext0
 7919 0377 0100     		.2byte	0x1
 7920 0379 55       		.byte	0x55
 7921 037a 62070000 		.4byte	.LVL21-.Ltext0
 7922 037e C2070000 		.4byte	.LVL23-.Ltext0
 7923 0382 0100     		.2byte	0x1
 7924 0384 55       		.byte	0x55
 7925 0385 CC070000 		.4byte	.LVL25-.Ltext0
 7926 0389 28080000 		.4byte	.LVL27-.Ltext0
 7927 038d 0100     		.2byte	0x1
 7928 038f 55       		.byte	0x55
 7929 0390 44080000 		.4byte	.LVL28-.Ltext0
 7930 0394 76080000 		.4byte	.LVL29-.Ltext0
 7931 0398 0100     		.2byte	0x1
 7932 039a 55       		.byte	0x55
 7933 039b 48090000 		.4byte	.LVL30-.Ltext0
 7934 039f 78090000 		.4byte	.LVL31-.Ltext0
 7935 03a3 0100     		.2byte	0x1
 7936 03a5 55       		.byte	0x55
 7937 03a6 90090000 		.4byte	.LVL32-.Ltext0
 7938 03aa C0090000 		.4byte	.LVL33-.Ltext0
 7939 03ae 0100     		.2byte	0x1
 7940 03b0 55       		.byte	0x55
 7941 03b1 0C0A0000 		.4byte	.LVL34-.Ltext0
 7942 03b5 3C0A0000 		.4byte	.LVL35-.Ltext0
 7943 03b9 0100     		.2byte	0x1
 7944 03bb 55       		.byte	0x55
 7945 03bc 6C0A0000 		.4byte	.LVL37-.Ltext0
 7946 03c0 E60A0000 		.4byte	.LVL39-.Ltext0
 7947 03c4 0100     		.2byte	0x1
 7948 03c6 55       		.byte	0x55
 7949 03c7 F20A0000 		.4byte	.LVL41-.Ltext0
 7950 03cb 3A0B0000 		.4byte	.LVL43-.Ltext0
 7951 03cf 0100     		.2byte	0x1
 7952 03d1 55       		.byte	0x55
 7953 03d2 AA0C0000 		.4byte	.LVL51-.Ltext0
 7954 03d6 DE0C0000 		.4byte	.LVL52-.Ltext0
 7955 03da 0100     		.2byte	0x1
 7956 03dc 55       		.byte	0x55
 7957 03dd D00D0000 		.4byte	.LVL60-.Ltext0
 7958 03e1 320E0000 		.4byte	.LVL62-.Ltext0
 7959 03e5 0100     		.2byte	0x1
 7960 03e7 55       		.byte	0x55
 7961 03e8 3C0E0000 		.4byte	.LVL64-.Ltext0
 7962 03ec 8C0E0000 		.4byte	.LVL66-.Ltext0
 7963 03f0 0100     		.2byte	0x1
 7964 03f2 55       		.byte	0x55
 7965 03f3 C80E0000 		.4byte	.LVL69-.Ltext0
 7966 03f7 F80E0000 		.4byte	.LVL70-.Ltext0
 7967 03fb 0100     		.2byte	0x1
 7968 03fd 55       		.byte	0x55
ARM GAS  /cygdrive/c/Users/Zbyszko/AppData/Local/Temp/cc6jOyxc.s 			page 149


 7969 03fe AA100000 		.4byte	.LVL84-.Ltext0
 7970 0402 DA100000 		.4byte	.LVL85-.Ltext0
 7971 0406 0100     		.2byte	0x1
 7972 0408 55       		.byte	0x55
 7973 0409 10110000 		.4byte	.LVL87-.Ltext0
 7974 040d 40110000 		.4byte	.LVL88-.Ltext0
 7975 0411 0100     		.2byte	0x1
 7976 0413 55       		.byte	0x55
 7977 0414 C8110000 		.4byte	.LVL92-.Ltext0
 7978 0418 F8110000 		.4byte	.LVL93-.Ltext0
 7979 041c 0100     		.2byte	0x1
 7980 041e 55       		.byte	0x55
 7981 041f 48120000 		.4byte	.LVL97-.Ltext0
 7982 0423 C4120000 		.4byte	.LVL99-.Ltext0
 7983 0427 0100     		.2byte	0x1
 7984 0429 55       		.byte	0x55
 7985 042a D0120000 		.4byte	.LVL101-.Ltext0
 7986 042e 18130000 		.4byte	.LVL103-.Ltext0
 7987 0432 0100     		.2byte	0x1
 7988 0434 55       		.byte	0x55
 7989 0435 0C140000 		.4byte	.LVL107-.Ltext0
 7990 0439 6C140000 		.4byte	.LVL109-.Ltext0
 7991 043d 0100     		.2byte	0x1
 7992 043f 55       		.byte	0x55
 7993 0440 76140000 		.4byte	.LVL111-.Ltext0
 7994 0444 C6140000 		.4byte	.LVL113-.Ltext0
 7995 0448 0100     		.2byte	0x1
 7996 044a 55       		.byte	0x55
 7997 044b 30150000 		.4byte	.LVL114-.Ltext0
 7998 044f 60150000 		.4byte	.LVL115-.Ltext0
 7999 0453 0100     		.2byte	0x1
 8000 0455 55       		.byte	0x55
 8001 0456 70150000 		.4byte	.LVL116-.Ltext0
 8002 045a A0150000 		.4byte	.LVL117-.Ltext0
 8003 045e 0100     		.2byte	0x1
 8004 0460 55       		.byte	0x55
 8005 0461 B0150000 		.4byte	.LVL118-.Ltext0
 8006 0465 E0150000 		.4byte	.LVL119-.Ltext0
 8007 0469 0100     		.2byte	0x1
 8008 046b 55       		.byte	0x55
 8009 046c 08160000 		.4byte	.LVL121-.Ltext0
 8010 0470 82160000 		.4byte	.LVL123-.Ltext0
 8011 0474 0100     		.2byte	0x1
 8012 0476 55       		.byte	0x55
 8013 0477 8E160000 		.4byte	.LVL125-.Ltext0
 8014 047b D6160000 		.4byte	.LVL127-.Ltext0
 8015 047f 0100     		.2byte	0x1
 8016 0481 55       		.byte	0x55
 8017 0482 A6170000 		.4byte	.LVL128-.Ltext0
 8018 0486 DC170000 		.4byte	.LVL129-.Ltext0
 8019 048a 0100     		.2byte	0x1
 8020 048c 55       		.byte	0x55
 8021 048d 80180000 		.4byte	.LVL131-.Ltext0
 8022 0491 E0180000 		.4byte	.LVL133-.Ltext0
 8023 0495 0100     		.2byte	0x1
 8024 0497 55       		.byte	0x55
 8025 0498 EA180000 		.4byte	.LVL135-.Ltext0
ARM GAS  /cygdrive/c/Users/Zbyszko/AppData/Local/Temp/cc6jOyxc.s 			page 150


 8026 049c 3A190000 		.4byte	.LVL137-.Ltext0
 8027 04a0 0100     		.2byte	0x1
 8028 04a2 55       		.byte	0x55
 8029 04a3 5A190000 		.4byte	.LVL138-.Ltext0
 8030 04a7 8C190000 		.4byte	.LVL139-.Ltext0
 8031 04ab 0100     		.2byte	0x1
 8032 04ad 55       		.byte	0x55
 8033 04ae 7A1A0000 		.4byte	.LVL140-.Ltext0
 8034 04b2 AA1A0000 		.4byte	.LVL141-.Ltext0
 8035 04b6 0100     		.2byte	0x1
 8036 04b8 55       		.byte	0x55
 8037 04b9 241B0000 		.4byte	.LVL143-.Ltext0
 8038 04bd 9E1B0000 		.4byte	.LVL145-.Ltext0
 8039 04c1 0100     		.2byte	0x1
 8040 04c3 55       		.byte	0x55
 8041 04c4 AA1B0000 		.4byte	.LVL147-.Ltext0
 8042 04c8 F21B0000 		.4byte	.LVL149-.Ltext0
 8043 04cc 0100     		.2byte	0x1
 8044 04ce 55       		.byte	0x55
 8045 04cf 041E0000 		.4byte	.LVL161-.Ltext0
 8046 04d3 381E0000 		.4byte	.LVL162-.Ltext0
 8047 04d7 0100     		.2byte	0x1
 8048 04d9 55       		.byte	0x55
 8049 04da 901F0000 		.4byte	.LVL172-.Ltext0
 8050 04de F21F0000 		.4byte	.LVL174-.Ltext0
 8051 04e2 0100     		.2byte	0x1
 8052 04e4 55       		.byte	0x55
 8053 04e5 FC1F0000 		.4byte	.LVL176-.Ltext0
 8054 04e9 4C200000 		.4byte	.LVL178-.Ltext0
 8055 04ed 0100     		.2byte	0x1
 8056 04ef 55       		.byte	0x55
 8057 04f0 9C200000 		.4byte	.LVL182-.Ltext0
 8058 04f4 FE200000 		.4byte	.LVL184-.Ltext0
 8059 04f8 0100     		.2byte	0x1
 8060 04fa 55       		.byte	0x55
 8061 04fb 08210000 		.4byte	.LVL186-.Ltext0
 8062 04ff 58210000 		.4byte	.LVL188-.Ltext0
 8063 0503 0100     		.2byte	0x1
 8064 0505 55       		.byte	0x55
 8065 0506 98210000 		.4byte	.LVL191-.Ltext0
 8066 050a C8210000 		.4byte	.LVL192-.Ltext0
 8067 050e 0100     		.2byte	0x1
 8068 0510 55       		.byte	0x55
 8069 0511 A2230000 		.4byte	.LVL206-.Ltext0
 8070 0515 D2230000 		.4byte	.LVL207-.Ltext0
 8071 0519 0100     		.2byte	0x1
 8072 051b 55       		.byte	0x55
 8073 051c 0C240000 		.4byte	.LVL209-.Ltext0
 8074 0520 3C240000 		.4byte	.LVL210-.Ltext0
 8075 0524 0100     		.2byte	0x1
 8076 0526 55       		.byte	0x55
 8077 0527 E6240000 		.4byte	.LVL215-.Ltext0
 8078 052b 62250000 		.4byte	.LVL217-.Ltext0
 8079 052f 0100     		.2byte	0x1
 8080 0531 55       		.byte	0x55
 8081 0532 6E250000 		.4byte	.LVL219-.Ltext0
 8082 0536 C4250000 		.4byte	.LVL222-.Ltext0
ARM GAS  /cygdrive/c/Users/Zbyszko/AppData/Local/Temp/cc6jOyxc.s 			page 151


 8083 053a 0100     		.2byte	0x1
 8084 053c 55       		.byte	0x55
 8085 053d 18260000 		.4byte	.LVL225-.Ltext0
 8086 0541 94260000 		.4byte	.LVL227-.Ltext0
 8087 0545 0100     		.2byte	0x1
 8088 0547 55       		.byte	0x55
 8089 0548 A0260000 		.4byte	.LVL229-.Ltext0
 8090 054c E8260000 		.4byte	.LVL232-.Ltext0
 8091 0550 0100     		.2byte	0x1
 8092 0552 55       		.byte	0x55
 8093 0553 4E270000 		.4byte	.LVL235-.Ltext0
 8094 0557 A8270000 		.4byte	.LVL237-.Ltext0
 8095 055b 0100     		.2byte	0x1
 8096 055d 55       		.byte	0x55
 8097 055e B4270000 		.4byte	.LVL238-.Ltext0
 8098 0562 14280000 		.4byte	.LVL240-.Ltext0
 8099 0566 0100     		.2byte	0x1
 8100 0568 55       		.byte	0x55
 8101 0569 24280000 		.4byte	.LVL241-.Ltext0
 8102 056d 7A280000 		.4byte	.LVL243-.Ltext0
 8103 0571 0100     		.2byte	0x1
 8104 0573 55       		.byte	0x55
 8105 0574 86280000 		.4byte	.LVL244-.Ltext0
 8106 0578 E2280000 		.4byte	.LVL246-.Ltext0
 8107 057c 0100     		.2byte	0x1
 8108 057e 55       		.byte	0x55
 8109 057f F2280000 		.4byte	.LVL247-.Ltext0
 8110 0583 58290000 		.4byte	.LVL249-.Ltext0
 8111 0587 0100     		.2byte	0x1
 8112 0589 55       		.byte	0x55
 8113 058a 64290000 		.4byte	.LVL250-.Ltext0
 8114 058e C4290000 		.4byte	.LVL252-.Ltext0
 8115 0592 0100     		.2byte	0x1
 8116 0594 55       		.byte	0x55
 8117 0595 D6290000 		.4byte	.LVL253-.Ltext0
 8118 0599 E42A0000 		.4byte	.LVL260-.Ltext0
 8119 059d 0100     		.2byte	0x1
 8120 059f 55       		.byte	0x55
 8121 05a0 F22A0000 		.4byte	.LVL261-.Ltext0
 8122 05a4 082C0000 		.4byte	.LVL268-.Ltext0
 8123 05a8 0100     		.2byte	0x1
 8124 05aa 55       		.byte	0x55
 8125 05ab 182C0000 		.4byte	.LVL269-.Ltext0
 8126 05af 5A2C0000 		.4byte	.LVL271-.Ltext0
 8127 05b3 0100     		.2byte	0x1
 8128 05b5 55       		.byte	0x55
 8129 05b6 662C0000 		.4byte	.LVL272-.Ltext0
 8130 05ba AE2C0000 		.4byte	.LVL274-.Ltext0
 8131 05be 0100     		.2byte	0x1
 8132 05c0 55       		.byte	0x55
 8133 05c1 BE2C0000 		.4byte	.LVL275-.Ltext0
 8134 05c5 1C2D0000 		.4byte	.LVL277-.Ltext0
 8135 05c9 0100     		.2byte	0x1
 8136 05cb 55       		.byte	0x55
 8137 05cc 282D0000 		.4byte	.LVL278-.Ltext0
 8138 05d0 7E2D0000 		.4byte	.LVL280-.Ltext0
 8139 05d4 0100     		.2byte	0x1
ARM GAS  /cygdrive/c/Users/Zbyszko/AppData/Local/Temp/cc6jOyxc.s 			page 152


 8140 05d6 55       		.byte	0x55
 8141 05d7 8E2D0000 		.4byte	.LVL281-.Ltext0
 8142 05db 002E0000 		.4byte	.LVL283-.Ltext0
 8143 05df 0100     		.2byte	0x1
 8144 05e1 55       		.byte	0x55
 8145 05e2 0C2E0000 		.4byte	.LVL284-.Ltext0
 8146 05e6 862E0000 		.4byte	.LVL286-.Ltext0
 8147 05ea 0100     		.2byte	0x1
 8148 05ec 55       		.byte	0x55
 8149 05ed 982E0000 		.4byte	.LVL287-.Ltext0
 8150 05f1 C02F0000 		.4byte	.LVL294-.Ltext0
 8151 05f5 0100     		.2byte	0x1
 8152 05f7 55       		.byte	0x55
 8153 05f8 CE2F0000 		.4byte	.LVL295-.Ltext0
 8154 05fc 0A310000 		.4byte	.LVL302-.Ltext0
 8155 0600 0100     		.2byte	0x1
 8156 0602 55       		.byte	0x55
 8157 0603 3A310000 		.4byte	.LVL303-.Ltext0
 8158 0607 68310000 		.4byte	.LVL304-.Ltext0
 8159 060b 0100     		.2byte	0x1
 8160 060d 55       		.byte	0x55
 8161 060e 96310000 		.4byte	.LVL305-.Ltext0
 8162 0612 C6310000 		.4byte	.LVL306-.Ltext0
 8163 0616 0100     		.2byte	0x1
 8164 0618 55       		.byte	0x55
 8165 0619 02320000 		.4byte	.LVL307-.Ltext0
 8166 061d 06320000 		.4byte	.LVL309-.Ltext0
 8167 0621 0100     		.2byte	0x1
 8168 0623 55       		.byte	0x55
 8169 0624 00000000 		.4byte	0x0
 8170 0628 00000000 		.4byte	0x0
 8171              	.LLST6:
 8172 062c 9E030000 		.4byte	.LVL11-.Ltext0
 8173 0630 BA030000 		.4byte	.LVL12-.Ltext0
 8174 0634 0100     		.2byte	0x1
 8175 0636 50       		.byte	0x50
 8176 0637 72050000 		.4byte	.LVL13-.Ltext0
 8177 063b 8C050000 		.4byte	.LVL14-.Ltext0
 8178 063f 0100     		.2byte	0x1
 8179 0641 50       		.byte	0x50
 8180 0642 C6050000 		.4byte	.LVL16-.Ltext0
 8181 0646 E0050000 		.4byte	.LVL17-.Ltext0
 8182 064a 0100     		.2byte	0x1
 8183 064c 50       		.byte	0x50
 8184 064d 5C070000 		.4byte	.LVL20-.Ltext0
 8185 0651 88070000 		.4byte	.LVL22-.Ltext0
 8186 0655 0100     		.2byte	0x1
 8187 0657 50       		.byte	0x50
 8188 0658 CA070000 		.4byte	.LVL24-.Ltext0
 8189 065c 04080000 		.4byte	.LVL26-.Ltext0
 8190 0660 0100     		.2byte	0x1
 8191 0662 50       		.byte	0x50
 8192 0663 5E0A0000 		.4byte	.LVL36-.Ltext0
 8193 0667 A60A0000 		.4byte	.LVL38-.Ltext0
 8194 066b 0100     		.2byte	0x1
 8195 066d 50       		.byte	0x50
 8196 066e EA0A0000 		.4byte	.LVL40-.Ltext0
ARM GAS  /cygdrive/c/Users/Zbyszko/AppData/Local/Temp/cc6jOyxc.s 			page 153


 8197 0672 220B0000 		.4byte	.LVL42-.Ltext0
 8198 0676 0100     		.2byte	0x1
 8199 0678 50       		.byte	0x50
 8200 0679 CA0D0000 		.4byte	.LVL59-.Ltext0
 8201 067d F80D0000 		.4byte	.LVL61-.Ltext0
 8202 0681 0100     		.2byte	0x1
 8203 0683 50       		.byte	0x50
 8204 0684 3A0E0000 		.4byte	.LVL63-.Ltext0
 8205 0688 740E0000 		.4byte	.LVL65-.Ltext0
 8206 068c 0100     		.2byte	0x1
 8207 068e 50       		.byte	0x50
 8208 068f 38120000 		.4byte	.LVL96-.Ltext0
 8209 0693 84120000 		.4byte	.LVL98-.Ltext0
 8210 0697 0100     		.2byte	0x1
 8211 0699 50       		.byte	0x50
 8212 069a C8120000 		.4byte	.LVL100-.Ltext0
 8213 069e 00130000 		.4byte	.LVL102-.Ltext0
 8214 06a2 0100     		.2byte	0x1
 8215 06a4 50       		.byte	0x50
 8216 06a5 06140000 		.4byte	.LVL106-.Ltext0
 8217 06a9 32140000 		.4byte	.LVL108-.Ltext0
 8218 06ad 0100     		.2byte	0x1
 8219 06af 50       		.byte	0x50
 8220 06b0 74140000 		.4byte	.LVL110-.Ltext0
 8221 06b4 AE140000 		.4byte	.LVL112-.Ltext0
 8222 06b8 0100     		.2byte	0x1
 8223 06ba 50       		.byte	0x50
 8224 06bb FA150000 		.4byte	.LVL120-.Ltext0
 8225 06bf 42160000 		.4byte	.LVL122-.Ltext0
 8226 06c3 0100     		.2byte	0x1
 8227 06c5 50       		.byte	0x50
 8228 06c6 86160000 		.4byte	.LVL124-.Ltext0
 8229 06ca BE160000 		.4byte	.LVL126-.Ltext0
 8230 06ce 0100     		.2byte	0x1
 8231 06d0 50       		.byte	0x50
 8232 06d1 7A180000 		.4byte	.LVL130-.Ltext0
 8233 06d5 A6180000 		.4byte	.LVL132-.Ltext0
 8234 06d9 0100     		.2byte	0x1
 8235 06db 50       		.byte	0x50
 8236 06dc E8180000 		.4byte	.LVL134-.Ltext0
 8237 06e0 22190000 		.4byte	.LVL136-.Ltext0
 8238 06e4 0100     		.2byte	0x1
 8239 06e6 50       		.byte	0x50
 8240 06e7 161B0000 		.4byte	.LVL142-.Ltext0
 8241 06eb 5E1B0000 		.4byte	.LVL144-.Ltext0
 8242 06ef 0100     		.2byte	0x1
 8243 06f1 50       		.byte	0x50
 8244 06f2 A21B0000 		.4byte	.LVL146-.Ltext0
 8245 06f6 DA1B0000 		.4byte	.LVL148-.Ltext0
 8246 06fa 0100     		.2byte	0x1
 8247 06fc 50       		.byte	0x50
 8248 06fd 8A1F0000 		.4byte	.LVL171-.Ltext0
 8249 0701 B81F0000 		.4byte	.LVL173-.Ltext0
 8250 0705 0100     		.2byte	0x1
 8251 0707 50       		.byte	0x50
 8252 0708 FA1F0000 		.4byte	.LVL175-.Ltext0
 8253 070c 34200000 		.4byte	.LVL177-.Ltext0
ARM GAS  /cygdrive/c/Users/Zbyszko/AppData/Local/Temp/cc6jOyxc.s 			page 154


 8254 0710 0100     		.2byte	0x1
 8255 0712 50       		.byte	0x50
 8256 0713 96200000 		.4byte	.LVL181-.Ltext0
 8257 0717 C4200000 		.4byte	.LVL183-.Ltext0
 8258 071b 0100     		.2byte	0x1
 8259 071d 50       		.byte	0x50
 8260 071e 06210000 		.4byte	.LVL185-.Ltext0
 8261 0722 40210000 		.4byte	.LVL187-.Ltext0
 8262 0726 0100     		.2byte	0x1
 8263 0728 50       		.byte	0x50
 8264 0729 D6240000 		.4byte	.LVL214-.Ltext0
 8265 072d 22250000 		.4byte	.LVL216-.Ltext0
 8266 0731 0100     		.2byte	0x1
 8267 0733 50       		.byte	0x50
 8268 0734 66250000 		.4byte	.LVL218-.Ltext0
 8269 0738 9E250000 		.4byte	.LVL221-.Ltext0
 8270 073c 0100     		.2byte	0x1
 8271 073e 50       		.byte	0x50
 8272 073f 08260000 		.4byte	.LVL224-.Ltext0
 8273 0743 54260000 		.4byte	.LVL226-.Ltext0
 8274 0747 0100     		.2byte	0x1
 8275 0749 50       		.byte	0x50
 8276 074a 98260000 		.4byte	.LVL228-.Ltext0
 8277 074e D0260000 		.4byte	.LVL231-.Ltext0
 8278 0752 0100     		.2byte	0x1
 8279 0754 50       		.byte	0x50
 8280 0755 262A0000 		.4byte	.LVL256-.Ltext0
 8281 0759 542A0000 		.4byte	.LVL257-.Ltext0
 8282 075d 0100     		.2byte	0x1
 8283 075f 50       		.byte	0x50
 8284 0760 942A0000 		.4byte	.LVL258-.Ltext0
 8285 0764 CE2A0000 		.4byte	.LVL259-.Ltext0
 8286 0768 0100     		.2byte	0x1
 8287 076a 50       		.byte	0x50
 8288 076b 4A2B0000 		.4byte	.LVL264-.Ltext0
 8289 076f 782B0000 		.4byte	.LVL265-.Ltext0
 8290 0773 0100     		.2byte	0x1
 8291 0775 50       		.byte	0x50
 8292 0776 B82B0000 		.4byte	.LVL266-.Ltext0
 8293 077a F22B0000 		.4byte	.LVL267-.Ltext0
 8294 077e 0100     		.2byte	0x1
 8295 0780 50       		.byte	0x50
 8296 0781 E42E0000 		.4byte	.LVL290-.Ltext0
 8297 0785 302F0000 		.4byte	.LVL291-.Ltext0
 8298 0789 0100     		.2byte	0x1
 8299 078b 50       		.byte	0x50
 8300 078c 722F0000 		.4byte	.LVL292-.Ltext0
 8301 0790 AA2F0000 		.4byte	.LVL293-.Ltext0
 8302 0794 0100     		.2byte	0x1
 8303 0796 50       		.byte	0x50
 8304 0797 20300000 		.4byte	.LVL298-.Ltext0
 8305 079b 6C300000 		.4byte	.LVL299-.Ltext0
 8306 079f 0100     		.2byte	0x1
 8307 07a1 50       		.byte	0x50
 8308 07a2 BC300000 		.4byte	.LVL300-.Ltext0
 8309 07a6 F4300000 		.4byte	.LVL301-.Ltext0
 8310 07aa 0100     		.2byte	0x1
ARM GAS  /cygdrive/c/Users/Zbyszko/AppData/Local/Temp/cc6jOyxc.s 			page 155


 8311 07ac 50       		.byte	0x50
 8312 07ad 02320000 		.4byte	.LVL307-.Ltext0
 8313 07b1 04320000 		.4byte	.LVL308-.Ltext0
 8314 07b5 0100     		.2byte	0x1
 8315 07b7 50       		.byte	0x50
 8316 07b8 00000000 		.4byte	0x0
 8317 07bc 00000000 		.4byte	0x0
 8318              		.section	.debug_info
 8319 0000 44020000 		.4byte	0x244
 8320 0004 0200     		.2byte	0x2
 8321 0006 00000000 		.4byte	.Ldebug_abbrev0
 8322 000a 04       		.byte	0x4
 8323 000b 01       		.uleb128 0x1
 8324 000c 00000000 		.4byte	.Ldebug_line0
 8325 0010 18320000 		.4byte	.Letext0
 8326 0014 00000000 		.4byte	.Ltext0
 8327 0018 91000000 		.4byte	.LASF22
 8328 001c 01       		.byte	0x1
 8329 001d DD000000 		.4byte	.LASF23
 8330 0021 00000000 		.4byte	.LASF24
 8331 0025 02       		.uleb128 0x2
 8332 0026 8C000000 		.4byte	.LASF0
 8333 002a 03       		.byte	0x3
 8334 002b 2B       		.byte	0x2b
 8335 002c 30000000 		.4byte	0x30
 8336 0030 03       		.uleb128 0x3
 8337 0031 5B000000 		.4byte	.LASF2
 8338 0035 01       		.byte	0x1
 8339 0036 08       		.byte	0x8
 8340 0037 02       		.uleb128 0x2
 8341 0038 F4000000 		.4byte	.LASF1
 8342 003c 03       		.byte	0x3
 8343 003d 2F       		.byte	0x2f
 8344 003e 42000000 		.4byte	0x42
 8345 0042 03       		.uleb128 0x3
 8346 0043 A6000000 		.4byte	.LASF3
 8347 0047 02       		.byte	0x2
 8348 0048 07       		.byte	0x7
 8349 0049 03       		.uleb128 0x3
 8350 004a B9000000 		.4byte	.LASF4
 8351 004e 01       		.byte	0x1
 8352 004f 06       		.byte	0x6
 8353 0050 04       		.uleb128 0x4
 8354 0051 71000000 		.4byte	0x71
 8355 0055 04       		.byte	0x4
 8356 0056 03       		.byte	0x3
 8357 0057 3A       		.byte	0x3a
 8358 0058 05       		.uleb128 0x5
 8359 0059 6C00     		.ascii	"l\000"
 8360 005b 03       		.byte	0x3
 8361 005c 3A       		.byte	0x3a
 8362 005d 25000000 		.4byte	0x25
 8363 0061 02       		.byte	0x2
 8364 0062 23       		.byte	0x23
 8365 0063 00       		.uleb128 0x0
 8366 0064 05       		.uleb128 0x5
 8367 0065 6800     		.ascii	"h\000"
ARM GAS  /cygdrive/c/Users/Zbyszko/AppData/Local/Temp/cc6jOyxc.s 			page 156


 8368 0067 03       		.byte	0x3
 8369 0068 3A       		.byte	0x3a
 8370 0069 25000000 		.4byte	0x25
 8371 006d 02       		.byte	0x2
 8372 006e 23       		.byte	0x23
 8373 006f 01       		.uleb128 0x1
 8374 0070 00       		.byte	0x0
 8375 0071 06       		.uleb128 0x6
 8376 0072 8C000000 		.4byte	0x8c
 8377 0076 04       		.byte	0x4
 8378 0077 03       		.byte	0x3
 8379 0078 38       		.byte	0x38
 8380 0079 07       		.uleb128 0x7
 8381 007a 4200     		.ascii	"B\000"
 8382 007c 03       		.byte	0x3
 8383 007d 3A       		.byte	0x3a
 8384 007e 50000000 		.4byte	0x50
 8385 0082 07       		.uleb128 0x7
 8386 0083 5700     		.ascii	"W\000"
 8387 0085 03       		.byte	0x3
 8388 0086 3E       		.byte	0x3e
 8389 0087 37000000 		.4byte	0x37
 8390 008b 00       		.byte	0x0
 8391 008c 02       		.uleb128 0x2
 8392 008d 29000000 		.4byte	.LASF5
 8393 0091 03       		.byte	0x3
 8394 0092 3F       		.byte	0x3f
 8395 0093 71000000 		.4byte	0x71
 8396 0097 04       		.uleb128 0x4
 8397 0098 75010000 		.4byte	0x175
 8398 009c 28       		.byte	0x28
 8399 009d 03       		.byte	0x3
 8400 009e 42       		.byte	0x42
 8401 009f 05       		.uleb128 0x5
 8402 00a0 4100     		.ascii	"A\000"
 8403 00a2 03       		.byte	0x3
 8404 00a3 43       		.byte	0x43
 8405 00a4 25000000 		.4byte	0x25
 8406 00a8 02       		.byte	0x2
 8407 00a9 23       		.byte	0x23
 8408 00aa 00       		.uleb128 0x0
 8409 00ab 05       		.uleb128 0x5
 8410 00ac 5000     		.ascii	"P\000"
 8411 00ae 03       		.byte	0x3
 8412 00af 43       		.byte	0x43
 8413 00b0 25000000 		.4byte	0x25
 8414 00b4 02       		.byte	0x2
 8415 00b5 23       		.byte	0x23
 8416 00b6 01       		.uleb128 0x1
 8417 00b7 05       		.uleb128 0x5
 8418 00b8 5800     		.ascii	"X\000"
 8419 00ba 03       		.byte	0x3
 8420 00bb 43       		.byte	0x43
 8421 00bc 25000000 		.4byte	0x25
 8422 00c0 02       		.byte	0x2
 8423 00c1 23       		.byte	0x23
 8424 00c2 02       		.uleb128 0x2
ARM GAS  /cygdrive/c/Users/Zbyszko/AppData/Local/Temp/cc6jOyxc.s 			page 157


 8425 00c3 05       		.uleb128 0x5
 8426 00c4 5900     		.ascii	"Y\000"
 8427 00c6 03       		.byte	0x3
 8428 00c7 43       		.byte	0x43
 8429 00c8 25000000 		.4byte	0x25
 8430 00cc 02       		.byte	0x2
 8431 00cd 23       		.byte	0x23
 8432 00ce 03       		.uleb128 0x3
 8433 00cf 05       		.uleb128 0x5
 8434 00d0 5300     		.ascii	"S\000"
 8435 00d2 03       		.byte	0x3
 8436 00d3 43       		.byte	0x43
 8437 00d4 25000000 		.4byte	0x25
 8438 00d8 02       		.byte	0x2
 8439 00d9 23       		.byte	0x23
 8440 00da 04       		.uleb128 0x4
 8441 00db 05       		.uleb128 0x5
 8442 00dc 504300   		.ascii	"PC\000"
 8443 00df 03       		.byte	0x3
 8444 00e0 44       		.byte	0x44
 8445 00e1 8C000000 		.4byte	0x8c
 8446 00e5 02       		.byte	0x2
 8447 00e6 23       		.byte	0x23
 8448 00e7 08       		.uleb128 0x8
 8449 00e8 08       		.uleb128 0x8
 8450 00e9 C5000000 		.4byte	.LASF6
 8451 00ed 03       		.byte	0x3
 8452 00ee 46       		.byte	0x46
 8453 00ef 75010000 		.4byte	0x175
 8454 00f3 02       		.byte	0x2
 8455 00f4 23       		.byte	0x23
 8456 00f5 0C       		.uleb128 0xc
 8457 00f6 08       		.uleb128 0x8
 8458 00f7 E5000000 		.4byte	.LASF7
 8459 00fb 03       		.byte	0x3
 8460 00fc 46       		.byte	0x46
 8461 00fd 75010000 		.4byte	0x175
 8462 0101 02       		.byte	0x2
 8463 0102 23       		.byte	0x23
 8464 0103 10       		.uleb128 0x10
 8465 0104 08       		.uleb128 0x8
 8466 0105 2E000000 		.4byte	.LASF8
 8467 0109 03       		.byte	0x3
 8468 010a 48       		.byte	0x48
 8469 010b 25000000 		.4byte	0x25
 8470 010f 02       		.byte	0x2
 8471 0110 23       		.byte	0x23
 8472 0111 14       		.uleb128 0x14
 8473 0112 08       		.uleb128 0x8
 8474 0113 9D000000 		.4byte	.LASF9
 8475 0117 03       		.byte	0x3
 8476 0118 49       		.byte	0x49
 8477 0119 25000000 		.4byte	0x25
 8478 011d 02       		.byte	0x2
 8479 011e 23       		.byte	0x23
 8480 011f 15       		.uleb128 0x15
 8481 0120 08       		.uleb128 0x8
ARM GAS  /cygdrive/c/Users/Zbyszko/AppData/Local/Temp/cc6jOyxc.s 			page 158


 8482 0121 84000000 		.4byte	.LASF10
 8483 0125 03       		.byte	0x3
 8484 0126 4A       		.byte	0x4a
 8485 0127 75010000 		.4byte	0x175
 8486 012b 02       		.byte	0x2
 8487 012c 23       		.byte	0x23
 8488 012d 18       		.uleb128 0x18
 8489 012e 08       		.uleb128 0x8
 8490 012f 73000000 		.4byte	.LASF11
 8491 0133 03       		.byte	0x3
 8492 0134 4B       		.byte	0x4b
 8493 0135 25000000 		.4byte	0x25
 8494 0139 02       		.byte	0x2
 8495 013a 23       		.byte	0x23
 8496 013b 1C       		.uleb128 0x1c
 8497 013c 08       		.uleb128 0x8
 8498 013d CD000000 		.4byte	.LASF12
 8499 0141 03       		.byte	0x3
 8500 0142 4C       		.byte	0x4c
 8501 0143 25000000 		.4byte	0x25
 8502 0147 02       		.byte	0x2
 8503 0148 23       		.byte	0x23
 8504 0149 1D       		.uleb128 0x1d
 8505 014a 08       		.uleb128 0x8
 8506 014b 37000000 		.4byte	.LASF13
 8507 014f 03       		.byte	0x3
 8508 0150 4D       		.byte	0x4d
 8509 0151 37000000 		.4byte	0x37
 8510 0155 02       		.byte	0x2
 8511 0156 23       		.byte	0x23
 8512 0157 1E       		.uleb128 0x1e
 8513 0158 08       		.uleb128 0x8
 8514 0159 4E000000 		.4byte	.LASF14
 8515 015d 03       		.byte	0x3
 8516 015e 4E       		.byte	0x4e
 8517 015f 25000000 		.4byte	0x25
 8518 0163 02       		.byte	0x2
 8519 0164 23       		.byte	0x23
 8520 0165 20       		.uleb128 0x20
 8521 0166 08       		.uleb128 0x8
 8522 0167 D8000000 		.4byte	.LASF15
 8523 016b 03       		.byte	0x3
 8524 016c 4F       		.byte	0x4f
 8525 016d 7C010000 		.4byte	0x17c
 8526 0171 02       		.byte	0x2
 8527 0172 23       		.byte	0x23
 8528 0173 24       		.uleb128 0x24
 8529 0174 00       		.byte	0x0
 8530 0175 09       		.uleb128 0x9
 8531 0176 696E7400 		.ascii	"int\000"
 8532 017a 04       		.byte	0x4
 8533 017b 05       		.byte	0x5
 8534 017c 0A       		.uleb128 0xa
 8535 017d 04       		.byte	0x4
 8536 017e 02       		.uleb128 0x2
 8537 017f 7E000000 		.4byte	.LASF16
 8538 0183 03       		.byte	0x3
ARM GAS  /cygdrive/c/Users/Zbyszko/AppData/Local/Temp/cc6jOyxc.s 			page 159


 8539 0184 50       		.byte	0x50
 8540 0185 97000000 		.4byte	0x97
 8541 0189 0B       		.uleb128 0xb
 8542 018a B0010000 		.4byte	0x1b0
 8543 018e 01       		.byte	0x1
 8544 018f 69000000 		.4byte	.LASF17
 8545 0193 01       		.byte	0x1
 8546 0194 C3       		.byte	0xc3
 8547 0195 01       		.byte	0x1
 8548 0196 00000000 		.4byte	.LFB2
 8549 019a 3C000000 		.4byte	.LFE2
 8550 019e 00000000 		.4byte	.LLST0
 8551 01a2 0C       		.uleb128 0xc
 8552 01a3 5200     		.ascii	"R\000"
 8553 01a5 01       		.byte	0x1
 8554 01a6 C2       		.byte	0xc2
 8555 01a7 B0010000 		.4byte	0x1b0
 8556 01ab 1F000000 		.4byte	.LLST1
 8557 01af 00       		.byte	0x0
 8558 01b0 0D       		.uleb128 0xd
 8559 01b1 04       		.byte	0x4
 8560 01b2 7E010000 		.4byte	0x17e
 8561 01b6 0E       		.uleb128 0xe
 8562 01b7 08020000 		.4byte	0x208
 8563 01bb 01       		.byte	0x1
 8564 01bc F9000000 		.4byte	.LASF18
 8565 01c0 01       		.byte	0x1
 8566 01c1 D4       		.byte	0xd4
 8567 01c2 01       		.byte	0x1
 8568 01c3 37000000 		.4byte	0x37
 8569 01c7 3C000000 		.4byte	.LFB3
 8570 01cb 18320000 		.4byte	.LFE3
 8571 01cf 3D000000 		.4byte	.LLST2
 8572 01d3 0C       		.uleb128 0xc
 8573 01d4 5200     		.ascii	"R\000"
 8574 01d6 01       		.byte	0x1
 8575 01d7 D3       		.byte	0xd3
 8576 01d8 B0010000 		.4byte	0x1b0
 8577 01dc 68000000 		.4byte	.LLST3
 8578 01e0 0F       		.uleb128 0xf
 8579 01e1 4A00     		.ascii	"J\000"
 8580 01e3 01       		.byte	0x1
 8581 01e4 D5       		.byte	0xd5
 8582 01e5 8C000000 		.4byte	0x8c
 8583 01e9 86000000 		.4byte	.LLST4
 8584 01ed 0F       		.uleb128 0xf
 8585 01ee 4B00     		.ascii	"K\000"
 8586 01f0 01       		.byte	0x1
 8587 01f1 D5       		.byte	0xd5
 8588 01f2 8C000000 		.4byte	0x8c
 8589 01f6 4E030000 		.4byte	.LLST5
 8590 01fa 0F       		.uleb128 0xf
 8591 01fb 4900     		.ascii	"I\000"
 8592 01fd 01       		.byte	0x1
 8593 01fe D6       		.byte	0xd6
 8594 01ff 25000000 		.4byte	0x25
 8595 0203 2C060000 		.4byte	.LLST6
ARM GAS  /cygdrive/c/Users/Zbyszko/AppData/Local/Temp/cc6jOyxc.s 			page 160


 8596 0207 00       		.byte	0x0
 8597 0208 10       		.uleb128 0x10
 8598 0209 18020000 		.4byte	0x218
 8599 020d 25000000 		.4byte	0x25
 8600 0211 11       		.uleb128 0x11
 8601 0212 18020000 		.4byte	0x218
 8602 0216 FF       		.byte	0xff
 8603 0217 00       		.byte	0x0
 8604 0218 03       		.uleb128 0x3
 8605 0219 3C000000 		.4byte	.LASF19
 8606 021d 04       		.byte	0x4
 8607 021e 07       		.byte	0x7
 8608 021f 12       		.uleb128 0x12
 8609 0220 54000000 		.4byte	.LASF20
 8610 0224 04       		.byte	0x4
 8611 0225 10       		.byte	0x10
 8612 0226 30020000 		.4byte	0x230
 8613 022a 05       		.byte	0x5
 8614 022b 03       		.byte	0x3
 8615 022c FC030000 		.4byte	Cycles
 8616 0230 13       		.uleb128 0x13
 8617 0231 08020000 		.4byte	0x208
 8618 0235 14       		.uleb128 0x14
 8619 0236 EC000000 		.4byte	.LASF21
 8620 023a 04       		.byte	0x4
 8621 023b 24       		.byte	0x24
 8622 023c 08020000 		.4byte	0x208
 8623 0240 01       		.byte	0x1
 8624 0241 05       		.byte	0x5
 8625 0242 03       		.byte	0x3
 8626 0243 00000000 		.4byte	ZNTable
 8627 0247 00       		.byte	0x0
 8628              		.section	.debug_abbrev
 8629 0000 01       		.uleb128 0x1
 8630 0001 11       		.uleb128 0x11
 8631 0002 01       		.byte	0x1
 8632 0003 10       		.uleb128 0x10
 8633 0004 06       		.uleb128 0x6
 8634 0005 12       		.uleb128 0x12
 8635 0006 01       		.uleb128 0x1
 8636 0007 11       		.uleb128 0x11
 8637 0008 01       		.uleb128 0x1
 8638 0009 25       		.uleb128 0x25
 8639 000a 0E       		.uleb128 0xe
 8640 000b 13       		.uleb128 0x13
 8641 000c 0B       		.uleb128 0xb
 8642 000d 03       		.uleb128 0x3
 8643 000e 0E       		.uleb128 0xe
 8644 000f 1B       		.uleb128 0x1b
 8645 0010 0E       		.uleb128 0xe
 8646 0011 00       		.byte	0x0
 8647 0012 00       		.byte	0x0
 8648 0013 02       		.uleb128 0x2
 8649 0014 16       		.uleb128 0x16
 8650 0015 00       		.byte	0x0
 8651 0016 03       		.uleb128 0x3
 8652 0017 0E       		.uleb128 0xe
ARM GAS  /cygdrive/c/Users/Zbyszko/AppData/Local/Temp/cc6jOyxc.s 			page 161


 8653 0018 3A       		.uleb128 0x3a
 8654 0019 0B       		.uleb128 0xb
 8655 001a 3B       		.uleb128 0x3b
 8656 001b 0B       		.uleb128 0xb
 8657 001c 49       		.uleb128 0x49
 8658 001d 13       		.uleb128 0x13
 8659 001e 00       		.byte	0x0
 8660 001f 00       		.byte	0x0
 8661 0020 03       		.uleb128 0x3
 8662 0021 24       		.uleb128 0x24
 8663 0022 00       		.byte	0x0
 8664 0023 03       		.uleb128 0x3
 8665 0024 0E       		.uleb128 0xe
 8666 0025 0B       		.uleb128 0xb
 8667 0026 0B       		.uleb128 0xb
 8668 0027 3E       		.uleb128 0x3e
 8669 0028 0B       		.uleb128 0xb
 8670 0029 00       		.byte	0x0
 8671 002a 00       		.byte	0x0
 8672 002b 04       		.uleb128 0x4
 8673 002c 13       		.uleb128 0x13
 8674 002d 01       		.byte	0x1
 8675 002e 01       		.uleb128 0x1
 8676 002f 13       		.uleb128 0x13
 8677 0030 0B       		.uleb128 0xb
 8678 0031 0B       		.uleb128 0xb
 8679 0032 3A       		.uleb128 0x3a
 8680 0033 0B       		.uleb128 0xb
 8681 0034 3B       		.uleb128 0x3b
 8682 0035 0B       		.uleb128 0xb
 8683 0036 00       		.byte	0x0
 8684 0037 00       		.byte	0x0
 8685 0038 05       		.uleb128 0x5
 8686 0039 0D       		.uleb128 0xd
 8687 003a 00       		.byte	0x0
 8688 003b 03       		.uleb128 0x3
 8689 003c 08       		.uleb128 0x8
 8690 003d 3A       		.uleb128 0x3a
 8691 003e 0B       		.uleb128 0xb
 8692 003f 3B       		.uleb128 0x3b
 8693 0040 0B       		.uleb128 0xb
 8694 0041 49       		.uleb128 0x49
 8695 0042 13       		.uleb128 0x13
 8696 0043 38       		.uleb128 0x38
 8697 0044 0A       		.uleb128 0xa
 8698 0045 00       		.byte	0x0
 8699 0046 00       		.byte	0x0
 8700 0047 06       		.uleb128 0x6
 8701 0048 17       		.uleb128 0x17
 8702 0049 01       		.byte	0x1
 8703 004a 01       		.uleb128 0x1
 8704 004b 13       		.uleb128 0x13
 8705 004c 0B       		.uleb128 0xb
 8706 004d 0B       		.uleb128 0xb
 8707 004e 3A       		.uleb128 0x3a
 8708 004f 0B       		.uleb128 0xb
 8709 0050 3B       		.uleb128 0x3b
ARM GAS  /cygdrive/c/Users/Zbyszko/AppData/Local/Temp/cc6jOyxc.s 			page 162


 8710 0051 0B       		.uleb128 0xb
 8711 0052 00       		.byte	0x0
 8712 0053 00       		.byte	0x0
 8713 0054 07       		.uleb128 0x7
 8714 0055 0D       		.uleb128 0xd
 8715 0056 00       		.byte	0x0
 8716 0057 03       		.uleb128 0x3
 8717 0058 08       		.uleb128 0x8
 8718 0059 3A       		.uleb128 0x3a
 8719 005a 0B       		.uleb128 0xb
 8720 005b 3B       		.uleb128 0x3b
 8721 005c 0B       		.uleb128 0xb
 8722 005d 49       		.uleb128 0x49
 8723 005e 13       		.uleb128 0x13
 8724 005f 00       		.byte	0x0
 8725 0060 00       		.byte	0x0
 8726 0061 08       		.uleb128 0x8
 8727 0062 0D       		.uleb128 0xd
 8728 0063 00       		.byte	0x0
 8729 0064 03       		.uleb128 0x3
 8730 0065 0E       		.uleb128 0xe
 8731 0066 3A       		.uleb128 0x3a
 8732 0067 0B       		.uleb128 0xb
 8733 0068 3B       		.uleb128 0x3b
 8734 0069 0B       		.uleb128 0xb
 8735 006a 49       		.uleb128 0x49
 8736 006b 13       		.uleb128 0x13
 8737 006c 38       		.uleb128 0x38
 8738 006d 0A       		.uleb128 0xa
 8739 006e 00       		.byte	0x0
 8740 006f 00       		.byte	0x0
 8741 0070 09       		.uleb128 0x9
 8742 0071 24       		.uleb128 0x24
 8743 0072 00       		.byte	0x0
 8744 0073 03       		.uleb128 0x3
 8745 0074 08       		.uleb128 0x8
 8746 0075 0B       		.uleb128 0xb
 8747 0076 0B       		.uleb128 0xb
 8748 0077 3E       		.uleb128 0x3e
 8749 0078 0B       		.uleb128 0xb
 8750 0079 00       		.byte	0x0
 8751 007a 00       		.byte	0x0
 8752 007b 0A       		.uleb128 0xa
 8753 007c 0F       		.uleb128 0xf
 8754 007d 00       		.byte	0x0
 8755 007e 0B       		.uleb128 0xb
 8756 007f 0B       		.uleb128 0xb
 8757 0080 00       		.byte	0x0
 8758 0081 00       		.byte	0x0
 8759 0082 0B       		.uleb128 0xb
 8760 0083 2E       		.uleb128 0x2e
 8761 0084 01       		.byte	0x1
 8762 0085 01       		.uleb128 0x1
 8763 0086 13       		.uleb128 0x13
 8764 0087 3F       		.uleb128 0x3f
 8765 0088 0C       		.uleb128 0xc
 8766 0089 03       		.uleb128 0x3
ARM GAS  /cygdrive/c/Users/Zbyszko/AppData/Local/Temp/cc6jOyxc.s 			page 163


 8767 008a 0E       		.uleb128 0xe
 8768 008b 3A       		.uleb128 0x3a
 8769 008c 0B       		.uleb128 0xb
 8770 008d 3B       		.uleb128 0x3b
 8771 008e 0B       		.uleb128 0xb
 8772 008f 27       		.uleb128 0x27
 8773 0090 0C       		.uleb128 0xc
 8774 0091 11       		.uleb128 0x11
 8775 0092 01       		.uleb128 0x1
 8776 0093 12       		.uleb128 0x12
 8777 0094 01       		.uleb128 0x1
 8778 0095 40       		.uleb128 0x40
 8779 0096 06       		.uleb128 0x6
 8780 0097 00       		.byte	0x0
 8781 0098 00       		.byte	0x0
 8782 0099 0C       		.uleb128 0xc
 8783 009a 05       		.uleb128 0x5
 8784 009b 00       		.byte	0x0
 8785 009c 03       		.uleb128 0x3
 8786 009d 08       		.uleb128 0x8
 8787 009e 3A       		.uleb128 0x3a
 8788 009f 0B       		.uleb128 0xb
 8789 00a0 3B       		.uleb128 0x3b
 8790 00a1 0B       		.uleb128 0xb
 8791 00a2 49       		.uleb128 0x49
 8792 00a3 13       		.uleb128 0x13
 8793 00a4 02       		.uleb128 0x2
 8794 00a5 06       		.uleb128 0x6
 8795 00a6 00       		.byte	0x0
 8796 00a7 00       		.byte	0x0
 8797 00a8 0D       		.uleb128 0xd
 8798 00a9 0F       		.uleb128 0xf
 8799 00aa 00       		.byte	0x0
 8800 00ab 0B       		.uleb128 0xb
 8801 00ac 0B       		.uleb128 0xb
 8802 00ad 49       		.uleb128 0x49
 8803 00ae 13       		.uleb128 0x13
 8804 00af 00       		.byte	0x0
 8805 00b0 00       		.byte	0x0
 8806 00b1 0E       		.uleb128 0xe
 8807 00b2 2E       		.uleb128 0x2e
 8808 00b3 01       		.byte	0x1
 8809 00b4 01       		.uleb128 0x1
 8810 00b5 13       		.uleb128 0x13
 8811 00b6 3F       		.uleb128 0x3f
 8812 00b7 0C       		.uleb128 0xc
 8813 00b8 03       		.uleb128 0x3
 8814 00b9 0E       		.uleb128 0xe
 8815 00ba 3A       		.uleb128 0x3a
 8816 00bb 0B       		.uleb128 0xb
 8817 00bc 3B       		.uleb128 0x3b
 8818 00bd 0B       		.uleb128 0xb
 8819 00be 27       		.uleb128 0x27
 8820 00bf 0C       		.uleb128 0xc
 8821 00c0 49       		.uleb128 0x49
 8822 00c1 13       		.uleb128 0x13
 8823 00c2 11       		.uleb128 0x11
ARM GAS  /cygdrive/c/Users/Zbyszko/AppData/Local/Temp/cc6jOyxc.s 			page 164


 8824 00c3 01       		.uleb128 0x1
 8825 00c4 12       		.uleb128 0x12
 8826 00c5 01       		.uleb128 0x1
 8827 00c6 40       		.uleb128 0x40
 8828 00c7 06       		.uleb128 0x6
 8829 00c8 00       		.byte	0x0
 8830 00c9 00       		.byte	0x0
 8831 00ca 0F       		.uleb128 0xf
 8832 00cb 34       		.uleb128 0x34
 8833 00cc 00       		.byte	0x0
 8834 00cd 03       		.uleb128 0x3
 8835 00ce 08       		.uleb128 0x8
 8836 00cf 3A       		.uleb128 0x3a
 8837 00d0 0B       		.uleb128 0xb
 8838 00d1 3B       		.uleb128 0x3b
 8839 00d2 0B       		.uleb128 0xb
 8840 00d3 49       		.uleb128 0x49
 8841 00d4 13       		.uleb128 0x13
 8842 00d5 02       		.uleb128 0x2
 8843 00d6 06       		.uleb128 0x6
 8844 00d7 00       		.byte	0x0
 8845 00d8 00       		.byte	0x0
 8846 00d9 10       		.uleb128 0x10
 8847 00da 01       		.uleb128 0x1
 8848 00db 01       		.byte	0x1
 8849 00dc 01       		.uleb128 0x1
 8850 00dd 13       		.uleb128 0x13
 8851 00de 49       		.uleb128 0x49
 8852 00df 13       		.uleb128 0x13
 8853 00e0 00       		.byte	0x0
 8854 00e1 00       		.byte	0x0
 8855 00e2 11       		.uleb128 0x11
 8856 00e3 21       		.uleb128 0x21
 8857 00e4 00       		.byte	0x0
 8858 00e5 49       		.uleb128 0x49
 8859 00e6 13       		.uleb128 0x13
 8860 00e7 2F       		.uleb128 0x2f
 8861 00e8 0B       		.uleb128 0xb
 8862 00e9 00       		.byte	0x0
 8863 00ea 00       		.byte	0x0
 8864 00eb 12       		.uleb128 0x12
 8865 00ec 34       		.uleb128 0x34
 8866 00ed 00       		.byte	0x0
 8867 00ee 03       		.uleb128 0x3
 8868 00ef 0E       		.uleb128 0xe
 8869 00f0 3A       		.uleb128 0x3a
 8870 00f1 0B       		.uleb128 0xb
 8871 00f2 3B       		.uleb128 0x3b
 8872 00f3 0B       		.uleb128 0xb
 8873 00f4 49       		.uleb128 0x49
 8874 00f5 13       		.uleb128 0x13
 8875 00f6 02       		.uleb128 0x2
 8876 00f7 0A       		.uleb128 0xa
 8877 00f8 00       		.byte	0x0
 8878 00f9 00       		.byte	0x0
 8879 00fa 13       		.uleb128 0x13
 8880 00fb 26       		.uleb128 0x26
ARM GAS  /cygdrive/c/Users/Zbyszko/AppData/Local/Temp/cc6jOyxc.s 			page 165


 8881 00fc 00       		.byte	0x0
 8882 00fd 49       		.uleb128 0x49
 8883 00fe 13       		.uleb128 0x13
 8884 00ff 00       		.byte	0x0
 8885 0100 00       		.byte	0x0
 8886 0101 14       		.uleb128 0x14
 8887 0102 34       		.uleb128 0x34
 8888 0103 00       		.byte	0x0
 8889 0104 03       		.uleb128 0x3
 8890 0105 0E       		.uleb128 0xe
 8891 0106 3A       		.uleb128 0x3a
 8892 0107 0B       		.uleb128 0xb
 8893 0108 3B       		.uleb128 0x3b
 8894 0109 0B       		.uleb128 0xb
 8895 010a 49       		.uleb128 0x49
 8896 010b 13       		.uleb128 0x13
 8897 010c 3F       		.uleb128 0x3f
 8898 010d 0C       		.uleb128 0xc
 8899 010e 02       		.uleb128 0x2
 8900 010f 0A       		.uleb128 0xa
 8901 0110 00       		.byte	0x0
 8902 0111 00       		.byte	0x0
 8903 0112 00       		.byte	0x0
 8904              		.section	.debug_pubnames,"",%progbits
 8905 0000 35000000 		.4byte	0x35
 8906 0004 0200     		.2byte	0x2
 8907 0006 00000000 		.4byte	.Ldebug_info0
 8908 000a 48020000 		.4byte	0x248
 8909 000e 89010000 		.4byte	0x189
 8910 0012 52657365 		.ascii	"Reset6502\000"
 8910      74363530 
 8910      3200
 8911 001c B6010000 		.4byte	0x1b6
 8912 0020 45786563 		.ascii	"Exec6502\000"
 8912      36353032 
 8912      00
 8913 0029 35020000 		.4byte	0x235
 8914 002d 5A4E5461 		.ascii	"ZNTable\000"
 8914      626C6500 
 8915 0035 00000000 		.4byte	0x0
 8916              		.section	.debug_aranges,"",%progbits
 8917 0000 1C000000 		.4byte	0x1c
 8918 0004 0200     		.2byte	0x2
 8919 0006 00000000 		.4byte	.Ldebug_info0
 8920 000a 04       		.byte	0x4
 8921 000b 00       		.byte	0x0
 8922 000c 0000     		.2byte	0x0
 8923 000e 0000     		.2byte	0x0
 8924 0010 00000000 		.4byte	.Ltext0
 8925 0014 18320000 		.4byte	.Letext0-.Ltext0
 8926 0018 00000000 		.4byte	0x0
 8927 001c 00000000 		.4byte	0x0
 8928              		.section	.debug_str,"MS",%progbits,1
 8929              	.LASF24:
 8930 0000 2F637967 		.ascii	"/cygdrive/c/eclipse/workspace/2138/chess\000"
 8930      64726976 
 8930      652F632F 
ARM GAS  /cygdrive/c/Users/Zbyszko/AppData/Local/Temp/cc6jOyxc.s 			page 166


 8930      65636C69 
 8930      7073652F 
 8931              	.LASF5:
 8932 0029 70616972 		.ascii	"pair\000"
 8932      00
 8933              	.LASF8:
 8934 002e 49526571 		.ascii	"IRequest\000"
 8934      75657374 
 8934      00
 8935              	.LASF13:
 8936 0037 54726170 		.ascii	"Trap\000"
 8936      00
 8937              	.LASF19:
 8938 003c 6C6F6E67 		.ascii	"long unsigned int\000"
 8938      20756E73 
 8938      69676E65 
 8938      6420696E 
 8938      7400
 8939              	.LASF14:
 8940 004e 54726163 		.ascii	"Trace\000"
 8940      6500
 8941              	.LASF20:
 8942 0054 4379636C 		.ascii	"Cycles\000"
 8942      657300
 8943              	.LASF2:
 8944 005b 756E7369 		.ascii	"unsigned char\000"
 8944      676E6564 
 8944      20636861 
 8944      7200
 8945              	.LASF17:
 8946 0069 52657365 		.ascii	"Reset6502\000"
 8946      74363530 
 8946      3200
 8947              	.LASF11:
 8948 0073 49417574 		.ascii	"IAutoReset\000"
 8948      6F526573 
 8948      657400
 8949              	.LASF16:
 8950 007e 4D363530 		.ascii	"M6502\000"
 8950      3200
 8951              	.LASF10:
 8952 0084 49426163 		.ascii	"IBackup\000"
 8952      6B757000 
 8953              	.LASF0:
 8954 008c 62797465 		.ascii	"byte\000"
 8954      00
 8955              	.LASF22:
 8956 0091 474E5520 		.ascii	"GNU C 4.1.1\000"
 8956      4320342E 
 8956      312E3100 
 8957              	.LASF9:
 8958 009d 41667465 		.ascii	"AfterCLI\000"
 8958      72434C49 
 8958      00
 8959              	.LASF3:
 8960 00a6 73686F72 		.ascii	"short unsigned int\000"
 8960      7420756E 
ARM GAS  /cygdrive/c/Users/Zbyszko/AppData/Local/Temp/cc6jOyxc.s 			page 167


 8960      7369676E 
 8960      65642069 
 8960      6E7400
 8961              	.LASF4:
 8962 00b9 7369676E 		.ascii	"signed char\000"
 8962      65642063 
 8962      68617200 
 8963              	.LASF6:
 8964 00c5 49506572 		.ascii	"IPeriod\000"
 8964      696F6400 
 8965              	.LASF12:
 8966 00cd 54726170 		.ascii	"TrapBadOps\000"
 8966      4261644F 
 8966      707300
 8967              	.LASF15:
 8968 00d8 55736572 		.ascii	"User\000"
 8968      00
 8969              	.LASF23:
 8970 00dd 4D363530 		.ascii	"M6502.c\000"
 8970      322E6300 
 8971              	.LASF7:
 8972 00e5 49436F75 		.ascii	"ICount\000"
 8972      6E7400
 8973              	.LASF21:
 8974 00ec 5A4E5461 		.ascii	"ZNTable\000"
 8974      626C6500 
 8975              	.LASF1:
 8976 00f4 776F7264 		.ascii	"word\000"
 8976      00
 8977              	.LASF18:
 8978 00f9 45786563 		.ascii	"Exec6502\000"
 8978      36353032 
 8978      00
 8979              		.ident	"GCC: (GNU) 4.1.1"
ARM GAS  /cygdrive/c/Users/Zbyszko/AppData/Local/Temp/cc6jOyxc.s 			page 168


DEFINED SYMBOLS
                            *ABS*:00000000 M6502.c
/cygdrive/c/Users/Zbyszko/AppData/Local/Temp/cc6jOyxc.s:1      .text:00000000 $t
/cygdrive/c/Users/Zbyszko/AppData/Local/Temp/cc6jOyxc.s:16     .text:00000000 Reset6502
/cygdrive/c/Users/Zbyszko/AppData/Local/Temp/cc6jOyxc.s:67     .text:00000034 $d
/cygdrive/c/Users/Zbyszko/AppData/Local/Temp/cc6jOyxc.s:82     .text:0000003c Exec6502
/cygdrive/c/Users/Zbyszko/AppData/Local/Temp/cc6jOyxc.s:79     .text:0000003c $t
/cygdrive/c/Users/Zbyszko/AppData/Local/Temp/cc6jOyxc.s:118    .rodata:00000000 $d
/cygdrive/c/Users/Zbyszko/AppData/Local/Temp/cc6jOyxc.s:857    .text:000003ec $d
/cygdrive/c/Users/Zbyszko/AppData/Local/Temp/cc6jOyxc.s:7272   .rodata:000003fc Cycles
/cygdrive/c/Users/Zbyszko/AppData/Local/Temp/cc6jOyxc.s:864    .text:00000400 $t
/cygdrive/c/Users/Zbyszko/AppData/Local/Temp/cc6jOyxc.s:1416   .text:0000081c $d
/cygdrive/c/Users/Zbyszko/AppData/Local/Temp/cc6jOyxc.s:7012   .data:00000000 ZNTable
/cygdrive/c/Users/Zbyszko/AppData/Local/Temp/cc6jOyxc.s:1422   .text:00000828 $t
/cygdrive/c/Users/Zbyszko/AppData/Local/Temp/cc6jOyxc.s:1933   .text:00000c18 $d
/cygdrive/c/Users/Zbyszko/AppData/Local/Temp/cc6jOyxc.s:1939   .text:00000c24 $t
/cygdrive/c/Users/Zbyszko/AppData/Local/Temp/cc6jOyxc.s:2430   .text:00000fe0 $d
/cygdrive/c/Users/Zbyszko/AppData/Local/Temp/cc6jOyxc.s:2436   .text:00000fec $t
/cygdrive/c/Users/Zbyszko/AppData/Local/Temp/cc6jOyxc.s:2938   .text:000013b4 $d
/cygdrive/c/Users/Zbyszko/AppData/Local/Temp/cc6jOyxc.s:2943   .text:000013c0 $t
/cygdrive/c/Users/Zbyszko/AppData/Local/Temp/cc6jOyxc.s:3453   .text:00001778 $d
/cygdrive/c/Users/Zbyszko/AppData/Local/Temp/cc6jOyxc.s:3458   .text:00001784 $t
/cygdrive/c/Users/Zbyszko/AppData/Local/Temp/cc6jOyxc.s:3894   .text:00001ae4 $d
/cygdrive/c/Users/Zbyszko/AppData/Local/Temp/cc6jOyxc.s:3899   .text:00001af0 $t
/cygdrive/c/Users/Zbyszko/AppData/Local/Temp/cc6jOyxc.s:4409   .text:00001ed8 $d
/cygdrive/c/Users/Zbyszko/AppData/Local/Temp/cc6jOyxc.s:4415   .text:00001ee4 $t
/cygdrive/c/Users/Zbyszko/AppData/Local/Temp/cc6jOyxc.s:4907   .text:00002284 $d
/cygdrive/c/Users/Zbyszko/AppData/Local/Temp/cc6jOyxc.s:4913   .text:00002290 $t
/cygdrive/c/Users/Zbyszko/AppData/Local/Temp/cc6jOyxc.s:5333   .text:000025b8 $d
/cygdrive/c/Users/Zbyszko/AppData/Local/Temp/cc6jOyxc.s:5339   .text:000025c4 $t
/cygdrive/c/Users/Zbyszko/AppData/Local/Temp/cc6jOyxc.s:5804   .text:0000294c $d
/cygdrive/c/Users/Zbyszko/AppData/Local/Temp/cc6jOyxc.s:5810   .text:00002958 $t
/cygdrive/c/Users/Zbyszko/AppData/Local/Temp/cc6jOyxc.s:6314   .text:00002d10 $d
/cygdrive/c/Users/Zbyszko/AppData/Local/Temp/cc6jOyxc.s:6320   .text:00002d1c $t
/cygdrive/c/Users/Zbyszko/AppData/Local/Temp/cc6jOyxc.s:6800   .text:000030ac $d
/cygdrive/c/Users/Zbyszko/AppData/Local/Temp/cc6jOyxc.s:6804   .text:000030b8 $t
/cygdrive/c/Users/Zbyszko/AppData/Local/Temp/cc6jOyxc.s:7003   .text:0000320c $d

UNDEFINED SYMBOLS
Rd6502
Wr6502
Patch6502
simplePrintf
