ARM GAS  /cygdrive/c/Users/Zbyszko/AppData/Local/Temp/ccaXFopk.s 			page 1


   1              		.code	16
   2              		.file	"bt.c"
   3              		.section	.debug_abbrev,"",%progbits
   4              	.Ldebug_abbrev0:
   5              		.section	.debug_info,"",%progbits
   6              	.Ldebug_info0:
   7              		.section	.debug_line,"",%progbits
   8              	.Ldebug_line0:
   9 0000 70030000 		.text
   9      02008E00 
   9      00000201 
   9      FB0E0D00 
   9      01010101 
  10              	.Ltext0:
  11              		.align	2
  12              		.global	blockBtProc
  13              		.code 16
  14              		.thumb_func
  15              		.type	blockBtProc, %function
  16              	blockBtProc:
  17              	.LFB17:
  18              		.file 1 "bt.c"
   1:bt.c          **** /******************************************************************************
   2:bt.c          ****  *
   3:bt.c          ****  * Copyright:
   4:bt.c          ****  *    (C) 2006 Embedded Artists AB
   5:bt.c          ****  *
   6:bt.c          ****  * File:
   7:bt.c          ****  *    bt.c
   8:bt.c          ****  *
   9:bt.c          ****  * Description:
  10:bt.c          ****  *    Demonstrate communication with the Philips Bluetooth module, BGB203-S06
  11:bt.c          ****  *
  12:bt.c          ****  *****************************************************************************/
  13:bt.c          ****  
  14:bt.c          **** /******************************************************************************
  15:bt.c          ****  * Includes
  16:bt.c          ****  *****************************************************************************/
  17:bt.c          **** #include "../pre_emptive_os/api/osapi.h"
  18:bt.c          **** #include "../pre_emptive_os/api/general.h"
  19:bt.c          **** #include <printf_P.h>
  20:bt.c          **** #include <ea_init.h>
  21:bt.c          **** #include <stdlib.h>
  22:bt.c          **** #include <string.h>
  23:bt.c          **** #include "lcd.h"
  24:bt.c          **** #include "key.h"
  25:bt.c          **** #include "uart.h"
  26:bt.c          **** #include "hw.h"
  27:bt.c          **** #include "select.h"
  28:bt.c          **** 
  29:bt.c          **** /******************************************************************************
  30:bt.c          ****  * Typedefs and defines
  31:bt.c          ****  *****************************************************************************/
  32:bt.c          **** #define RECV_BUF_LEN 32
  33:bt.c          **** #define PROC_BT_STACK_SIZE 800
  34:bt.c          **** 
  35:bt.c          **** #define BT_BACKGROUND_COLOR     0x01
ARM GAS  /cygdrive/c/Users/Zbyszko/AppData/Local/Temp/ccaXFopk.s 			page 2


  36:bt.c          **** #define BT_BACKBACKGROUND_COLOR 0x03
  37:bt.c          **** 
  38:bt.c          **** #define MAX_BT_UNITS 5
  39:bt.c          **** 
  40:bt.c          **** typedef struct
  41:bt.c          **** {
  42:bt.c          ****   tU8 active;
  43:bt.c          ****   tU8 btAddress[13];
  44:bt.c          ****   tU8 btName[17];
  45:bt.c          **** } tBtRecord;
  46:bt.c          **** 
  47:bt.c          **** 
  48:bt.c          **** /*****************************************************************************
  49:bt.c          ****  * Local variables
  50:bt.c          ****  ****************************************************************************/
  51:bt.c          **** static tU8 procBtStack[PROC_BT_STACK_SIZE];
  52:bt.c          **** static tU8 pidBt;
  53:bt.c          **** 
  54:bt.c          **** static volatile tBool stopRecvProc = FALSE;
  55:bt.c          **** static tCntSem recvSem;
  56:bt.c          **** 
  57:bt.c          **** static tU8 btCursor = 0;
  58:bt.c          **** 
  59:bt.c          **** static tBool btSleepState = FALSE;
  60:bt.c          **** static tBool btCommandMode = FALSE;
  61:bt.c          **** 
  62:bt.c          **** static tU8 localName[17];
  63:bt.c          **** static tU8 btAddress[13];
  64:bt.c          **** 
  65:bt.c          **** static tBtRecord foundBtUnits[MAX_BT_UNITS];
  66:bt.c          **** 
  67:bt.c          **** 
  68:bt.c          **** /*****************************************************************************
  69:bt.c          ****  * External variables
  70:bt.c          ****  ****************************************************************************/
  71:bt.c          **** extern volatile tU32 ms;
  72:bt.c          **** 
  73:bt.c          **** 
  74:bt.c          **** /*****************************************************************************
  75:bt.c          ****  * Local function prototype
  76:bt.c          ****  ****************************************************************************/
  77:bt.c          **** static void procBt(void* arg);
  78:bt.c          **** static void btSetMode(tBool commandMode);
  79:bt.c          **** 
  80:bt.c          **** 
  81:bt.c          **** /*****************************************************************************
  82:bt.c          ****  *
  83:bt.c          ****  * Description:
  84:bt.c          ****  *    Initialize and start a process handling the BGB203-S06 communication
  85:bt.c          ****  *    (over UART channel #1).
  86:bt.c          ****  *
  87:bt.c          ****  ****************************************************************************/
  88:bt.c          **** void
  89:bt.c          **** initBtProc(void)
  90:bt.c          **** {
  91:bt.c          ****   tU8 error;
  92:bt.c          ****   
ARM GAS  /cygdrive/c/Users/Zbyszko/AppData/Local/Temp/ccaXFopk.s 			page 3


  93:bt.c          ****   osSemInit(&recvSem, 1);
  94:bt.c          **** 
  95:bt.c          ****   osCreateProcess(procBt, procBtStack, PROC_BT_STACK_SIZE, &pidBt, 4, NULL, &error);
  96:bt.c          ****   osStartProcess(pidBt, &error);
  97:bt.c          **** }
  98:bt.c          **** 
  99:bt.c          **** 
 100:bt.c          **** /*****************************************************************************
 101:bt.c          ****  *
 102:bt.c          ****  * Description:
 103:bt.c          ****  *    A process entry function - the BGb203-S06 handling process
 104:bt.c          ****  *
 105:bt.c          ****  * Params:
 106:bt.c          ****  *    [in] arg - This parameter is not used in this application. 
 107:bt.c          ****  *
 108:bt.c          ****  ****************************************************************************/
 109:bt.c          **** static void
 110:bt.c          **** procBt(void* arg)
 111:bt.c          **** {
 112:bt.c          ****   tU8 error;
 113:bt.c          **** 
 114:bt.c          ****   //reset BGB203 modules
 115:bt.c          ****   resetBT(TRUE);
 116:bt.c          ****   osSleep(2);
 117:bt.c          ****   resetBT(FALSE);
 118:bt.c          ****   osSleep(5);
 119:bt.c          **** 
 120:bt.c          ****   //extra sleep
 121:bt.c          ****   osSleep(50);
 122:bt.c          ****   
 123:bt.c          ****   //initialize uart #1: 115200 kbps, 8N1, FIFO
 124:bt.c          ****   initUart1(B115200((CORE_FREQ) / PBSD), UART_8N1, UART_FIFO_16);
 125:bt.c          **** 
 126:bt.c          ****   /***************************************************************************
 127:bt.c          ****    * Startup command sequence
 128:bt.c          ****    *   This command sequence is just used for production testing
 129:bt.c          ****    **************************************************************************/
 130:bt.c          ****   osSleep(50);
 131:bt.c          ****   uart1SendString("+++");
 132:bt.c          ****   osSleep(50);
 133:bt.c          ****   uart1SendString("ATI\r");
 134:bt.c          ****   osSleep(50);
 135:bt.c          ****   uart1SendString("AT+BTLNM\r");
 136:bt.c          ****   
 137:bt.c          ****   osSleep(100);
 138:bt.c          ****   uart1SendString("AT+BTBDA\r");
 139:bt.c          ****   osSleep(100);
 140:bt.c          ****   uart1SendString("AT+BTINQ=5\r");
 141:bt.c          ****   osSleep(600);
 142:bt.c          **** 
 143:bt.c          ****   //Switch to server mode where other BT devices can detect this unit
 144:bt.c          ****   //during an 'inquiry'
 145:bt.c          ****   uart1SendString("AT+BTSRV=1\r");
 146:bt.c          **** 
 147:bt.c          ****   /***************************************************************************
 148:bt.c          ****    * Loop forever and create a terminal directly between the
 149:bt.c          ****    * USB serial port and the BT module
ARM GAS  /cygdrive/c/Users/Zbyszko/AppData/Local/Temp/ccaXFopk.s 			page 4


 150:bt.c          ****    **************************************************************************/
 151:bt.c          ****   while(1)
 152:bt.c          ****   {
 153:bt.c          ****     osSemTake(&recvSem, 0, &error);
 154:bt.c          **** 
 155:bt.c          ****     while (stopRecvProc == FALSE)
 156:bt.c          ****     {
 157:bt.c          ****       tU8 rxChar;
 158:bt.c          ****       tU8 nothing;
 159:bt.c          **** 
 160:bt.c          **** 
 161:bt.c          ****       nothing = TRUE;
 162:bt.c          **** 
 163:bt.c          ****       //check if any character has been received from terminal
 164:bt.c          ****       if (consolGetChar(&rxChar) == TRUE)
 165:bt.c          ****       {
 166:bt.c          ****         uart1SendChar(rxChar);
 167:bt.c          ****         nothing = FALSE;
 168:bt.c          ****       }
 169:bt.c          **** 
 170:bt.c          ****       //check if any character has been received from BT
 171:bt.c          ****       if (uart1GetChar(&rxChar) == TRUE)
 172:bt.c          ****       {
 173:bt.c          ****         printf("%c", rxChar);
 174:bt.c          ****         nothing = FALSE;
 175:bt.c          ****       }
 176:bt.c          ****         
 177:bt.c          ****       if (nothing == TRUE)
 178:bt.c          ****         osSleep(1);
 179:bt.c          ****     }
 180:bt.c          ****     stopRecvProc = FALSE;
 181:bt.c          ****   }
 182:bt.c          **** }
 183:bt.c          **** 
 184:bt.c          **** 
 185:bt.c          **** /*****************************************************************************
 186:bt.c          ****  *
 187:bt.c          ****  * Description:
 188:bt.c          ****  *    Prints a text string with a delay between each character, much like
 189:bt.c          ****  *    a typewriter.
 190:bt.c          ****  *
 191:bt.c          ****  ****************************************************************************/
 192:bt.c          **** static void
 193:bt.c          **** displayMessage(tU8 *pMessage, tU8 speed)
 194:bt.c          **** {
 195:bt.c          ****   while(*pMessage != '\0')
 196:bt.c          ****   {
 197:bt.c          ****     lcdPutchar(*pMessage++);
 198:bt.c          ****     osSleep(speed);
 199:bt.c          ****   }
 200:bt.c          **** }
 201:bt.c          **** 
 202:bt.c          **** 
 203:bt.c          **** /*****************************************************************************
 204:bt.c          ****  *
 205:bt.c          ****  * Description:
 206:bt.c          ****  *    Prints the list of 'found' Bluetooth units
ARM GAS  /cygdrive/c/Users/Zbyszko/AppData/Local/Temp/ccaXFopk.s 			page 5


 207:bt.c          ****  *
 208:bt.c          ****  ****************************************************************************/
 209:bt.c          **** static void
 210:bt.c          **** drawBtsFound(tBool drawCursor, tU8 cursorPos)
 211:bt.c          **** {
 212:bt.c          ****   tU32 row;
 213:bt.c          **** 
 214:bt.c          ****   for(row=0; row<MAX_BT_UNITS; row++)
 215:bt.c          ****   {
 216:bt.c          ****     lcdGotoxy(2,30+(14*row));
 217:bt.c          ****     if(foundBtUnits[row].active == FALSE)
 218:bt.c          ****     {
 219:bt.c          ****       if ((drawCursor == TRUE) && (cursorPos == row))
 220:bt.c          ****         lcdColor(BT_BACKGROUND_COLOR+1,0xe0);
 221:bt.c          ****       else
 222:bt.c          ****         lcdColor(BT_BACKGROUND_COLOR,0xfd);
 223:bt.c          ****       lcdPuts("-");
 224:bt.c          ****     }
 225:bt.c          ****     else
 226:bt.c          ****     {
 227:bt.c          ****       if ((drawCursor == TRUE) && (cursorPos == row))
 228:bt.c          ****         lcdColor(BT_BACKGROUND_COLOR+1,0xe0);
 229:bt.c          ****       else
 230:bt.c          ****         lcdColor(BT_BACKGROUND_COLOR,0xfd);
 231:bt.c          ****       lcdPuts(foundBtUnits[row].btAddress);
 232:bt.c          ****     }
 233:bt.c          ****   }
 234:bt.c          **** }
 235:bt.c          **** 
 236:bt.c          **** 
 237:bt.c          **** /*****************************************************************************
 238:bt.c          ****  *
 239:bt.c          ****  * Description:
 240:bt.c          ****  *    Perform a Bluetooth 'inquiry' and displays the result, i.e., found
 241:bt.c          ****  *    units in the proximity of this unit.
 242:bt.c          ****  *
 243:bt.c          ****  ****************************************************************************/
 244:bt.c          **** static void
 245:bt.c          **** btInquiry(void)
 246:bt.c          **** {
 247:bt.c          ****   tU8  rxChar;
 248:bt.c          ****   tU8  done;
 249:bt.c          ****   tU8  anyKey;
 250:bt.c          ****   tU8  cursorPos;
 251:bt.c          ****   volatile tU32 timeStamp;
 252:bt.c          ****   tU8  recvPos;
 253:bt.c          ****   tU8  error;
 254:bt.c          ****   tU8  recvBuf[RECV_BUF_LEN];
 255:bt.c          ****   tU8  foundBt;
 256:bt.c          ****   tU32 cnt;
 257:bt.c          ****   tU8  numServices;
 258:bt.c          **** 
 259:bt.c          ****   for(foundBt=0; foundBt<MAX_BT_UNITS; foundBt++)
 260:bt.c          ****   {
 261:bt.c          ****     foundBtUnits[foundBt].active = FALSE;
 262:bt.c          ****     foundBtUnits[foundBt].btName[0] = '\0';
 263:bt.c          ****   }
ARM GAS  /cygdrive/c/Users/Zbyszko/AppData/Local/Temp/ccaXFopk.s 			page 6


 264:bt.c          **** 
 265:bt.c          ****   //clear menu screen
 266:bt.c          ****   lcdRect(1, 16, 126, 84, BT_BACKGROUND_COLOR);
 267:bt.c          ****   lcdGotoxy(18,16);
 268:bt.c          ****   lcdColor(BT_BACKGROUND_COLOR,0xfd);
 269:bt.c          ****   lcdPuts("Inquiry");
 270:bt.c          ****   drawBtsFound(FALSE,0);
 271:bt.c          **** 
 272:bt.c          ****   //stop the BT handling process
 273:bt.c          ****   stopRecvProc = TRUE;
 274:bt.c          **** 
 275:bt.c          ****   //*************************************************************
 276:bt.c          ****   //* Start inquiry (during 6 seconds)
 277:bt.c          ****   //*************************************************************
 278:bt.c          ****   osSleep(100);
 279:bt.c          ****   uart1SendString("+++");
 280:bt.c          ****   osSleep(100);
 281:bt.c          ****   uart1SendString("AT+BTINQ=6\r");
 282:bt.c          **** 
 283:bt.c          ****   //*************************************************************
 284:bt.c          ****   //* Get (receive and interpret) discovered units
 285:bt.c          ****   //*************************************************************
 286:bt.c          ****   timeStamp = ms;
 287:bt.c          ****   done = FALSE;
 288:bt.c          ****   recvPos = 0;
 289:bt.c          ****   foundBt = 0;
 290:bt.c          ****   cnt = 0;
 291:bt.c          ****   while((done == FALSE) && ((ms - timeStamp) < 6500))
 292:bt.c          ****   {
 293:bt.c          ****     //check if any character has been received from BT
 294:bt.c          ****     if (uart1GetChar(&rxChar) == TRUE)
 295:bt.c          ****     {
 296:bt.c          ****       printf("%c", rxChar);
 297:bt.c          ****       
 298:bt.c          ****       if (rxChar == 0x0a)
 299:bt.c          ****       {
 300:bt.c          ****         if (recvPos > 0)
 301:bt.c          ****           recvBuf[recvPos-1] = '\0';
 302:bt.c          **** 
 303:bt.c          ****         //evaluate received bytes
 304:bt.c          ****         if ((memcmp(recvBuf, "+BTINQ: ", 8) == 0) && (recvPos == 29))
 305:bt.c          ****         {
 306:bt.c          ****           if (foundBt < MAX_BT_UNITS)
 307:bt.c          ****           {
 308:bt.c          ****             for(recvPos=0; recvPos<12; recvPos++)
 309:bt.c          ****               foundBtUnits[foundBt].btAddress[recvPos] = recvBuf[recvPos + 8];
 310:bt.c          ****             foundBtUnits[foundBt].btAddress[12] = '\0';
 311:bt.c          ****             foundBtUnits[foundBt].active = TRUE;
 312:bt.c          ****             foundBt++;
 313:bt.c          **** 
 314:bt.c          ****             //display newly found bt unit
 315:bt.c          ****             drawBtsFound(FALSE, 0);
 316:bt.c          ****           }
 317:bt.c          ****         }
 318:bt.c          ****         else if (memcmp(recvBuf, "+BTINQ: COMPLETE", 16) == 0)
 319:bt.c          ****         {
 320:bt.c          ****           done = TRUE;
ARM GAS  /cygdrive/c/Users/Zbyszko/AppData/Local/Temp/ccaXFopk.s 			page 7


 321:bt.c          ****         }
 322:bt.c          ****         recvPos = 0;
 323:bt.c          ****       }
 324:bt.c          ****       else if (recvPos < RECV_BUF_LEN)
 325:bt.c          ****         recvBuf[recvPos++] = rxChar;
 326:bt.c          ****     }
 327:bt.c          ****     osSleep(1);
 328:bt.c          **** 
 329:bt.c          ****     //print activity indicator
 330:bt.c          ****     lcdGotoxy(74,16);
 331:bt.c          ****     lcdColor(BT_BACKGROUND_COLOR,0xfd);
 332:bt.c          ****     switch(cnt % 150)
 333:bt.c          ****     {
 334:bt.c          ****       case   0: lcdPuts("   ");break;
 335:bt.c          ****       case  25: lcdPuts(".  ");break;
 336:bt.c          ****       case  50: lcdPuts(".. ");break;
 337:bt.c          ****       case  75: lcdPuts("...");break;
 338:bt.c          ****       case 100: lcdPuts(" ..");break;
 339:bt.c          ****       case 125: lcdPuts("  .");break;
 340:bt.c          ****       default: break;
 341:bt.c          ****     }
 342:bt.c          ****     cnt ++;
 343:bt.c          ****   }
 344:bt.c          **** 
 345:bt.c          ****   lcdGotoxy(74,16);
 346:bt.c          ****   lcdColor(BT_BACKGROUND_COLOR,0xfd);
 347:bt.c          ****   lcdPuts("-done");
 348:bt.c          **** 
 349:bt.c          ****   //*************************************************************
 350:bt.c          ****   //* Handle user key inputs (move between discovered units)
 351:bt.c          ****   //*************************************************************
 352:bt.c          ****   done = FALSE;
 353:bt.c          ****   cursorPos = 0;
 354:bt.c          ****   drawBtsFound(TRUE, cursorPos);
 355:bt.c          ****   while(done == FALSE)
 356:bt.c          ****   {
 357:bt.c          ****     anyKey = checkKey();
 358:bt.c          ****     if (anyKey != KEY_NOTHING)
 359:bt.c          ****     {
 360:bt.c          ****       //exit and save new name
 361:bt.c          ****       if (anyKey == KEY_CENTER)
 362:bt.c          ****       {
 363:bt.c          ****         done = TRUE;
 364:bt.c          ****       }
 365:bt.c          **** 
 366:bt.c          ****       //
 367:bt.c          ****       else if (anyKey == KEY_UP)
 368:bt.c          ****       {
 369:bt.c          ****         if (cursorPos > 0)
 370:bt.c          ****           cursorPos--;
 371:bt.c          ****         else
 372:bt.c          ****           cursorPos = MAX_BT_UNITS-1;
 373:bt.c          ****         drawBtsFound(TRUE, cursorPos);
 374:bt.c          ****       }
 375:bt.c          ****       
 376:bt.c          ****       //
 377:bt.c          ****       else if (anyKey == KEY_DOWN)
ARM GAS  /cygdrive/c/Users/Zbyszko/AppData/Local/Temp/ccaXFopk.s 			page 8


 378:bt.c          ****       {
 379:bt.c          ****         if (cursorPos < MAX_BT_UNITS-1)
 380:bt.c          ****           cursorPos++;
 381:bt.c          ****         else
 382:bt.c          ****           cursorPos = 0;
 383:bt.c          ****           drawBtsFound(TRUE, cursorPos);
 384:bt.c          ****       }
 385:bt.c          ****     }
 386:bt.c          ****     osSleep(1);
 387:bt.c          ****   }
 388:bt.c          **** 
 389:bt.c          ****   //*************************************************************
 390:bt.c          ****   //* Get name of selected (discovered) bt unit
 391:bt.c          ****   //*************************************************************
 392:bt.c          ****   cnt = 0;
 393:bt.c          ****   numServices = 0;
 394:bt.c          ****   if (foundBtUnits[cursorPos].active == TRUE)
 395:bt.c          ****   {
 396:bt.c          ****     tU8   serviceName[17];
 397:bt.c          ****     tBool longName = FALSE;
 398:bt.c          **** 
 399:bt.c          ****     uart1SendString("AT+BTSDP=");
 400:bt.c          ****     uart1SendString(foundBtUnits[cursorPos].btAddress);
 401:bt.c          ****     uart1SendString("\r");
 402:bt.c          **** 
 403:bt.c          ****     timeStamp = ms;
 404:bt.c          ****     done = FALSE;
 405:bt.c          ****     recvPos = 0;
 406:bt.c          **** 
 407:bt.c          ****     while((done == FALSE) && ((ms - timeStamp) < 6000))
 408:bt.c          ****     {
 409:bt.c          ****       //check if any character has been received from BT
 410:bt.c          ****       if (uart1GetChar(&rxChar) == TRUE)
 411:bt.c          ****       {
 412:bt.c          ****         printf("%c", rxChar);
 413:bt.c          ****       
 414:bt.c          ****         if (rxChar == 0x0a)
 415:bt.c          ****         {
 416:bt.c          ****           if (recvPos > 0)
 417:bt.c          ****             recvBuf[recvPos-1] = '\0';
 418:bt.c          **** 
 419:bt.c          ****           //evaluate received bytes
 420:bt.c          ****           if (memcmp(recvBuf, "+BTSDP: COMPLETE", 16) == 0)
 421:bt.c          ****             done = TRUE;
 422:bt.c          **** 
 423:bt.c          ****           else if (memcmp(recvBuf, "+BTSDP: ", 8) == 0)
 424:bt.c          ****           {
 425:bt.c          ****             numServices++;
 426:bt.c          ****             
 427:bt.c          ****             //save first services found
 428:bt.c          ****             if (numServices == 1)
 429:bt.c          ****             {
 430:bt.c          ****               tU8 *pStr;
 431:bt.c          ****               
 432:bt.c          ****               //skip to first '"'
 433:bt.c          ****               pStr = strchr(&recvBuf[10], '\"');
 434:bt.c          ****               if (pStr != NULL)
ARM GAS  /cygdrive/c/Users/Zbyszko/AppData/Local/Temp/ccaXFopk.s 			page 9


 435:bt.c          ****               {
 436:bt.c          ****                 tU8 i;
 437:bt.c          **** 
 438:bt.c          ****                 //get string (to '"')
 439:bt.c          ****                 pStr++;
 440:bt.c          ****                 i = 0;
 441:bt.c          ****                 while((*pStr != '\"') && (i < 16))
 442:bt.c          ****                   serviceName[i++] = *pStr++;
 443:bt.c          ****                 serviceName[i] = '\0';
 444:bt.c          ****                 if (*pStr != '\"')
 445:bt.c          ****                   longName = TRUE;
 446:bt.c          ****                 else
 447:bt.c          ****                   longName = FALSE;
 448:bt.c          ****               }
 449:bt.c          ****               else
 450:bt.c          ****                 serviceName[0] = '\0';
 451:bt.c          ****             }
 452:bt.c          ****           }
 453:bt.c          ****           recvPos = 0;
 454:bt.c          ****         }
 455:bt.c          ****         else if (recvPos < RECV_BUF_LEN)
 456:bt.c          ****           recvBuf[recvPos++] = rxChar;
 457:bt.c          ****       }
 458:bt.c          ****       osSleep(1);
 459:bt.c          **** 
 460:bt.c          ****       //print activity indicator
 461:bt.c          ****       lcdGotoxy(74,16);
 462:bt.c          ****       lcdColor(BT_BACKGROUND_COLOR,0xfd);
 463:bt.c          ****       switch(cnt % 150)
 464:bt.c          ****       {
 465:bt.c          ****         case   0: lcdPuts("     ");break;
 466:bt.c          ****         case  25: lcdPuts("-  ");break;
 467:bt.c          ****         case  50: lcdPuts("-- ");break;
 468:bt.c          ****         case  75: lcdPuts("---");break;
 469:bt.c          ****         case 100: lcdPuts(" --");break;
 470:bt.c          ****         case 125: lcdPuts("  -");break;
 471:bt.c          ****         default: break;
 472:bt.c          ****       }
 473:bt.c          ****       cnt++;
 474:bt.c          ****     }
 475:bt.c          ****     
 476:bt.c          ****     //display result
 477:bt.c          ****     lcdRect(1, 16, 126, 84, BT_BACKGROUND_COLOR);
 478:bt.c          ****     lcdColor(BT_BACKGROUND_COLOR,0xfd);
 479:bt.c          ****     lcdGotoxy(2,16+(14*0));
 480:bt.c          ****     lcdPuts("Found ");
 481:bt.c          ****     {
 482:bt.c          ****       tU8 str[3];
 483:bt.c          ****       
 484:bt.c          ****       str[1] = (numServices % 10) + '0';
 485:bt.c          ****       if (numServices >= 10)
 486:bt.c          ****         str[0] = (numServices / 10) + '0';
 487:bt.c          ****       else
 488:bt.c          ****         str[0] = ' ';
 489:bt.c          ****       str[2] = '\0';
 490:bt.c          ****       lcdPuts(str);
 491:bt.c          ****     }
ARM GAS  /cygdrive/c/Users/Zbyszko/AppData/Local/Temp/ccaXFopk.s 			page 10


 492:bt.c          ****     lcdGotoxy(2,16+(14*1));
 493:bt.c          ****     lcdPuts(" services");
 494:bt.c          ****     
 495:bt.c          ****     if (numServices > 0)
 496:bt.c          ****     {
 497:bt.c          ****       lcdGotoxy(2,16+(14*2));
 498:bt.c          ****       lcdPuts("First service");
 499:bt.c          ****       lcdGotoxy(2,16+(14*3));
 500:bt.c          ****       lcdPuts(" name is:");
 501:bt.c          ****       lcdGotoxy(2,16+(14*4));
 502:bt.c          ****       lcdPuts(serviceName);
 503:bt.c          ****     
 504:bt.c          ****       if(longName == TRUE)
 505:bt.c          ****       {
 506:bt.c          ****         lcdGotoxy(2,16+(14*5));
 507:bt.c          ****         lcdPuts("(name trunc:ed)");
 508:bt.c          ****       }
 509:bt.c          ****     }
 510:bt.c          **** 
 511:bt.c          ****     //wait for key press
 512:bt.c          ****     done = FALSE;
 513:bt.c          ****     while(done == FALSE)
 514:bt.c          ****     {
 515:bt.c          ****       anyKey = checkKey();
 516:bt.c          ****       if (anyKey != KEY_NOTHING)
 517:bt.c          ****         done = TRUE;
 518:bt.c          ****       osSleep(1);
 519:bt.c          ****     }
 520:bt.c          ****   }
 521:bt.c          ****   
 522:bt.c          ****   //erase screen
 523:bt.c          ****   lcdRect(1, 16, 126, 84, BT_BACKGROUND_COLOR);
 524:bt.c          **** 
 525:bt.c          ****   //start BT handling process again
 526:bt.c          ****   stopRecvProc = FALSE;
 527:bt.c          ****   osSemGive(&recvSem, &error);
 528:bt.c          **** 
 529:bt.c          **** 
 530:bt.c          ****   //*************************************************************
 531:bt.c          ****   //* Exit
 532:bt.c          ****   //*************************************************************
 533:bt.c          ****   btSetMode(btCommandMode);
 534:bt.c          **** }
 535:bt.c          **** 
 536:bt.c          **** 
 537:bt.c          **** /*****************************************************************************
 538:bt.c          ****  *
 539:bt.c          ****  * Description:
 540:bt.c          ****  *    Prints the Bluetooth address and the current cursor position.
 541:bt.c          ****  *
 542:bt.c          ****  ****************************************************************************/
 543:bt.c          **** static void
 544:bt.c          **** drawBtAddress(tU8 cursor)
 545:bt.c          **** {
 546:bt.c          ****   tU32 col;
 547:bt.c          **** 
 548:bt.c          ****   lcdGotoxy(16,85);
ARM GAS  /cygdrive/c/Users/Zbyszko/AppData/Local/Temp/ccaXFopk.s 			page 11


 549:bt.c          ****   for(col=0; col<12; col++)
 550:bt.c          ****   {
 551:bt.c          ****     if(col == cursor)
 552:bt.c          ****       lcdColor(BT_BACKGROUND_COLOR,0xe0);
 553:bt.c          ****     else
 554:bt.c          ****       lcdColor(BT_BACKGROUND_COLOR,0x1c);
 555:bt.c          ****     lcdPutchar(btAddress[col]);
 556:bt.c          ****   }
 557:bt.c          **** }
 558:bt.c          **** 
 559:bt.c          **** 
 560:bt.c          **** /*****************************************************************************
 561:bt.c          ****  *
 562:bt.c          ****  * Description:
 563:bt.c          ****  *    Function to handle setting of Bluetooth address. It first reads
 564:bt.c          ****  *    the current address from the BGB203-S06 unit.
 565:bt.c          ****  *
 566:bt.c          ****  ****************************************************************************/
 567:bt.c          **** static void
 568:bt.c          **** btSetAddress(void)
 569:bt.c          **** {
 570:bt.c          ****   tU8 rxChar;
 571:bt.c          ****   tU8 done;
 572:bt.c          ****   tU8 anyKey;
 573:bt.c          ****   tU8 cursorPos;
 574:bt.c          ****   tU32 timeStamp;
 575:bt.c          ****   tU8 recvBuf[RECV_BUF_LEN];
 576:bt.c          ****   tU8 recvPos;
 577:bt.c          ****   tU8 error;
 578:bt.c          **** 
 579:bt.c          ****   //clear menu screen
 580:bt.c          ****   lcdRect(1, 16, 126, 84, BT_BACKGROUND_COLOR);
 581:bt.c          ****   lcdGotoxy(18,20);
 582:bt.c          ****   lcdColor(BT_BACKGROUND_COLOR,0xfd);
 583:bt.c          ****   lcdPuts("Set address:");
 584:bt.c          ****   lcdGotoxy(6,34);
 585:bt.c          ****   lcdPuts("Move cursor and");
 586:bt.c          ****   lcdGotoxy(6,48);
 587:bt.c          ****   lcdPuts("set each char.");
 588:bt.c          ****   lcdGotoxy(6,62);
 589:bt.c          ****   lcdPuts("Exit with c-key");
 590:bt.c          **** 
 591:bt.c          ****   //stop the BT handling process
 592:bt.c          ****   stopRecvProc = TRUE;
 593:bt.c          **** 
 594:bt.c          ****   //*************************************************************
 595:bt.c          ****   //* Get current address
 596:bt.c          ****   //*************************************************************
 597:bt.c          ****   osSleep(100);
 598:bt.c          ****   uart1SendString("+++");
 599:bt.c          ****   osSleep(100);
 600:bt.c          ****   uart1SendString("AT+BTBDA\r");
 601:bt.c          **** 
 602:bt.c          ****   //*************************************************************
 603:bt.c          ****   //* Get (receive and interpret) current address
 604:bt.c          ****   //*************************************************************
 605:bt.c          ****   timeStamp = ms;
ARM GAS  /cygdrive/c/Users/Zbyszko/AppData/Local/Temp/ccaXFopk.s 			page 12


 606:bt.c          ****   done = FALSE;
 607:bt.c          ****   recvPos = 0;
 608:bt.c          ****   while((done == FALSE) && ((ms - timeStamp) < 200))
 609:bt.c          ****   {
 610:bt.c          ****     //check if any character has been received from BT
 611:bt.c          ****     if (uart1GetChar(&rxChar) == TRUE)
 612:bt.c          ****     {
 613:bt.c          ****       printf("%c", rxChar);
 614:bt.c          ****       
 615:bt.c          ****       if (rxChar == 0x0a)
 616:bt.c          ****       {
 617:bt.c          ****         if (recvPos > 0)
 618:bt.c          ****           recvBuf[recvPos-1] = '\0';
 619:bt.c          **** 
 620:bt.c          ****         //evaluate received bytes
 621:bt.c          ****         if ((memcmp(recvBuf, "+BTBDA: ", 8) == 0) && (recvPos == 21))
 622:bt.c          ****         {
 623:bt.c          ****           recvPos = 8;
 624:bt.c          ****           for(recvPos=8; recvPos<20; recvPos++)
 625:bt.c          ****             btAddress[recvPos-8] = recvBuf[recvPos];
 626:bt.c          ****           btAddress[12] = '\0';
 627:bt.c          ****           done = TRUE;
 628:bt.c          ****         }
 629:bt.c          ****         recvPos = 0;
 630:bt.c          ****       }
 631:bt.c          ****       else if (recvPos < RECV_BUF_LEN)
 632:bt.c          ****         recvBuf[recvPos++] = rxChar;
 633:bt.c          ****     }
 634:bt.c          ****   }
 635:bt.c          **** 
 636:bt.c          ****   //start BT handling process again
 637:bt.c          ****   stopRecvProc = FALSE;
 638:bt.c          ****   osSemGive(&recvSem, &error);
 639:bt.c          **** 
 640:bt.c          ****   //*************************************************************
 641:bt.c          ****   //* Handle user key inputs
 642:bt.c          ****   //*************************************************************
 643:bt.c          ****   done = FALSE;
 644:bt.c          ****   cursorPos = 0;
 645:bt.c          ****   drawBtAddress(cursorPos);
 646:bt.c          ****   while(done == FALSE)
 647:bt.c          ****   {
 648:bt.c          ****     anyKey = checkKey();
 649:bt.c          ****     if (anyKey != KEY_NOTHING)
 650:bt.c          ****     {
 651:bt.c          ****       //exit and save new address
 652:bt.c          ****       if (anyKey == KEY_CENTER)
 653:bt.c          ****       {
 654:bt.c          ****         tMenu menu;
 655:bt.c          **** 
 656:bt.c          ****         menu.xPos = 5;
 657:bt.c          ****         menu.yPos = 35;
 658:bt.c          ****         menu.xLen = 6+(14*8);
 659:bt.c          ****         menu.yLen = 3*14+5;
 660:bt.c          ****         menu.noOfChoices = 2;
 661:bt.c          ****         menu.initialChoice = 0;
 662:bt.c          ****         menu.pHeaderText = "Exit";
ARM GAS  /cygdrive/c/Users/Zbyszko/AppData/Local/Temp/ccaXFopk.s 			page 13


 663:bt.c          ****         menu.headerTextXpos = 50;
 664:bt.c          ****         menu.pChoice[0] = "Cancel";
 665:bt.c          ****         menu.pChoice[1] = "Store new addr";
 666:bt.c          ****         menu.bgColor       = 0;
 667:bt.c          ****         menu.borderColor   = 0x6d;
 668:bt.c          ****         menu.headerColor   = 0;
 669:bt.c          ****         menu.choicesColor  = 0xfd;
 670:bt.c          ****         menu.selectedColor = 0xe0;
 671:bt.c          ****         
 672:bt.c          ****         switch(drawMenu(menu))
 673:bt.c          ****         {
 674:bt.c          ****           case 0: break;  //Ignore changes
 675:bt.c          ****           case 1:         //Store new address
 676:bt.c          ****             //*************************************************************
 677:bt.c          ****             //* Set new local address (and automatically save in FLASH)
 678:bt.c          ****             //*************************************************************
 679:bt.c          ****             uart1SendString("AT+BTSET=1,");
 680:bt.c          ****             uart1SendString(btAddress);     //12 digits
 681:bt.c          ****             uart1SendString("\r");
 682:bt.c          ****             break;
 683:bt.c          ****           default: break;
 684:bt.c          ****         }
 685:bt.c          **** 
 686:bt.c          ****         done = TRUE;
 687:bt.c          ****       }
 688:bt.c          **** 
 689:bt.c          ****       //
 690:bt.c          ****       else if (anyKey == KEY_UP)
 691:bt.c          ****       {
 692:bt.c          ****         btAddress[cursorPos]++;
 693:bt.c          ****         if (btAddress[cursorPos] > 'F')
 694:bt.c          ****           btAddress[cursorPos] = '0';
 695:bt.c          ****         else if ((btAddress[cursorPos] > '9') && (btAddress[cursorPos] < 'A'))
 696:bt.c          ****           btAddress[cursorPos] = 'A';
 697:bt.c          ****         drawBtAddress(cursorPos);
 698:bt.c          ****       }
 699:bt.c          ****       
 700:bt.c          ****       //
 701:bt.c          ****       else if (anyKey == KEY_DOWN)
 702:bt.c          ****       {
 703:bt.c          ****         btAddress[cursorPos]--;
 704:bt.c          ****         if (btAddress[cursorPos] < '0')
 705:bt.c          ****           btAddress[cursorPos] = 'F';
 706:bt.c          ****         else if ((btAddress[cursorPos] < 'A') && (btAddress[cursorPos] > '9'))
 707:bt.c          ****           btAddress[cursorPos] = '9';
 708:bt.c          ****         drawBtAddress(cursorPos);
 709:bt.c          ****       }
 710:bt.c          **** 
 711:bt.c          ****       //
 712:bt.c          ****       else if (anyKey == KEY_LEFT)
 713:bt.c          ****       {
 714:bt.c          ****         if (cursorPos > 0)
 715:bt.c          ****           cursorPos--;
 716:bt.c          ****         drawBtAddress(cursorPos);
 717:bt.c          ****       }
 718:bt.c          **** 
 719:bt.c          ****       //
ARM GAS  /cygdrive/c/Users/Zbyszko/AppData/Local/Temp/ccaXFopk.s 			page 14


 720:bt.c          ****       else if (anyKey == KEY_RIGHT)
 721:bt.c          ****       {
 722:bt.c          ****         if (cursorPos < 11)
 723:bt.c          ****           cursorPos++;
 724:bt.c          ****         drawBtAddress(cursorPos);
 725:bt.c          ****       }
 726:bt.c          ****     }
 727:bt.c          ****     osSleep(1);
 728:bt.c          ****   }
 729:bt.c          **** 
 730:bt.c          ****   osSleep(100);
 731:bt.c          ****   btSetMode(btCommandMode);
 732:bt.c          **** }
 733:bt.c          **** 
 734:bt.c          **** 
 735:bt.c          **** /*****************************************************************************
 736:bt.c          ****  *
 737:bt.c          ****  * Description:
 738:bt.c          ****  *    Prints the Bluetooth name and the current cursor position.
 739:bt.c          ****  *
 740:bt.c          ****  ****************************************************************************/
 741:bt.c          **** static void
 742:bt.c          **** drawBtName(tU8 cursor)
 743:bt.c          **** {
 744:bt.c          ****   tU32 col;
 745:bt.c          **** 
 746:bt.c          ****   lcdGotoxy(0,85);
 747:bt.c          ****   for(col=0; col<=15; col++)
 748:bt.c          ****   {
 749:bt.c          ****     if(col == cursor)
 750:bt.c          ****       lcdColor(BT_BACKGROUND_COLOR+1,0xe0);
 751:bt.c          ****     else
 752:bt.c          ****       lcdColor(BT_BACKGROUND_COLOR,0xfd);
 753:bt.c          ****     lcdPutchar(localName[col]);
 754:bt.c          ****   }
 755:bt.c          **** }
 756:bt.c          **** 
 757:bt.c          **** 
 758:bt.c          **** /*****************************************************************************
 759:bt.c          ****  *
 760:bt.c          ****  * Description:
 761:bt.c          ****  *    Function to handle setting of Bluetooth name. It first reads
 762:bt.c          ****  *    the current (Bluetooth) name from the BGB203-S06 unit.
 763:bt.c          ****  *
 764:bt.c          ****  ****************************************************************************/
 765:bt.c          **** static void
 766:bt.c          **** btSetName(void)
 767:bt.c          **** {
 768:bt.c          ****   tU8  rxChar;
 769:bt.c          ****   tU8  done;
 770:bt.c          ****   tU8  i;
 771:bt.c          ****   tU8  anyKey;
 772:bt.c          ****   tU8  cursorPos;
 773:bt.c          ****   tU32 timeStamp;
 774:bt.c          ****   volatile tU8  recvPos;
 775:bt.c          ****   tU8  error;
 776:bt.c          ****   tU8  recvBuf[RECV_BUF_LEN];
ARM GAS  /cygdrive/c/Users/Zbyszko/AppData/Local/Temp/ccaXFopk.s 			page 15


 777:bt.c          **** 
 778:bt.c          ****   //clear menu screen
 779:bt.c          ****   lcdRect(1, 16, 126, 84, BT_BACKGROUND_COLOR);
 780:bt.c          ****   lcdGotoxy(34,20);
 781:bt.c          ****   lcdColor(BT_BACKGROUND_COLOR,0xfd);
 782:bt.c          ****   lcdPuts("Set name:");
 783:bt.c          ****   lcdGotoxy(6,34);
 784:bt.c          ****   lcdPuts("Move cursor and");
 785:bt.c          ****   lcdGotoxy(6,48);
 786:bt.c          ****   lcdPuts("set each char.");
 787:bt.c          ****   lcdGotoxy(6,62);
 788:bt.c          ****   lcdPuts("Exit with c-key");
 789:bt.c          **** 
 790:bt.c          ****   //stop the BT handling process
 791:bt.c          ****   stopRecvProc = TRUE;
 792:bt.c          **** 
 793:bt.c          ****   //*************************************************************
 794:bt.c          ****   //* Get current name
 795:bt.c          ****   //*************************************************************
 796:bt.c          ****   osSleep(100);
 797:bt.c          ****   uart1SendString("+++");
 798:bt.c          ****   osSleep(100);
 799:bt.c          ****   uart1SendString("AT+BTLNM\r");
 800:bt.c          **** 
 801:bt.c          ****   //*************************************************************
 802:bt.c          ****   //* Get (receive and interpret) current name
 803:bt.c          ****   //*************************************************************
 804:bt.c          ****   timeStamp = ms;
 805:bt.c          ****   done = FALSE;
 806:bt.c          ****   recvPos = 0;
 807:bt.c          ****   while((done == FALSE) && ((ms - timeStamp) < 200))
 808:bt.c          ****   {
 809:bt.c          ****     //check if any character has been received from BT
 810:bt.c          ****     if (uart1GetChar(&rxChar) == TRUE)
 811:bt.c          ****     {
 812:bt.c          ****       printf("%c", rxChar);
 813:bt.c          ****       
 814:bt.c          ****       if (rxChar == 0x0a)
 815:bt.c          ****       {
 816:bt.c          ****         if (recvPos > 0)
 817:bt.c          ****           recvBuf[recvPos-1] = '\0';
 818:bt.c          **** 
 819:bt.c          ****         //evaluate received bytes
 820:bt.c          ****         if ((memcmp(recvBuf, "+BTLNM: \"", 9) == 0) && (recvPos < 27))
 821:bt.c          ****         {
 822:bt.c          ****           for(recvPos=0; recvPos<16; recvPos++)
 823:bt.c          ****             localName[recvPos] = ' ';
 824:bt.c          ****           localName[16] = '\0';
 825:bt.c          **** 
 826:bt.c          ****           recvPos = 9;
 827:bt.c          ****           while(recvBuf[recvPos] != '\"')
 828:bt.c          ****           {
 829:bt.c          ****             localName[recvPos-9] = recvBuf[recvPos];
 830:bt.c          ****             recvPos++;
 831:bt.c          ****           }
 832:bt.c          ****           done = TRUE;
 833:bt.c          ****         }
ARM GAS  /cygdrive/c/Users/Zbyszko/AppData/Local/Temp/ccaXFopk.s 			page 16


 834:bt.c          ****         recvPos = 0;
 835:bt.c          ****       }
 836:bt.c          ****       else if (recvPos < RECV_BUF_LEN)
 837:bt.c          ****         recvBuf[recvPos++] = rxChar;
 838:bt.c          ****     }
 839:bt.c          ****   }
 840:bt.c          **** 
 841:bt.c          ****   //start BT handling process again
 842:bt.c          ****   stopRecvProc = FALSE;
 843:bt.c          ****   osSemGive(&recvSem, &error);
 844:bt.c          **** 
 845:bt.c          ****   //*************************************************************
 846:bt.c          ****   //* Handle user key inputs
 847:bt.c          ****   //*************************************************************
 848:bt.c          ****   done = FALSE;
 849:bt.c          ****   cursorPos = 0;
 850:bt.c          ****   drawBtName(cursorPos);
 851:bt.c          ****   while(done == FALSE)
 852:bt.c          ****   {
 853:bt.c          ****     anyKey = checkKey();
 854:bt.c          ****     if (anyKey != KEY_NOTHING)
 855:bt.c          ****     {
 856:bt.c          ****       //exit and save new name
 857:bt.c          ****       if (anyKey == KEY_CENTER)
 858:bt.c          ****       {
 859:bt.c          ****         tMenu menu;
 860:bt.c          **** 
 861:bt.c          ****         menu.xPos = 5;
 862:bt.c          ****         menu.yPos = 35;
 863:bt.c          ****         menu.xLen = 6+(14*8);
 864:bt.c          ****         menu.yLen = 3*14+5;
 865:bt.c          ****         menu.noOfChoices = 2;
 866:bt.c          ****         menu.initialChoice = 0;
 867:bt.c          ****         menu.pHeaderText = "Exit";
 868:bt.c          ****         menu.headerTextXpos = 42;
 869:bt.c          ****         menu.pChoice[0] = "Cancel";
 870:bt.c          ****         menu.pChoice[1] = "Store new name";
 871:bt.c          ****         menu.bgColor       = 0;
 872:bt.c          ****         menu.borderColor   = 0x6d;
 873:bt.c          ****         menu.headerColor   = 0;
 874:bt.c          ****         menu.choicesColor  = 0xfd;
 875:bt.c          ****         menu.selectedColor = 0xe0;
 876:bt.c          ****         
 877:bt.c          ****         switch(drawMenu(menu))
 878:bt.c          ****         {
 879:bt.c          ****           case 0: break;  //Ignore changes
 880:bt.c          ****           case 1:         //Store new address
 881:bt.c          ****             //*************************************************************
 882:bt.c          ****             //* Trim ending spaces in new name
 883:bt.c          ****             //*************************************************************
 884:bt.c          ****             for(i=15; i>0; i--)
 885:bt.c          ****             {
 886:bt.c          ****               if (localName[i] == ' ')
 887:bt.c          ****                 localName[i] = '\0';
 888:bt.c          ****               else
 889:bt.c          ****                 break;
 890:bt.c          ****             }
ARM GAS  /cygdrive/c/Users/Zbyszko/AppData/Local/Temp/ccaXFopk.s 			page 17


 891:bt.c          **** 
 892:bt.c          ****             //*************************************************************
 893:bt.c          ****             //* Set new local name
 894:bt.c          ****             //*************************************************************
 895:bt.c          ****             uart1SendString("AT+BTLNM=\"");
 896:bt.c          ****             uart1SendString(localName);
 897:bt.c          ****             uart1SendString("\"\r");
 898:bt.c          ****             osSleep(100);
 899:bt.c          **** 
 900:bt.c          ****             //*************************************************************
 901:bt.c          ****             //* Save new settings in FLASH
 902:bt.c          ****             //*************************************************************
 903:bt.c          ****             uart1SendString("AT+BTFLS\r");
 904:bt.c          ****             break;
 905:bt.c          ****           default: break;
 906:bt.c          ****         }
 907:bt.c          ****         done = TRUE;
 908:bt.c          ****       }
 909:bt.c          **** 
 910:bt.c          ****       //
 911:bt.c          ****       else if (anyKey == KEY_UP)
 912:bt.c          ****       {
 913:bt.c          ****         localName[cursorPos]++;
 914:bt.c          ****         if (localName[cursorPos] > 127)
 915:bt.c          ****           localName[cursorPos] = ' ';
 916:bt.c          ****         drawBtName(cursorPos);
 917:bt.c          ****       }
 918:bt.c          ****       
 919:bt.c          ****       //
 920:bt.c          ****       else if (anyKey == KEY_DOWN)
 921:bt.c          ****       {
 922:bt.c          ****         localName[cursorPos]--;
 923:bt.c          ****         if (localName[cursorPos] < ' ')
 924:bt.c          ****           localName[cursorPos] = 127;
 925:bt.c          ****         drawBtName(cursorPos);
 926:bt.c          ****       }
 927:bt.c          **** 
 928:bt.c          ****       //
 929:bt.c          ****       else if (anyKey == KEY_LEFT)
 930:bt.c          ****       {
 931:bt.c          ****         if (cursorPos > 0)
 932:bt.c          ****           cursorPos--;
 933:bt.c          ****         drawBtName(cursorPos);
 934:bt.c          ****       }
 935:bt.c          **** 
 936:bt.c          ****       //
 937:bt.c          ****       else if (anyKey == KEY_RIGHT)
 938:bt.c          ****       {
 939:bt.c          ****         if (cursorPos < 15)
 940:bt.c          ****           cursorPos++;
 941:bt.c          ****         drawBtName(cursorPos);
 942:bt.c          ****       }
 943:bt.c          ****     }
 944:bt.c          ****     osSleep(1);
 945:bt.c          ****   }
 946:bt.c          **** 
 947:bt.c          ****   osSleep(100);
ARM GAS  /cygdrive/c/Users/Zbyszko/AppData/Local/Temp/ccaXFopk.s 			page 18


 948:bt.c          ****   btSetMode(btCommandMode);
 949:bt.c          **** }
 950:bt.c          **** 
 951:bt.c          **** 
 952:bt.c          **** /*****************************************************************************
 953:bt.c          ****  *
 954:bt.c          ****  * Description:
 955:bt.c          ****  *    Activates or deactivates the BGB203-S06 unit, by controlling the
 956:bt.c          ****  *    unit's reset signal.
 957:bt.c          ****  *    Switch between modes every time this function is called.
 958:bt.c          ****  *
 959:bt.c          ****  ****************************************************************************/
 960:bt.c          **** static void
 961:bt.c          **** btActiveSleep(void)
 962:bt.c          **** {
 963:bt.c          ****   //clear menu screen
 964:bt.c          ****   lcdRect(1, 16, 126, 84, BT_BACKGROUND_COLOR);
 965:bt.c          ****   lcdGotoxy(18,34);
 966:bt.c          ****   lcdColor(BT_BACKGROUND_COLOR,0xfd);
 967:bt.c          **** 
 968:bt.c          ****   if (btSleepState == FALSE)
 969:bt.c          ****   {
 970:bt.c          ****     tU8 messagePart1[] = "Deactivate";
 971:bt.c          ****     tU8 messagePart2[] = "BT module...";
 972:bt.c          ****     
 973:bt.c          ****     resetBT(TRUE);
 974:bt.c          ****     displayMessage(messagePart1, 3);
 975:bt.c          ****     lcdGotoxy(18,48);
 976:bt.c          ****     displayMessage(messagePart2, 3);
 977:bt.c          ****     
 978:bt.c          ****     btSleepState = TRUE;
 979:bt.c          ****   }
 980:bt.c          ****   else
 981:bt.c          ****   {
 982:bt.c          ****     tU8 messagePart1[] = "Activate BT";
 983:bt.c          ****     tU8 messagePart2[] = "module...";
 984:bt.c          ****     
 985:bt.c          ****     resetBT(FALSE);
 986:bt.c          ****     btSetMode(btCommandMode);
 987:bt.c          **** 
 988:bt.c          ****     displayMessage(messagePart1, 3);
 989:bt.c          ****     lcdGotoxy(18,48);
 990:bt.c          ****     displayMessage(messagePart2, 3);
 991:bt.c          **** 
 992:bt.c          ****     btSleepState = FALSE;
 993:bt.c          ****   }
 994:bt.c          ****   osSleep(200);
 995:bt.c          **** }
 996:bt.c          **** 
 997:bt.c          **** 
 998:bt.c          **** /*****************************************************************************
 999:bt.c          ****  *
1000:bt.c          ****  * Description:
1001:bt.c          ****  *    Set the BGB203-S06 unit in command or data mode.
1002:bt.c          ****  *
1003:bt.c          ****  ****************************************************************************/
1004:bt.c          **** static void
ARM GAS  /cygdrive/c/Users/Zbyszko/AppData/Local/Temp/ccaXFopk.s 			page 19


1005:bt.c          **** btSetMode(tBool commandMode)
1006:bt.c          **** {
1007:bt.c          ****   //check if set BGB203-S06 in command mode
1008:bt.c          ****   if (commandMode == TRUE)
1009:bt.c          ****   {
1010:bt.c          ****     osSleep(100);
1011:bt.c          ****     uart1SendString("+++");
1012:bt.c          ****     osSleep(150);
1013:bt.c          ****   }
1014:bt.c          **** 
1015:bt.c          ****   //set BGB203-S06 in data mode (server mode)
1016:bt.c          ****   else
1017:bt.c          ****   {
1018:bt.c          ****     osSleep(100);
1019:bt.c          ****     uart1SendString("+++");
1020:bt.c          ****     osSleep(100);
1021:bt.c          ****     uart1SendString("AT+BTSRV=1\r");
1022:bt.c          ****   }
1023:bt.c          **** }
1024:bt.c          **** 
1025:bt.c          **** 
1026:bt.c          **** /*****************************************************************************
1027:bt.c          ****  *
1028:bt.c          ****  * Description:
1029:bt.c          ****  *    Set the BGB203-S06 unit in command or data mode.
1030:bt.c          ****  *    Switch between modes every time this function is called.
1031:bt.c          ****  *
1032:bt.c          ****  ****************************************************************************/
1033:bt.c          **** static void
1034:bt.c          **** btMode(void)
1035:bt.c          **** {
1036:bt.c          ****   //clear menu screen
1037:bt.c          ****   lcdRect(1, 16, 126, 84, BT_BACKGROUND_COLOR);
1038:bt.c          ****   lcdGotoxy(14,26);
1039:bt.c          ****   lcdColor(BT_BACKGROUND_COLOR,0xfd);
1040:bt.c          **** 
1041:bt.c          ****   if (btCommandMode == FALSE)
1042:bt.c          ****   {
1043:bt.c          ****     tU8 messagePart1[] = "Activate";
1044:bt.c          ****     tU8 messagePart2[] = "command mode";
1045:bt.c          ****     tU8 messagePart3[] = "(unit cannot";
1046:bt.c          ****     tU8 messagePart4[] = "be discovered";
1047:bt.c          ****     tU8 messagePart5[] = "in this mode)";
1048:bt.c          ****     
1049:bt.c          ****     displayMessage(messagePart1, 3);
1050:bt.c          ****     lcdGotoxy(14,40);
1051:bt.c          ****     displayMessage(messagePart2, 3);
1052:bt.c          ****     lcdGotoxy(14,54);
1053:bt.c          ****     displayMessage(messagePart3, 3);
1054:bt.c          ****     lcdGotoxy(14,68);
1055:bt.c          ****     displayMessage(messagePart4, 3);
1056:bt.c          ****     lcdGotoxy(14,84);
1057:bt.c          ****     displayMessage(messagePart5, 3);
1058:bt.c          **** 
1059:bt.c          ****     btSetMode(TRUE);
1060:bt.c          ****     btCommandMode = TRUE;
1061:bt.c          ****   }
ARM GAS  /cygdrive/c/Users/Zbyszko/AppData/Local/Temp/ccaXFopk.s 			page 20


1062:bt.c          ****   else
1063:bt.c          ****   {
1064:bt.c          ****     tU8 messagePart1[] = "Activate";
1065:bt.c          ****     tU8 messagePart2[] = "data mode...";
1066:bt.c          ****     tU8 messagePart3[] = "(unit can now";
1067:bt.c          ****     tU8 messagePart4[] = "be discovered)";
1068:bt.c          ****     
1069:bt.c          ****     displayMessage(messagePart1, 3);
1070:bt.c          ****     lcdGotoxy(14,40);
1071:bt.c          ****     displayMessage(messagePart2, 3);
1072:bt.c          ****     lcdGotoxy(14,54);
1073:bt.c          ****     displayMessage(messagePart3, 3);
1074:bt.c          ****     lcdGotoxy(14,68);
1075:bt.c          ****     displayMessage(messagePart4, 3);
1076:bt.c          **** 
1077:bt.c          ****     btSetMode(FALSE);
1078:bt.c          ****     btCommandMode = FALSE;
1079:bt.c          ****   }
1080:bt.c          ****   osSleep(100);
1081:bt.c          **** }
1082:bt.c          **** 
1083:bt.c          **** 
1084:bt.c          **** /*****************************************************************************
1085:bt.c          ****  *
1086:bt.c          ****  * Description:
1087:bt.c          ****  *    Draw cursor in main menu
1088:bt.c          ****  *
1089:bt.c          ****  * Params:
1090:bt.c          ****  *    [in] cursor - Cursor positions
1091:bt.c          ****  *
1092:bt.c          ****  ****************************************************************************/
1093:bt.c          **** static void
1094:bt.c          **** drawBtMenuCursor(tU8 cursor)
1095:bt.c          **** {
1096:bt.c          ****   tU32 row;
1097:bt.c          **** 
1098:bt.c          ****   for(row=0; row<=5; row++)
1099:bt.c          ****   {
1100:bt.c          ****     lcdGotoxy(7,16+(14*row));
1101:bt.c          ****     if(row == btCursor)
1102:bt.c          ****       lcdColor(BT_BACKGROUND_COLOR,0xe0);
1103:bt.c          ****     else
1104:bt.c          ****       lcdColor(BT_BACKGROUND_COLOR,0xfd);
1105:bt.c          ****     
1106:bt.c          ****     switch(row)
1107:bt.c          ****     {
1108:bt.c          ****       case 0: lcdPuts("Inquiry"); break;
1109:bt.c          ****       case 1: lcdPuts("Set name"); break;
1110:bt.c          ****       case 2: lcdPuts("Set address"); break;
1111:bt.c          ****       case 3: if (btCommandMode == FALSE) lcdPuts("Set comm.mode"); else lcdPuts("Set data mode"); 
1112:bt.c          ****       case 4: if (btSleepState == FALSE) lcdPuts("Deactivate BT"); else lcdPuts("Activate BT"); bre
1113:bt.c          ****       case 5: lcdPuts("Main menu"); break;
1114:bt.c          ****       default: break;
1115:bt.c          ****     }
1116:bt.c          ****   }
1117:bt.c          **** }
1118:bt.c          **** 
ARM GAS  /cygdrive/c/Users/Zbyszko/AppData/Local/Temp/ccaXFopk.s 			page 21


1119:bt.c          **** 
1120:bt.c          **** /*****************************************************************************
1121:bt.c          ****  *
1122:bt.c          ****  * Description:
1123:bt.c          ****  *    Draw main menu
1124:bt.c          ****  *
1125:bt.c          ****  ****************************************************************************/
1126:bt.c          **** static void
1127:bt.c          **** drawBtMenu(void)
1128:bt.c          **** {
1129:bt.c          ****   lcdColor(0,0);
1130:bt.c          ****   lcdClrscr();
1131:bt.c          **** 
1132:bt.c          ****   lcdRect(255, 255, 130, 130, BT_BACKBACKGROUND_COLOR);
1133:bt.c          ****   lcdRect(1, 16, 126, 84, BT_BACKGROUND_COLOR);
1134:bt.c          **** 
1135:bt.c          ****   lcdGotoxy(8,0);
1136:bt.c          ****   lcdColor(BT_BACKBACKGROUND_COLOR,0);
1137:bt.c          ****   lcdPuts("BLUETOOTH MENU");
1138:bt.c          ****   drawBtMenuCursor(btCursor);
1139:bt.c          ****   
1140:bt.c          ****   //display sleep status
1141:bt.c          ****   lcdGotoxy(0,101);
1142:bt.c          ****   lcdColor(BT_BACKBACKGROUND_COLOR,0x00);
1143:bt.c          ****   lcdPuts("BT stat:");
1144:bt.c          ****   lcdColor(BT_BACKBACKGROUND_COLOR,0xfd);
1145:bt.c          ****   if (btSleepState == FALSE)
1146:bt.c          ****     lcdPuts("Active");
1147:bt.c          ****   else
1148:bt.c          ****     lcdPuts("Inactive");
1149:bt.c          **** 
1150:bt.c          ****   lcdGotoxy(32,115);
1151:bt.c          ****   if (btCommandMode == FALSE)
1152:bt.c          ****     lcdPuts("Data mode");
1153:bt.c          ****   else
1154:bt.c          ****     lcdPuts("Command mode");
1155:bt.c          **** }
1156:bt.c          **** 
1157:bt.c          **** 
1158:bt.c          **** /*****************************************************************************
1159:bt.c          ****  *
1160:bt.c          ****  * Description:
1161:bt.c          ****  *    Implements the Bluetooth function menu
1162:bt.c          ****  *
1163:bt.c          ****  ****************************************************************************/
1164:bt.c          **** void
1165:bt.c          **** handleBt(void)
1166:bt.c          **** {
1167:bt.c          ****   tU8 exit = FALSE;
1168:bt.c          **** 
1169:bt.c          ****   //print menu
1170:bt.c          ****   drawBtMenu();
1171:bt.c          ****   
1172:bt.c          ****   while(exit == FALSE)
1173:bt.c          ****   {
1174:bt.c          ****     tU8 anyKey;
1175:bt.c          **** 
ARM GAS  /cygdrive/c/Users/Zbyszko/AppData/Local/Temp/ccaXFopk.s 			page 22


1176:bt.c          ****     anyKey = checkKey();
1177:bt.c          ****     if (anyKey != KEY_NOTHING)
1178:bt.c          ****     {
1179:bt.c          ****       //select specific function
1180:bt.c          ****       if (anyKey == KEY_CENTER)
1181:bt.c          ****       {
1182:bt.c          ****         switch(btCursor)
1183:bt.c          ****         {
1184:bt.c          ****           case 0: btInquiry(); break;
1185:bt.c          ****           case 1: btSetName(); break;
1186:bt.c          ****           case 2: btSetAddress(); break;
1187:bt.c          ****           case 3: btMode(); break;
1188:bt.c          ****           case 4: btActiveSleep(); break;
1189:bt.c          ****           case 5: exit = TRUE; break;
1190:bt.c          ****           default: break;
1191:bt.c          ****         }
1192:bt.c          ****         drawBtMenu();
1193:bt.c          ****       }
1194:bt.c          ****       
1195:bt.c          ****       //move cursor up
1196:bt.c          ****       else if (anyKey == KEY_UP)
1197:bt.c          ****       {
1198:bt.c          ****         if (btCursor > 0)
1199:bt.c          ****           btCursor--;
1200:bt.c          ****         else
1201:bt.c          ****           btCursor = 5;
1202:bt.c          ****         drawBtMenuCursor(btCursor);
1203:bt.c          ****       }
1204:bt.c          ****       
1205:bt.c          ****       //move cursor down
1206:bt.c          ****       else if (anyKey == KEY_DOWN)
1207:bt.c          ****       {
1208:bt.c          ****         if (btCursor < 5)
1209:bt.c          ****           btCursor++;
1210:bt.c          ****         else
1211:bt.c          ****           btCursor = 0;
1212:bt.c          ****         drawBtMenuCursor(btCursor);
1213:bt.c          ****       }
1214:bt.c          ****     }
1215:bt.c          ****     osSleep(1);
1216:bt.c          ****   }
1217:bt.c          **** }
1218:bt.c          **** 
1219:bt.c          **** 
1220:bt.c          **** /*****************************************************************************
1221:bt.c          ****  *
1222:bt.c          ****  * Description:
1223:bt.c          ****  *    Blocks the Bluetooth handling process to receive/send any characters
1224:bt.c          ****  *    from/to the BGB203-S06 unit.
1225:bt.c          ****  *
1226:bt.c          ****  ****************************************************************************/
1227:bt.c          **** void
1228:bt.c          **** blockBtProc(void)
1229:bt.c          **** {
  19              		.loc 1 1229 0
  20 0000 00B5     		push	{lr}
  21              	.LCFI0:
ARM GAS  /cygdrive/c/Users/Zbyszko/AppData/Local/Temp/ccaXFopk.s 			page 23


1230:bt.c          ****   //stop the BT handling process
1231:bt.c          ****   stopRecvProc = TRUE;
  22              		.loc 1 1231 0
  23 0002 044A     		ldr	r2, .L3
  24 0004 0123     		mov	r3, #1
  25 0006 1370     		strb	r3, [r2]
1232:bt.c          ****   osSleep(10);
  26              		.loc 1 1232 0
  27 0008 0A20     		mov	r0, #10
  28 000a FFF7FEFF 		bl	osSleep
1233:bt.c          **** }
  29              		.loc 1 1233 0
  30              		@ sp needed for prologue
  31 000e 01BC     		pop	{r0}
  32 0010 0047     		bx	r0
  33              	.L4:
  34 0012 0000     		.align	2
  35              	.L3:
  36 0014 00000000 		.word	stopRecvProc
  37              	.LFE17:
  38              		.size	blockBtProc, .-blockBtProc
  39              		.section	.rodata.str1.4,"aMS",%progbits,1
  40              		.align	2
  41              	.LC1:
  42 0000 2B2B2B00 		.ascii	"+++\000"
  43              		.align	2
  44              	.LC3:
  45 0004 41542B42 		.ascii	"AT+BTSRV=1\015\000"
  45      54535256 
  45      3D310D00 
  46              		.text
  47              		.align	2
  48              		.code 16
  49              		.thumb_func
  50              		.type	btSetMode, %function
  51              	btSetMode:
  52              	.LFB12:
  53              		.loc 1 1006 0
  54 0018 10B5     		push	{r4, lr}
  55              	.LCFI1:
  56              	.LVL0:
  57              		.loc 1 1006 0
  58 001a 0006     		lsl	r0, r0, #24
  59              	.LVL1:
  60 001c 000E     		lsr	r0, r0, #24
  61              	.LVL2:
  62 001e 0E4C     		ldr	r4, .L10
  63              		.loc 1 1008 0
  64 0020 0128     		cmp	r0, #1
  65 0022 09D1     		bne	.L6
  66              		.loc 1 1010 0
  67 0024 6420     		mov	r0, #100
  68              	.LVL3:
  69 0026 FFF7FEFF 		bl	osSleep
  70              		.loc 1 1011 0
  71 002a 201C     		mov	r0, r4
  72 002c FFF7FEFF 		bl	uart1SendString
ARM GAS  /cygdrive/c/Users/Zbyszko/AppData/Local/Temp/ccaXFopk.s 			page 24


  73              		.loc 1 1012 0
  74 0030 9620     		mov	r0, #150
  75 0032 FFF7FEFF 		bl	osSleep
  76 0036 0BE0     		b	.L9
  77              	.LVL4:
  78              	.L6:
  79              		.loc 1 1018 0
  80 0038 6420     		mov	r0, #100
  81              	.LVL5:
  82 003a FFF7FEFF 		bl	osSleep
  83              		.loc 1 1019 0
  84 003e 201C     		mov	r0, r4
  85 0040 FFF7FEFF 		bl	uart1SendString
  86              		.loc 1 1020 0
  87 0044 6420     		mov	r0, #100
  88 0046 FFF7FEFF 		bl	osSleep
  89              		.loc 1 1021 0
  90 004a 0448     		ldr	r0, .L10+4
  91 004c FFF7FEFF 		bl	uart1SendString
  92              	.L9:
  93              		.loc 1 1023 0
  94              		@ sp needed for prologue
  95 0050 10BC     		pop	{r4}
  96 0052 01BC     		pop	{r0}
  97 0054 0047     		bx	r0
  98              	.L11:
  99 0056 0000     		.align	2
 100              	.L10:
 101 0058 00000000 		.word	.LC1
 102 005c 04000000 		.word	.LC3
 103              	.LFE12:
 104              		.size	btSetMode, .-btSetMode
 105              		.align	2
 106              		.global	activateBtProc
 107              		.code 16
 108              		.thumb_func
 109              		.type	activateBtProc, %function
 110              	activateBtProc:
 111              	.LFB18:
1234:bt.c          **** 
1235:bt.c          **** 
1236:bt.c          **** /*****************************************************************************
1237:bt.c          ****  *
1238:bt.c          ****  * Description:
1239:bt.c          ****  *    Release any blocking of the Bluetooth handling process
1240:bt.c          ****  *    (that receives/sends characters from/to the BGB203-S06 unit).
1241:bt.c          ****  *
1242:bt.c          ****  ****************************************************************************/
1243:bt.c          **** void
1244:bt.c          **** activateBtProc(void)
1245:bt.c          **** {
 112              		.loc 1 1245 0
 113 0060 00B5     		push	{lr}
 114              	.LCFI2:
 115 0062 81B0     		sub	sp, sp, #4
 116              	.LCFI3:
1246:bt.c          ****   tU8 error;
ARM GAS  /cygdrive/c/Users/Zbyszko/AppData/Local/Temp/ccaXFopk.s 			page 25


1247:bt.c          **** 
1248:bt.c          ****   //start BT handling process again
1249:bt.c          ****   stopRecvProc = FALSE;
 117              		.loc 1 1249 0
 118 0064 084A     		ldr	r2, .L14
 119 0066 0023     		mov	r3, #0
1250:bt.c          ****   osSemGive(&recvSem, &error);
 120              		.loc 1 1250 0
 121 0068 6946     		mov	r1, sp
 122              		.loc 1 1249 0
 123 006a 1370     		strb	r3, [r2]
 124              		.loc 1 1250 0
 125 006c 0331     		add	r1, r1, #3
 126 006e 0748     		ldr	r0, .L14+4
 127 0070 FFF7FEFF 		bl	osSemGive
1251:bt.c          **** 
1252:bt.c          ****   //set to previous mode
1253:bt.c          ****   osSleep(100);
 128              		.loc 1 1253 0
 129 0074 6420     		mov	r0, #100
 130 0076 FFF7FEFF 		bl	osSleep
1254:bt.c          ****   btSetMode(btCommandMode);
 131              		.loc 1 1254 0
 132 007a 054B     		ldr	r3, .L14+8
 133 007c 1878     		ldrb	r0, [r3]
 134 007e FFF7CBFF 		bl	btSetMode
1255:bt.c          **** }
 135              		.loc 1 1255 0
 136 0082 01B0     		add	sp, sp, #4
 137              		@ sp needed for prologue
 138 0084 01BC     		pop	{r0}
 139 0086 0047     		bx	r0
 140              	.L15:
 141              		.align	2
 142              	.L14:
 143 0088 00000000 		.word	stopRecvProc
 144 008c 28030000 		.word	recvSem
 145 0090 01000000 		.word	btCommandMode
 146              	.LFE18:
 147              		.size	activateBtProc, .-activateBtProc
 148              		.section	.rodata.str1.4
 149              		.align	2
 150              	.LC10:
 151 0010 496E7175 		.ascii	"Inquiry\000"
 151      69727900 
 152              		.align	2
 153              	.LC12:
 154 0018 53657420 		.ascii	"Set name\000"
 154      6E616D65 
 154      00
 155 0021 000000   		.align	2
 156              	.LC14:
 157 0024 53657420 		.ascii	"Set address\000"
 157      61646472 
 157      65737300 
 158              		.align	2
 159              	.LC17:
ARM GAS  /cygdrive/c/Users/Zbyszko/AppData/Local/Temp/ccaXFopk.s 			page 26


 160 0030 53657420 		.ascii	"Set comm.mode\000"
 160      636F6D6D 
 160      2E6D6F64 
 160      6500
 161 003e 0000     		.align	2
 162              	.LC19:
 163 0040 53657420 		.ascii	"Set data mode\000"
 163      64617461 
 163      206D6F64 
 163      6500
 164 004e 0000     		.align	2
 165              	.LC22:
 166 0050 44656163 		.ascii	"Deactivate BT\000"
 166      74697661 
 166      74652042 
 166      5400
 167 005e 0000     		.align	2
 168              	.LC24:
 169 0060 41637469 		.ascii	"Activate BT\000"
 169      76617465 
 169      20425400 
 170              		.align	2
 171              	.LC26:
 172 006c 4D61696E 		.ascii	"Main menu\000"
 172      206D656E 
 172      7500
 173              		.text
 174              		.align	2
 175              		.code 16
 176              		.thumb_func
 177              		.type	drawBtMenuCursor, %function
 178              	drawBtMenuCursor:
 179              	.LFB14:
 180              		.loc 1 1095 0
 181 0094 10B5     		push	{r4, lr}
 182              	.LCFI4:
 183              	.LVL6:
 184              		.loc 1 1095 0
 185 0096 0024     		mov	r4, #0
 186              	.LVL7:
 187              	.L43:
 188              		.loc 1 1100 0
 189 0098 E100     		lsl	r1, r4, #3
 190 009a 091B     		sub	r1, r1, r4
 191 009c 8023     		mov	r3, #128
 192 009e 5B05     		lsl	r3, r3, #21
 193 00a0 4906     		lsl	r1, r1, #25
 194 00a2 C918     		add	r1, r1, r3
 195 00a4 090E     		lsr	r1, r1, #24
 196 00a6 0720     		mov	r0, #7
 197              	.LVL8:
 198 00a8 FFF7FEFF 		bl	lcdGotoxy
 199              		.loc 1 1101 0
 200 00ac 194B     		ldr	r3, .L44
 201 00ae 1B78     		ldrb	r3, [r3]
 202 00b0 9C42     		cmp	r4, r3
 203 00b2 02D1     		bne	.L18
ARM GAS  /cygdrive/c/Users/Zbyszko/AppData/Local/Temp/ccaXFopk.s 			page 27


 204              		.loc 1 1102 0
 205 00b4 0120     		mov	r0, #1
 206 00b6 E021     		mov	r1, #224
 207 00b8 01E0     		b	.L41
 208              	.L18:
 209              		.loc 1 1104 0
 210 00ba 0120     		mov	r0, #1
 211 00bc FD21     		mov	r1, #253
 212              	.L41:
 213 00be FFF7FEFF 		bl	lcdColor
 214              		.loc 1 1106 0
 215 00c2 052C     		cmp	r4, #5
 216 00c4 20D8     		bhi	.L21
 217 00c6 144A     		ldr	r2, .L44+4
 218 00c8 A300     		lsl	r3, r4, #2
 219 00ca 9B58     		ldr	r3, [r3, r2]
 220 00cc 9F46     		mov	pc, r3
 221              		.section	.rodata
 222              		.align	2
 223              		.align	2
 224              	.L28:
 225 0000 CE000000 		.word	.L22
 226 0004 D2000000 		.word	.L23
 227 0008 D6000000 		.word	.L24
 228 000c DA000000 		.word	.L25
 229 0010 EA000000 		.word	.L26
 230 0014 00010000 		.word	.L27
 231              		.text
 232              	.L22:
 233              		.loc 1 1108 0
 234 00ce 1348     		ldr	r0, .L44+8
 235 00d0 12E0     		b	.L42
 236              	.L23:
 237              		.loc 1 1109 0
 238 00d2 1348     		ldr	r0, .L44+12
 239 00d4 10E0     		b	.L42
 240              	.L24:
 241              		.loc 1 1110 0
 242 00d6 1348     		ldr	r0, .L44+16
 243 00d8 0EE0     		b	.L42
 244              	.L25:
 245              		.loc 1 1111 0
 246 00da 134B     		ldr	r3, .L44+20
 247 00dc 1B78     		ldrb	r3, [r3]
 248 00de 002B     		cmp	r3, #0
 249 00e0 01D1     		bne	.L30
 250 00e2 1248     		ldr	r0, .L44+24
 251 00e4 08E0     		b	.L42
 252              	.L30:
 253 00e6 1248     		ldr	r0, .L44+28
 254 00e8 06E0     		b	.L42
 255              	.L26:
 256              		.loc 1 1112 0
 257 00ea 124B     		ldr	r3, .L44+32
 258 00ec 1B78     		ldrb	r3, [r3]
 259 00ee 002B     		cmp	r3, #0
 260 00f0 01D1     		bne	.L32
ARM GAS  /cygdrive/c/Users/Zbyszko/AppData/Local/Temp/ccaXFopk.s 			page 28


 261 00f2 1148     		ldr	r0, .L44+36
 262 00f4 00E0     		b	.L42
 263              	.L32:
 264 00f6 1148     		ldr	r0, .L44+40
 265              	.L42:
 266 00f8 FFF7FEFF 		bl	lcdPuts
 267              		.loc 1 1098 0
 268 00fc 0134     		add	r4, r4, #1
 269 00fe CBE7     		b	.L43
 270              	.L27:
 271              		.loc 1 1113 0
 272 0100 0F48     		ldr	r0, .L44+44
 273 0102 FFF7FEFF 		bl	lcdPuts
 274 0106 02E0     		b	.L35
 275              	.L21:
 276              		.loc 1 1098 0
 277 0108 0134     		add	r4, r4, #1
 278 010a 052C     		cmp	r4, #5
 279 010c C4D9     		bls	.L43
 280              	.L35:
 281              		.loc 1 1117 0
 282              		@ sp needed for prologue
 283              	.LVL9:
 284 010e 10BC     		pop	{r4}
 285 0110 01BC     		pop	{r0}
 286 0112 0047     		bx	r0
 287              	.L45:
 288              		.align	2
 289              	.L44:
 290 0114 02000000 		.word	btCursor
 291 0118 00000000 		.word	.L28
 292 011c 10000000 		.word	.LC10
 293 0120 18000000 		.word	.LC12
 294 0124 24000000 		.word	.LC14
 295 0128 01000000 		.word	btCommandMode
 296 012c 30000000 		.word	.LC17
 297 0130 40000000 		.word	.LC19
 298 0134 03000000 		.word	btSleepState
 299 0138 50000000 		.word	.LC22
 300 013c 60000000 		.word	.LC24
 301 0140 6C000000 		.word	.LC26
 302              	.LFE14:
 303              		.size	drawBtMenuCursor, .-drawBtMenuCursor
 304              		.section	.rodata.str1.4
 305 0076 0000     		.align	2
 306              	.LC30:
 307 0078 2D00     		.ascii	"-\000"
 308              		.text
 309              		.align	2
 310              		.code 16
 311              		.thumb_func
 312              		.type	drawBtsFound, %function
 313              	drawBtsFound:
 314              	.LFB5:
 315              		.loc 1 211 0
 316 0144 F0B5     		push	{r4, r5, r6, r7, lr}
 317              	.LCFI5:
ARM GAS  /cygdrive/c/Users/Zbyszko/AppData/Local/Temp/ccaXFopk.s 			page 29


 318              	.LVL10:
 319 0146 0006     		lsl	r0, r0, #24
 320              	.LVL11:
 321 0148 81B0     		sub	sp, sp, #4
 322              	.LCFI6:
 323              		.loc 1 211 0
 324 014a 000E     		lsr	r0, r0, #24
 325 014c 0906     		lsl	r1, r1, #24
 326              	.LVL12:
 327 014e 0090     		str	r0, [sp]
 328              	.LVL13:
 329 0150 194C     		ldr	r4, .L66
 330 0152 0F0E     		lsr	r7, r1, #24
 331              	.LVL14:
 332 0154 0025     		mov	r5, #0
 333              	.LVL15:
 334 0156 1E26     		mov	r6, #30
 335              	.L47:
 336              		.loc 1 216 0
 337 0158 0220     		mov	r0, #2
 338 015a 311C     		mov	r1, r6
 339 015c FFF7FEFF 		bl	lcdGotoxy
 340              		.loc 1 217 0
 341 0160 2378     		ldrb	r3, [r4]
 342 0162 002B     		cmp	r3, #0
 343 0164 0DD1     		bne	.L48
 344              		.loc 1 219 0
 345 0166 009B     		ldr	r3, [sp]
 346 0168 012B     		cmp	r3, #1
 347 016a 04D1     		bne	.L50
 348 016c AF42     		cmp	r7, r5
 349 016e 02D1     		bne	.L50
 350              		.loc 1 220 0
 351 0170 0220     		mov	r0, #2
 352 0172 E021     		mov	r1, #224
 353 0174 01E0     		b	.L63
 354              	.L50:
 355              		.loc 1 222 0
 356 0176 0120     		mov	r0, #1
 357 0178 FD21     		mov	r1, #253
 358              	.L63:
 359 017a FFF7FEFF 		bl	lcdColor
 360              		.loc 1 223 0
 361 017e 0F48     		ldr	r0, .L66+4
 362 0180 0FE0     		b	.L65
 363              	.L48:
 364              		.loc 1 227 0
 365 0182 009B     		ldr	r3, [sp]
 366 0184 012B     		cmp	r3, #1
 367 0186 04D1     		bne	.L55
 368 0188 AF42     		cmp	r7, r5
 369 018a 02D1     		bne	.L55
 370              		.loc 1 228 0
 371 018c 0220     		mov	r0, #2
 372 018e E021     		mov	r1, #224
 373 0190 01E0     		b	.L64
 374              	.L55:
ARM GAS  /cygdrive/c/Users/Zbyszko/AppData/Local/Temp/ccaXFopk.s 			page 30


 375              		.loc 1 230 0
 376 0192 0120     		mov	r0, #1
 377 0194 FD21     		mov	r1, #253
 378              	.L64:
 379 0196 FFF7FEFF 		bl	lcdColor
 380              		.loc 1 231 0
 381 019a 074B     		ldr	r3, .L66
 382 019c 6801     		lsl	r0, r5, #5
 383 019e C018     		add	r0, r0, r3
 384 01a0 0130     		add	r0, r0, #1
 385              	.L65:
 386              		.loc 1 214 0
 387 01a2 0135     		add	r5, r5, #1
 388              		.loc 1 231 0
 389 01a4 FFF7FEFF 		bl	lcdPuts
 390              		.loc 1 214 0
 391 01a8 0E36     		add	r6, r6, #14
 392 01aa 2034     		add	r4, r4, #32
 393 01ac 052D     		cmp	r5, #5
 394 01ae D3D1     		bne	.L47
 395              		.loc 1 234 0
 396 01b0 01B0     		add	sp, sp, #4
 397              		@ sp needed for prologue
 398              	.LVL16:
 399              	.LVL17:
 400 01b2 F0BC     		pop	{r4, r5, r6, r7}
 401 01b4 01BC     		pop	{r0}
 402 01b6 0047     		bx	r0
 403              	.L67:
 404              		.align	2
 405              	.L66:
 406 01b8 64030000 		.word	foundBtUnits
 407 01bc 78000000 		.word	.LC30
 408              	.LFE5:
 409              		.size	drawBtsFound, .-drawBtsFound
 410              		.align	2
 411              		.code 16
 412              		.thumb_func
 413              		.type	drawBtName, %function
 414              	drawBtName:
 415              	.LFB9:
 416              		.loc 1 743 0
 417 01c0 30B5     		push	{r4, r5, lr}
 418              	.LCFI7:
 419              	.LVL18:
 420              		.loc 1 743 0
 421 01c2 0006     		lsl	r0, r0, #24
 422              	.LVL19:
 423 01c4 050E     		lsr	r5, r0, #24
 424              	.LVL20:
 425              		.loc 1 746 0
 426 01c6 5521     		mov	r1, #85
 427 01c8 0020     		mov	r0, #0
 428 01ca FFF7FEFF 		bl	lcdGotoxy
 429 01ce 0B4C     		ldr	r4, .L78
 430              	.L69:
 431              		.loc 1 743 0
ARM GAS  /cygdrive/c/Users/Zbyszko/AppData/Local/Temp/ccaXFopk.s 			page 31


 432 01d0 0A4B     		ldr	r3, .L78
 433              		.loc 1 749 0
 434 01d2 E31A     		sub	r3, r4, r3
 435 01d4 AB42     		cmp	r3, r5
 436 01d6 02D1     		bne	.L70
 437              		.loc 1 750 0
 438 01d8 0220     		mov	r0, #2
 439 01da E021     		mov	r1, #224
 440 01dc 01E0     		b	.L77
 441              	.L70:
 442              		.loc 1 752 0
 443 01de 0120     		mov	r0, #1
 444 01e0 FD21     		mov	r1, #253
 445              	.L77:
 446 01e2 FFF7FEFF 		bl	lcdColor
 447              		.loc 1 753 0
 448 01e6 2078     		ldrb	r0, [r4]
 449 01e8 FFF7FEFF 		bl	lcdPutchar
 450              		.loc 1 747 0
 451 01ec 044B     		ldr	r3, .L78+4
 452              		.loc 1 753 0
 453 01ee 0134     		add	r4, r4, #1
 454              		.loc 1 747 0
 455 01f0 9C42     		cmp	r4, r3
 456 01f2 EDD1     		bne	.L69
 457              		.loc 1 755 0
 458              		@ sp needed for prologue
 459              	.LVL21:
 460 01f4 30BC     		pop	{r4, r5}
 461 01f6 01BC     		pop	{r0}
 462 01f8 0047     		bx	r0
 463              	.L79:
 464 01fa 0000     		.align	2
 465              	.L78:
 466 01fc 44030000 		.word	localName
 467 0200 54030000 		.word	localName+16
 468              	.LFE9:
 469              		.size	drawBtName, .-drawBtName
 470              		.align	2
 471              		.code 16
 472              		.thumb_func
 473              		.type	drawBtAddress, %function
 474              	drawBtAddress:
 475              	.LFB7:
 476              		.loc 1 545 0
 477 0204 30B5     		push	{r4, r5, lr}
 478              	.LCFI8:
 479              	.LVL22:
 480              		.loc 1 545 0
 481 0206 0006     		lsl	r0, r0, #24
 482              	.LVL23:
 483 0208 050E     		lsr	r5, r0, #24
 484              	.LVL24:
 485              		.loc 1 548 0
 486 020a 5521     		mov	r1, #85
 487 020c 1020     		mov	r0, #16
 488 020e FFF7FEFF 		bl	lcdGotoxy
ARM GAS  /cygdrive/c/Users/Zbyszko/AppData/Local/Temp/ccaXFopk.s 			page 32


 489 0212 0B4C     		ldr	r4, .L90
 490              	.L81:
 491              		.loc 1 545 0
 492 0214 0A4B     		ldr	r3, .L90
 493              		.loc 1 551 0
 494 0216 E31A     		sub	r3, r4, r3
 495 0218 AB42     		cmp	r3, r5
 496 021a 02D1     		bne	.L82
 497              		.loc 1 552 0
 498 021c 0120     		mov	r0, #1
 499 021e E021     		mov	r1, #224
 500 0220 01E0     		b	.L89
 501              	.L82:
 502              		.loc 1 554 0
 503 0222 0120     		mov	r0, #1
 504 0224 1C21     		mov	r1, #28
 505              	.L89:
 506 0226 FFF7FEFF 		bl	lcdColor
 507              		.loc 1 555 0
 508 022a 2078     		ldrb	r0, [r4]
 509 022c FFF7FEFF 		bl	lcdPutchar
 510              		.loc 1 549 0
 511 0230 044B     		ldr	r3, .L90+4
 512              		.loc 1 555 0
 513 0232 0134     		add	r4, r4, #1
 514              		.loc 1 549 0
 515 0234 9C42     		cmp	r4, r3
 516 0236 EDD1     		bne	.L81
 517              		.loc 1 557 0
 518              		@ sp needed for prologue
 519              	.LVL25:
 520 0238 30BC     		pop	{r4, r5}
 521 023a 01BC     		pop	{r0}
 522 023c 0047     		bx	r0
 523              	.L91:
 524 023e 0000     		.align	2
 525              	.L90:
 526 0240 55030000 		.word	btAddress
 527 0244 61030000 		.word	btAddress+12
 528              	.LFE7:
 529              		.size	drawBtAddress, .-drawBtAddress
 530              		.align	2
 531              		.code 16
 532              		.thumb_func
 533              		.type	displayMessage, %function
 534              	displayMessage:
 535              	.LFB4:
 536              		.loc 1 194 0
 537 0248 30B5     		push	{r4, r5, lr}
 538              	.LCFI9:
 539              	.LVL26:
 540              		.loc 1 194 0
 541 024a 0906     		lsl	r1, r1, #24
 542              	.LVL27:
 543 024c 041C     		mov	r4, r0
 544 024e 0D0E     		lsr	r5, r1, #24
 545              	.LVL28:
ARM GAS  /cygdrive/c/Users/Zbyszko/AppData/Local/Temp/ccaXFopk.s 			page 33


 546 0250 05E0     		b	.L93
 547              	.LVL29:
 548              	.L94:
 549              		.loc 1 197 0
 550 0252 FFF7FEFF 		bl	lcdPutchar
 551              		.loc 1 198 0
 552 0256 281C     		mov	r0, r5
 553              		.loc 1 197 0
 554 0258 0134     		add	r4, r4, #1
 555              		.loc 1 198 0
 556 025a FFF7FEFF 		bl	osSleep
 557              	.LVL30:
 558              	.L93:
 559              		.loc 1 195 0
 560 025e 2078     		ldrb	r0, [r4]
 561 0260 0028     		cmp	r0, #0
 562 0262 F6D1     		bne	.L94
 563              		.loc 1 200 0
 564              		@ sp needed for prologue
 565              	.LVL31:
 566              	.LVL32:
 567 0264 30BC     		pop	{r4, r5}
 568 0266 01BC     		pop	{r0}
 569 0268 0047     		bx	r0
 570              	.LFE4:
 571              		.size	displayMessage, .-displayMessage
 572              		.section	.rodata.str1.4
 573 007a 0000     		.align	2
 574              	.LC37:
 575 007c 41637469 		.ascii	"Activate\000"
 575      76617465 
 575      00
 576 0085 000000   		.align	2
 577              	.LC39:
 578 0088 636F6D6D 		.ascii	"command mode\000"
 578      616E6420 
 578      6D6F6465 
 578      00
 579 0095 000000   		.align	2
 580              	.LC41:
 581 0098 28756E69 		.ascii	"(unit cannot\000"
 581      74206361 
 581      6E6E6F74 
 581      00
 582 00a5 000000   		.align	2
 583              	.LC43:
 584 00a8 62652064 		.ascii	"be discovered\000"
 584      6973636F 
 584      76657265 
 584      6400
 585 00b6 0000     		.align	2
 586              	.LC45:
 587 00b8 696E2074 		.ascii	"in this mode)\000"
 587      68697320 
 587      6D6F6465 
 587      2900
 588 00c6 0000     		.align	2
ARM GAS  /cygdrive/c/Users/Zbyszko/AppData/Local/Temp/ccaXFopk.s 			page 34


 589              	.LC47:
 590 00c8 64617461 		.ascii	"data mode...\000"
 590      206D6F64 
 590      652E2E2E 
 590      00
 591 00d5 000000   		.align	2
 592              	.LC49:
 593 00d8 28756E69 		.ascii	"(unit can now\000"
 593      74206361 
 593      6E206E6F 
 593      7700
 594 00e6 0000     		.align	2
 595              	.LC51:
 596 00e8 62652064 		.ascii	"be discovered)\000"
 596      6973636F 
 596      76657265 
 596      642900
 597              		.text
 598 026a 0000     		.align	2
 599              		.code 16
 600              		.thumb_func
 601              		.type	btMode, %function
 602              	btMode:
 603              	.LFB13:
 604              		.loc 1 1035 0
 605 026c F0B5     		push	{r4, r5, r6, r7, lr}
 606              	.LCFI10:
 607 026e 9EB0     		sub	sp, sp, #120
 608              	.LCFI11:
 609              		.loc 1 1037 0
 610 0270 5423     		mov	r3, #84
 611 0272 0120     		mov	r0, #1
 612 0274 7E22     		mov	r2, #126
 613 0276 1021     		mov	r1, #16
 614 0278 0090     		str	r0, [sp]
 615 027a FFF7FEFF 		bl	lcdRect
 616              		.loc 1 1038 0
 617 027e 0E20     		mov	r0, #14
 618 0280 1A21     		mov	r1, #26
 619 0282 FFF7FEFF 		bl	lcdGotoxy
 620              		.loc 1 1039 0
 621 0286 FD21     		mov	r1, #253
 622 0288 0120     		mov	r0, #1
 623 028a FFF7FEFF 		bl	lcdColor
 624              		.loc 1 1041 0
 625 028e 4A4F     		ldr	r7, .L103
 626 0290 3B78     		ldrb	r3, [r7]
 627 0292 4A49     		ldr	r1, .L103+4
 628 0294 002B     		cmp	r3, #0
 629 0296 4BD1     		bne	.L98
 630              	.LBB2:
 631              		.loc 1 1043 0
 632 0298 6846     		mov	r0, sp
 633 029a 0922     		mov	r2, #9
 634 029c 6630     		add	r0, r0, #102
 635 029e FFF7FEFF 		bl	memcpy
 636              		.loc 1 1044 0
ARM GAS  /cygdrive/c/Users/Zbyszko/AppData/Local/Temp/ccaXFopk.s 			page 35


 637 02a2 6846     		mov	r0, sp
 638 02a4 4649     		ldr	r1, .L103+8
 639 02a6 0D22     		mov	r2, #13
 640 02a8 3F30     		add	r0, r0, #63
 641 02aa FFF7FEFF 		bl	memcpy
 642              		.loc 1 1045 0
 643 02ae 454B     		ldr	r3, .L103+12
 644 02b0 13AC     		add	r4, sp, #76
 645 02b2 1A1C     		mov	r2, r3
 646 02b4 211C     		mov	r1, r4
 647 02b6 61CA     		ldmia	r2!, {r0, r5, r6}
 648 02b8 61C1     		stmia	r1!, {r0, r5, r6}
 649              		.loc 1 1046 0
 650 02ba 6846     		mov	r0, sp
 651              		.loc 1 1045 0
 652 02bc 1B7B     		ldrb	r3, [r3, #12]
 653              		.loc 1 1046 0
 654 02be 4249     		ldr	r1, .L103+16
 655 02c0 0E22     		mov	r2, #14
 656 02c2 2330     		add	r0, r0, #35
 657              		.loc 1 1045 0
 658 02c4 2373     		strb	r3, [r4, #12]
 659              		.loc 1 1046 0
 660 02c6 FFF7FEFF 		bl	memcpy
 661              		.loc 1 1047 0
 662 02ca 6846     		mov	r0, sp
 663 02cc 0E22     		mov	r2, #14
 664 02ce 3F49     		ldr	r1, .L103+20
 665 02d0 3130     		add	r0, r0, #49
 666 02d2 FFF7FEFF 		bl	memcpy
 667              		.loc 1 1049 0
 668 02d6 6846     		mov	r0, sp
 669 02d8 6630     		add	r0, r0, #102
 670 02da 0321     		mov	r1, #3
 671 02dc FFF7B4FF 		bl	displayMessage
 672              		.loc 1 1050 0
 673 02e0 0E20     		mov	r0, #14
 674 02e2 2821     		mov	r1, #40
 675 02e4 FFF7FEFF 		bl	lcdGotoxy
 676              		.loc 1 1051 0
 677 02e8 6846     		mov	r0, sp
 678 02ea 3F30     		add	r0, r0, #63
 679 02ec 0321     		mov	r1, #3
 680 02ee FFF7ABFF 		bl	displayMessage
 681              		.loc 1 1052 0
 682 02f2 0E20     		mov	r0, #14
 683 02f4 3621     		mov	r1, #54
 684 02f6 FFF7FEFF 		bl	lcdGotoxy
 685              		.loc 1 1053 0
 686 02fa 201C     		mov	r0, r4
 687 02fc 0321     		mov	r1, #3
 688 02fe FFF7A3FF 		bl	displayMessage
 689              		.loc 1 1054 0
 690 0302 0E20     		mov	r0, #14
 691 0304 4421     		mov	r1, #68
 692 0306 FFF7FEFF 		bl	lcdGotoxy
 693              		.loc 1 1055 0
ARM GAS  /cygdrive/c/Users/Zbyszko/AppData/Local/Temp/ccaXFopk.s 			page 36


 694 030a 6846     		mov	r0, sp
 695 030c 2330     		add	r0, r0, #35
 696 030e 0321     		mov	r1, #3
 697 0310 FFF79AFF 		bl	displayMessage
 698              		.loc 1 1056 0
 699 0314 0E20     		mov	r0, #14
 700 0316 5421     		mov	r1, #84
 701 0318 FFF7FEFF 		bl	lcdGotoxy
 702              		.loc 1 1057 0
 703 031c 6846     		mov	r0, sp
 704 031e 3130     		add	r0, r0, #49
 705 0320 0321     		mov	r1, #3
 706 0322 FFF791FF 		bl	displayMessage
 707              		.loc 1 1059 0
 708 0326 0120     		mov	r0, #1
 709 0328 FFF776FE 		bl	btSetMode
 710              		.loc 1 1060 0
 711 032c 0123     		mov	r3, #1
 712 032e 3AE0     		b	.L102
 713              	.L98:
 714              	.LBE2:
 715              	.LBB3:
 716              		.loc 1 1064 0
 717 0330 6C46     		mov	r4, sp
 718 0332 6F34     		add	r4, r4, #111
 719              		.loc 1 1065 0
 720 0334 6D46     		mov	r5, sp
 721              		.loc 1 1064 0
 722 0336 0922     		mov	r2, #9
 723              		.loc 1 1065 0
 724 0338 5935     		add	r5, r5, #89
 725              		.loc 1 1064 0
 726 033a 201C     		mov	r0, r4
 727 033c FFF7FEFF 		bl	memcpy
 728              		.loc 1 1065 0
 729 0340 2349     		ldr	r1, .L103+24
 730 0342 0D22     		mov	r2, #13
 731 0344 281C     		mov	r0, r5
 732 0346 FFF7FEFF 		bl	memcpy
 733              		.loc 1 1067 0
 734 034a 6E46     		mov	r6, sp
 735              		.loc 1 1066 0
 736 034c 6846     		mov	r0, sp
 737 034e 2149     		ldr	r1, .L103+28
 738 0350 0E22     		mov	r2, #14
 739              		.loc 1 1067 0
 740 0352 0636     		add	r6, r6, #6
 741              		.loc 1 1066 0
 742 0354 1530     		add	r0, r0, #21
 743 0356 FFF7FEFF 		bl	memcpy
 744              		.loc 1 1067 0
 745 035a 0F22     		mov	r2, #15
 746 035c 1E49     		ldr	r1, .L103+32
 747 035e 301C     		mov	r0, r6
 748 0360 FFF7FEFF 		bl	memcpy
 749              		.loc 1 1069 0
 750 0364 201C     		mov	r0, r4
ARM GAS  /cygdrive/c/Users/Zbyszko/AppData/Local/Temp/ccaXFopk.s 			page 37


 751 0366 0321     		mov	r1, #3
 752 0368 FFF76EFF 		bl	displayMessage
 753              		.loc 1 1070 0
 754 036c 0E20     		mov	r0, #14
 755 036e 2821     		mov	r1, #40
 756 0370 FFF7FEFF 		bl	lcdGotoxy
 757              		.loc 1 1071 0
 758 0374 281C     		mov	r0, r5
 759 0376 0321     		mov	r1, #3
 760 0378 FFF766FF 		bl	displayMessage
 761              		.loc 1 1072 0
 762 037c 0E20     		mov	r0, #14
 763 037e 3621     		mov	r1, #54
 764 0380 FFF7FEFF 		bl	lcdGotoxy
 765              		.loc 1 1073 0
 766 0384 6846     		mov	r0, sp
 767 0386 1530     		add	r0, r0, #21
 768 0388 0321     		mov	r1, #3
 769 038a FFF75DFF 		bl	displayMessage
 770              		.loc 1 1074 0
 771 038e 0E20     		mov	r0, #14
 772 0390 4421     		mov	r1, #68
 773 0392 FFF7FEFF 		bl	lcdGotoxy
 774              		.loc 1 1075 0
 775 0396 301C     		mov	r0, r6
 776 0398 0321     		mov	r1, #3
 777 039a FFF755FF 		bl	displayMessage
 778              		.loc 1 1077 0
 779 039e 0020     		mov	r0, #0
 780 03a0 FFF73AFE 		bl	btSetMode
 781              		.loc 1 1078 0
 782 03a4 0023     		mov	r3, #0
 783              	.L102:
 784 03a6 3B70     		strb	r3, [r7]
 785              	.LBE3:
 786              		.loc 1 1080 0
 787 03a8 6420     		mov	r0, #100
 788 03aa FFF7FEFF 		bl	osSleep
 789              		.loc 1 1081 0
 790 03ae 1EB0     		add	sp, sp, #120
 791              		@ sp needed for prologue
 792 03b0 F0BC     		pop	{r4, r5, r6, r7}
 793 03b2 01BC     		pop	{r0}
 794 03b4 0047     		bx	r0
 795              	.L104:
 796 03b6 0000     		.align	2
 797              	.L103:
 798 03b8 01000000 		.word	btCommandMode
 799 03bc 7C000000 		.word	.LC37
 800 03c0 88000000 		.word	.LC39
 801 03c4 98000000 		.word	.LC41
 802 03c8 A8000000 		.word	.LC43
 803 03cc B8000000 		.word	.LC45
 804 03d0 C8000000 		.word	.LC47
 805 03d4 D8000000 		.word	.LC49
 806 03d8 E8000000 		.word	.LC51
 807              	.LFE13:
ARM GAS  /cygdrive/c/Users/Zbyszko/AppData/Local/Temp/ccaXFopk.s 			page 38


 808              		.size	btMode, .-btMode
 809              		.section	.rodata.str1.4
 810 00f7 00       		.align	2
 811              	.LC54:
 812 00f8 44656163 		.ascii	"Deactivate\000"
 812      74697661 
 812      746500
 813 0103 00       		.align	2
 814              	.LC56:
 815 0104 4254206D 		.ascii	"BT module...\000"
 815      6F64756C 
 815      652E2E2E 
 815      00
 816 0111 000000   		.align	2
 817              	.LC59:
 818 0114 6D6F6475 		.ascii	"module...\000"
 818      6C652E2E 
 818      2E00
 819              		.text
 820              		.align	2
 821              		.code 16
 822              		.thumb_func
 823              		.type	btActiveSleep, %function
 824              	btActiveSleep:
 825              	.LFB11:
 826              		.loc 1 962 0
 827 03dc F0B5     		push	{r4, r5, r6, r7, lr}
 828              	.LCFI12:
 829 03de 8DB0     		sub	sp, sp, #52
 830              	.LCFI13:
 831              		.loc 1 964 0
 832 03e0 5423     		mov	r3, #84
 833 03e2 7E22     		mov	r2, #126
 834 03e4 0120     		mov	r0, #1
 835 03e6 1021     		mov	r1, #16
 836 03e8 0127     		mov	r7, #1
 837 03ea 0097     		str	r7, [sp]
 838 03ec FFF7FEFF 		bl	lcdRect
 839              		.loc 1 965 0
 840 03f0 1220     		mov	r0, #18
 841 03f2 2221     		mov	r1, #34
 842 03f4 FFF7FEFF 		bl	lcdGotoxy
 843              		.loc 1 966 0
 844 03f8 0120     		mov	r0, #1
 845 03fa FD21     		mov	r1, #253
 846 03fc FFF7FEFF 		bl	lcdColor
 847              		.loc 1 968 0
 848 0400 264E     		ldr	r6, .L110
 849 0402 3378     		ldrb	r3, [r6]
 850 0404 002B     		cmp	r3, #0
 851 0406 1ED1     		bne	.L106
 852              	.LBB4:
 853              		.loc 1 970 0
 854 0408 6C46     		mov	r4, sp
 855 040a 1F34     		add	r4, r4, #31
 856              		.loc 1 971 0
 857 040c 6D46     		mov	r5, sp
ARM GAS  /cygdrive/c/Users/Zbyszko/AppData/Local/Temp/ccaXFopk.s 			page 39


 858              		.loc 1 970 0
 859 040e 2449     		ldr	r1, .L110+4
 860 0410 0B22     		mov	r2, #11
 861              		.loc 1 971 0
 862 0412 0635     		add	r5, r5, #6
 863              		.loc 1 970 0
 864 0414 201C     		mov	r0, r4
 865 0416 FFF7FEFF 		bl	memcpy
 866              		.loc 1 971 0
 867 041a 0D22     		mov	r2, #13
 868 041c 2149     		ldr	r1, .L110+8
 869 041e 281C     		mov	r0, r5
 870 0420 FFF7FEFF 		bl	memcpy
 871              		.loc 1 973 0
 872 0424 0120     		mov	r0, #1
 873 0426 FFF7FEFF 		bl	resetBT
 874              		.loc 1 974 0
 875 042a 201C     		mov	r0, r4
 876 042c 0321     		mov	r1, #3
 877 042e FFF70BFF 		bl	displayMessage
 878              		.loc 1 975 0
 879 0432 1220     		mov	r0, #18
 880 0434 3021     		mov	r1, #48
 881 0436 FFF7FEFF 		bl	lcdGotoxy
 882              		.loc 1 976 0
 883 043a 281C     		mov	r0, r5
 884 043c 0321     		mov	r1, #3
 885 043e FFF703FF 		bl	displayMessage
 886              		.loc 1 978 0
 887 0442 3770     		strb	r7, [r6]
 888 0444 22E0     		b	.L108
 889              	.L106:
 890              	.LBE4:
 891              	.LBB5:
 892              		.loc 1 982 0
 893 0446 6C46     		mov	r4, sp
 894 0448 1334     		add	r4, r4, #19
 895              		.loc 1 983 0
 896 044a 6D46     		mov	r5, sp
 897              		.loc 1 982 0
 898 044c 1649     		ldr	r1, .L110+12
 899 044e 0C22     		mov	r2, #12
 900              		.loc 1 983 0
 901 0450 2A35     		add	r5, r5, #42
 902              		.loc 1 982 0
 903 0452 201C     		mov	r0, r4
 904 0454 FFF7FEFF 		bl	memcpy
 905              		.loc 1 983 0
 906 0458 0A22     		mov	r2, #10
 907 045a 1449     		ldr	r1, .L110+16
 908 045c 281C     		mov	r0, r5
 909 045e FFF7FEFF 		bl	memcpy
 910              		.loc 1 985 0
 911 0462 0020     		mov	r0, #0
 912 0464 FFF7FEFF 		bl	resetBT
 913              		.loc 1 986 0
 914 0468 114B     		ldr	r3, .L110+20
ARM GAS  /cygdrive/c/Users/Zbyszko/AppData/Local/Temp/ccaXFopk.s 			page 40


 915 046a 1878     		ldrb	r0, [r3]
 916 046c FFF7D4FD 		bl	btSetMode
 917              		.loc 1 988 0
 918 0470 201C     		mov	r0, r4
 919 0472 0321     		mov	r1, #3
 920 0474 FFF7E8FE 		bl	displayMessage
 921              		.loc 1 989 0
 922 0478 1220     		mov	r0, #18
 923 047a 3021     		mov	r1, #48
 924 047c FFF7FEFF 		bl	lcdGotoxy
 925              		.loc 1 990 0
 926 0480 281C     		mov	r0, r5
 927 0482 0321     		mov	r1, #3
 928 0484 FFF7E0FE 		bl	displayMessage
 929              		.loc 1 992 0
 930 0488 0023     		mov	r3, #0
 931 048a 3370     		strb	r3, [r6]
 932              	.L108:
 933              	.LBE5:
 934              		.loc 1 994 0
 935 048c C820     		mov	r0, #200
 936 048e FFF7FEFF 		bl	osSleep
 937              		.loc 1 995 0
 938 0492 0DB0     		add	sp, sp, #52
 939              		@ sp needed for prologue
 940 0494 F0BC     		pop	{r4, r5, r6, r7}
 941 0496 01BC     		pop	{r0}
 942 0498 0047     		bx	r0
 943              	.L111:
 944 049a 0000     		.align	2
 945              	.L110:
 946 049c 03000000 		.word	btSleepState
 947 04a0 F8000000 		.word	.LC54
 948 04a4 04010000 		.word	.LC56
 949 04a8 60000000 		.word	.LC24
 950 04ac 14010000 		.word	.LC59
 951 04b0 01000000 		.word	btCommandMode
 952              	.LFE11:
 953              		.size	btActiveSleep, .-btActiveSleep
 954              		.section	.rodata.str1.4
 955 011e 0000     		.align	2
 956              	.LC62:
 957 0120 424C5545 		.ascii	"BLUETOOTH MENU\000"
 957      544F4F54 
 957      48204D45 
 957      4E5500
 958 012f 00       		.align	2
 959              	.LC65:
 960 0130 42542073 		.ascii	"BT stat:\000"
 960      7461743A 
 960      00
 961 0139 000000   		.align	2
 962              	.LC68:
 963 013c 41637469 		.ascii	"Active\000"
 963      766500
 964 0143 00       		.align	2
 965              	.LC70:
ARM GAS  /cygdrive/c/Users/Zbyszko/AppData/Local/Temp/ccaXFopk.s 			page 41


 966 0144 496E6163 		.ascii	"Inactive\000"
 966      74697665 
 966      00
 967 014d 000000   		.align	2
 968              	.LC73:
 969 0150 44617461 		.ascii	"Data mode\000"
 969      206D6F64 
 969      6500
 970 015a 0000     		.align	2
 971              	.LC75:
 972 015c 436F6D6D 		.ascii	"Command mode\000"
 972      616E6420 
 972      6D6F6465 
 972      00
 973              		.text
 974              		.align	2
 975              		.code 16
 976              		.thumb_func
 977              		.type	drawBtMenu, %function
 978              	drawBtMenu:
 979              	.LFB15:
 980              		.loc 1 1128 0
 981 04b4 00B5     		push	{lr}
 982              	.LCFI14:
 983 04b6 81B0     		sub	sp, sp, #4
 984              	.LCFI15:
 985              		.loc 1 1129 0
 986 04b8 0020     		mov	r0, #0
 987 04ba 0021     		mov	r1, #0
 988 04bc FFF7FEFF 		bl	lcdColor
 989              		.loc 1 1130 0
 990 04c0 FFF7FEFF 		bl	lcdClrscr
 991              		.loc 1 1132 0
 992 04c4 0323     		mov	r3, #3
 993 04c6 0093     		str	r3, [sp]
 994 04c8 FF20     		mov	r0, #255
 995 04ca FF21     		mov	r1, #255
 996 04cc 8222     		mov	r2, #130
 997 04ce 8223     		mov	r3, #130
 998 04d0 FFF7FEFF 		bl	lcdRect
 999              		.loc 1 1133 0
 1000 04d4 0123     		mov	r3, #1
 1001 04d6 7E22     		mov	r2, #126
 1002 04d8 0093     		str	r3, [sp]
 1003 04da 0120     		mov	r0, #1
 1004 04dc 5423     		mov	r3, #84
 1005 04de 1021     		mov	r1, #16
 1006 04e0 FFF7FEFF 		bl	lcdRect
 1007              		.loc 1 1135 0
 1008 04e4 0820     		mov	r0, #8
 1009 04e6 0021     		mov	r1, #0
 1010 04e8 FFF7FEFF 		bl	lcdGotoxy
 1011              		.loc 1 1136 0
 1012 04ec 0021     		mov	r1, #0
 1013 04ee 0320     		mov	r0, #3
 1014 04f0 FFF7FEFF 		bl	lcdColor
 1015              		.loc 1 1137 0
ARM GAS  /cygdrive/c/Users/Zbyszko/AppData/Local/Temp/ccaXFopk.s 			page 42


 1016 04f4 1748     		ldr	r0, .L122
 1017 04f6 FFF7FEFF 		bl	lcdPuts
 1018              		.loc 1 1138 0
 1019 04fa 174B     		ldr	r3, .L122+4
 1020 04fc 1878     		ldrb	r0, [r3]
 1021 04fe FFF7C9FD 		bl	drawBtMenuCursor
 1022              		.loc 1 1141 0
 1023 0502 0020     		mov	r0, #0
 1024 0504 6521     		mov	r1, #101
 1025 0506 FFF7FEFF 		bl	lcdGotoxy
 1026              		.loc 1 1142 0
 1027 050a 0021     		mov	r1, #0
 1028 050c 0320     		mov	r0, #3
 1029 050e FFF7FEFF 		bl	lcdColor
 1030              		.loc 1 1143 0
 1031 0512 1248     		ldr	r0, .L122+8
 1032 0514 FFF7FEFF 		bl	lcdPuts
 1033              		.loc 1 1144 0
 1034 0518 0320     		mov	r0, #3
 1035 051a FD21     		mov	r1, #253
 1036 051c FFF7FEFF 		bl	lcdColor
 1037              		.loc 1 1145 0
 1038 0520 0F4B     		ldr	r3, .L122+12
 1039 0522 1B78     		ldrb	r3, [r3]
 1040 0524 002B     		cmp	r3, #0
 1041 0526 01D1     		bne	.L113
 1042              		.loc 1 1146 0
 1043 0528 0E48     		ldr	r0, .L122+16
 1044 052a 00E0     		b	.L120
 1045              	.L113:
 1046              		.loc 1 1148 0
 1047 052c 0E48     		ldr	r0, .L122+20
 1048              	.L120:
 1049 052e FFF7FEFF 		bl	lcdPuts
 1050              		.loc 1 1150 0
 1051 0532 2020     		mov	r0, #32
 1052 0534 7321     		mov	r1, #115
 1053 0536 FFF7FEFF 		bl	lcdGotoxy
 1054              		.loc 1 1151 0
 1055 053a 0C4B     		ldr	r3, .L122+24
 1056 053c 1B78     		ldrb	r3, [r3]
 1057 053e 002B     		cmp	r3, #0
 1058 0540 01D1     		bne	.L116
 1059              		.loc 1 1152 0
 1060 0542 0B48     		ldr	r0, .L122+28
 1061 0544 00E0     		b	.L121
 1062              	.L116:
 1063              		.loc 1 1154 0
 1064 0546 0B48     		ldr	r0, .L122+32
 1065              	.L121:
 1066 0548 FFF7FEFF 		bl	lcdPuts
 1067              		.loc 1 1155 0
 1068 054c 01B0     		add	sp, sp, #4
 1069              		@ sp needed for prologue
 1070 054e 01BC     		pop	{r0}
 1071 0550 0047     		bx	r0
 1072              	.L123:
ARM GAS  /cygdrive/c/Users/Zbyszko/AppData/Local/Temp/ccaXFopk.s 			page 43


 1073 0552 0000     		.align	2
 1074              	.L122:
 1075 0554 20010000 		.word	.LC62
 1076 0558 02000000 		.word	btCursor
 1077 055c 30010000 		.word	.LC65
 1078 0560 03000000 		.word	btSleepState
 1079 0564 3C010000 		.word	.LC68
 1080 0568 44010000 		.word	.LC70
 1081 056c 01000000 		.word	btCommandMode
 1082 0570 50010000 		.word	.LC73
 1083 0574 5C010000 		.word	.LC75
 1084              	.LFE15:
 1085              		.size	drawBtMenu, .-drawBtMenu
 1086              		.section	.rodata.str1.4
 1087 0169 000000   		.align	2
 1088              	.LC84:
 1089 016c 41542B42 		.ascii	"AT+BTINQ=6\015\000"
 1089      54494E51 
 1089      3D360D00 
 1090              		.align	2
 1091              	.LC87:
 1092 0178 256300   		.ascii	"%c\000"
 1093 017b 00       		.align	2
 1094              	.LC89:
 1095 017c 2B425449 		.ascii	"+BTINQ: \000"
 1095      4E513A20 
 1095      00
 1096 0185 000000   		.align	2
 1097              	.LC91:
 1098 0188 2B425449 		.ascii	"+BTINQ: COMPLETE\000"
 1098      4E513A20 
 1098      434F4D50 
 1098      4C455445 
 1098      00
 1099              		.global	__umodsi3
 1100 0199 000000   		.align	2
 1101              	.LC93:
 1102 019c 20202000 		.ascii	"   \000"
 1103              		.align	2
 1104              	.LC95:
 1105 01a0 2E202000 		.ascii	".  \000"
 1106              		.align	2
 1107              	.LC97:
 1108 01a4 2E2E2000 		.ascii	".. \000"
 1109              		.align	2
 1110              	.LC99:
 1111 01a8 2E2E2E00 		.ascii	"...\000"
 1112              		.align	2
 1113              	.LC101:
 1114 01ac 202E2E00 		.ascii	" ..\000"
 1115              		.align	2
 1116              	.LC103:
 1117 01b0 20202E00 		.ascii	"  .\000"
 1118              		.align	2
 1119              	.LC105:
 1120 01b4 2D646F6E 		.ascii	"-done\000"
 1120      6500
ARM GAS  /cygdrive/c/Users/Zbyszko/AppData/Local/Temp/ccaXFopk.s 			page 44


 1121 01ba 0000     		.align	2
 1122              	.LC107:
 1123 01bc 41542B42 		.ascii	"AT+BTSDP=\000"
 1123      54534450 
 1123      3D00
 1124 01c6 0000     		.align	2
 1125              	.LC109:
 1126 01c8 0D00     		.ascii	"\015\000"
 1127 01ca 0000     		.align	2
 1128              	.LC111:
 1129 01cc 2B425453 		.ascii	"+BTSDP: COMPLETE\000"
 1129      44503A20 
 1129      434F4D50 
 1129      4C455445 
 1129      00
 1130 01dd 000000   		.align	2
 1131              	.LC113:
 1132 01e0 2B425453 		.ascii	"+BTSDP: \000"
 1132      44503A20 
 1132      00
 1133 01e9 000000   		.align	2
 1134              	.LC115:
 1135 01ec 20202020 		.ascii	"     \000"
 1135      2000
 1136 01f2 0000     		.align	2
 1137              	.LC117:
 1138 01f4 2D202000 		.ascii	"-  \000"
 1139              		.align	2
 1140              	.LC119:
 1141 01f8 2D2D2000 		.ascii	"-- \000"
 1142              		.align	2
 1143              	.LC121:
 1144 01fc 2D2D2D00 		.ascii	"---\000"
 1145              		.align	2
 1146              	.LC123:
 1147 0200 202D2D00 		.ascii	" --\000"
 1148              		.align	2
 1149              	.LC125:
 1150 0204 20202D00 		.ascii	"  -\000"
 1151              		.align	2
 1152              	.LC127:
 1153 0208 466F756E 		.ascii	"Found \000"
 1153      642000
 1154              		.global	__udivsi3
 1155 020f 00       		.align	2
 1156              	.LC129:
 1157 0210 20736572 		.ascii	" services\000"
 1157      76696365 
 1157      7300
 1158 021a 0000     		.align	2
 1159              	.LC131:
 1160 021c 46697273 		.ascii	"First service\000"
 1160      74207365 
 1160      72766963 
 1160      6500
 1161 022a 0000     		.align	2
 1162              	.LC133:
ARM GAS  /cygdrive/c/Users/Zbyszko/AppData/Local/Temp/ccaXFopk.s 			page 45


 1163 022c 206E616D 		.ascii	" name is:\000"
 1163      65206973 
 1163      3A00
 1164 0236 0000     		.align	2
 1165              	.LC135:
 1166 0238 286E616D 		.ascii	"(name trunc:ed)\000"
 1166      65207472 
 1166      756E633A 
 1166      65642900 
 1167              		.align	2
 1168              	.LC139:
 1169 0248 53657420 		.ascii	"Set name:\000"
 1169      6E616D65 
 1169      3A00
 1170 0252 0000     		.align	2
 1171              	.LC141:
 1172 0254 4D6F7665 		.ascii	"Move cursor and\000"
 1172      20637572 
 1172      736F7220 
 1172      616E6400 
 1173              		.align	2
 1174              	.LC143:
 1175 0264 73657420 		.ascii	"set each char.\000"
 1175      65616368 
 1175      20636861 
 1175      722E00
 1176 0273 00       		.align	2
 1177              	.LC145:
 1178 0274 45786974 		.ascii	"Exit with c-key\000"
 1178      20776974 
 1178      6820632D 
 1178      6B657900 
 1179              		.align	2
 1180              	.LC147:
 1181 0284 41542B42 		.ascii	"AT+BTLNM\015\000"
 1181      544C4E4D 
 1181      0D00
 1182 028e 0000     		.align	2
 1183              	.LC149:
 1184 0290 2B42544C 		.ascii	"+BTLNM: \"\000"
 1184      4E4D3A20 
 1184      2200
 1185 029a 0000     		.align	2
 1186              	.LC152:
 1187 029c 45786974 		.ascii	"Exit\000"
 1187      00
 1188 02a1 000000   		.align	2
 1189              	.LC154:
 1190 02a4 43616E63 		.ascii	"Cancel\000"
 1190      656C00
 1191 02ab 00       		.align	2
 1192              	.LC156:
 1193 02ac 53746F72 		.ascii	"Store new name\000"
 1193      65206E65 
 1193      77206E61 
 1193      6D6500
 1194 02bb 00       		.align	2
ARM GAS  /cygdrive/c/Users/Zbyszko/AppData/Local/Temp/ccaXFopk.s 			page 46


 1195              	.LC158:
 1196 02bc 41542B42 		.ascii	"AT+BTLNM=\"\000"
 1196      544C4E4D 
 1196      3D2200
 1197 02c7 00       		.align	2
 1198              	.LC160:
 1199 02c8 220D00   		.ascii	"\"\015\000"
 1200 02cb 00       		.align	2
 1201              	.LC162:
 1202 02cc 41542B42 		.ascii	"AT+BTFLS\015\000"
 1202      54464C53 
 1202      0D00
 1203 02d6 0000     		.align	2
 1204              	.LC164:
 1205 02d8 53657420 		.ascii	"Set address:\000"
 1205      61646472 
 1205      6573733A 
 1205      00
 1206 02e5 000000   		.align	2
 1207              	.LC166:
 1208 02e8 41542B42 		.ascii	"AT+BTBDA\015\000"
 1208      54424441 
 1208      0D00
 1209 02f2 0000     		.align	2
 1210              	.LC168:
 1211 02f4 2B425442 		.ascii	"+BTBDA: \000"
 1211      44413A20 
 1211      00
 1212 02fd 000000   		.align	2
 1213              	.LC171:
 1214 0300 53746F72 		.ascii	"Store new addr\000"
 1214      65206E65 
 1214      77206164 
 1214      647200
 1215 030f 00       		.align	2
 1216              	.LC173:
 1217 0310 41542B42 		.ascii	"AT+BTSET=1,\000"
 1217      54534554 
 1217      3D312C00 
 1218              		.text
 1219              		.align	2
 1220              		.global	handleBt
 1221              		.code 16
 1222              		.thumb_func
 1223              		.type	handleBt, %function
 1224              	handleBt:
 1225              	.LFB16:
 1226              		.loc 1 1166 0
 1227 0578 F0B5     		push	{r4, r5, r6, r7, lr}
 1228              	.LCFI16:
 1229 057a A5B0     		sub	sp, sp, #148
 1230              	.LCFI17:
 1231              		.loc 1 1170 0
 1232 057c FFF79AFF 		bl	drawBtMenu
 1233              	.LVL33:
 1234              	.L353:
 1235              	.LBB19:
ARM GAS  /cygdrive/c/Users/Zbyszko/AppData/Local/Temp/ccaXFopk.s 			page 47


 1236              		.loc 1 1176 0
 1237 0580 FFF7FEFF 		bl	checkKey
 1238              	.LVL34:
 1239              		.loc 1 1177 0
 1240 0584 0028     		cmp	r0, #0
 1241 0586 01D1     		bne	.LCB1023
 1242 0588 00F0FFFC 		bl	.L359	@far jump
 1243              	.LCB1023:
 1244              		.loc 1 1180 0
 1245 058c 1028     		cmp	r0, #16
 1246 058e 01D0     		beq	.LCB1026
 1247 0590 00F0C9FC 		bl	.L128	@far jump
 1248              	.LCB1026:
 1249              		.loc 1 1182 0
 1250 0594 C64B     		ldr	r3, .L381
 1251 0596 1B78     		ldrb	r3, [r3]
 1252 0598 052B     		cmp	r3, #5
 1253 059a 01D9     		bls	.LCB1031
 1254 059c 00F0F3FC 		bl	.L222	@far jump
 1255              	.LCB1031:
 1256 05a0 C44A     		ldr	r2, .L381+4
 1257 05a2 9B00     		lsl	r3, r3, #2
 1258 05a4 9B58     		ldr	r3, [r3, r2]
 1259 05a6 9F46     		mov	pc, r3
 1260              		.section	.rodata
 1261              		.align	2
 1262              		.align	2
 1263              	.L137:
 1264 0018 A8050000 		.word	.L131
 1265 001c 3C0A0000 		.word	.L132
 1266 0020 1E0D0000 		.word	.L133
 1267 0024 1A0F0000 		.word	.L134
 1268 0028 200F0000 		.word	.L135
 1269 002c 940F0000 		.word	.L136
 1270              		.text
 1271              	.L131:
 1272 05a8 C34A     		ldr	r2, .L381+8
 1273 05aa 111C     		mov	r1, r2
 1274 05ac A031     		add	r1, r1, #160
 1275              	.L138:
 1276              	.LBB20:
 1277              	.LBB21:
 1278              		.loc 1 261 0
 1279 05ae 0023     		mov	r3, #0
 1280 05b0 1370     		strb	r3, [r2]
 1281              		.loc 1 262 0
 1282 05b2 9373     		strb	r3, [r2, #14]
 1283 05b4 2032     		add	r2, r2, #32
 1284              		.loc 1 259 0
 1285 05b6 8A42     		cmp	r2, r1
 1286 05b8 F9D1     		bne	.L138
 1287              		.loc 1 266 0
 1288 05ba 7E22     		mov	r2, #126
 1289 05bc 5423     		mov	r3, #84
 1290 05be 0124     		mov	r4, #1
 1291              	.LVL35:
 1292 05c0 0120     		mov	r0, #1
ARM GAS  /cygdrive/c/Users/Zbyszko/AppData/Local/Temp/ccaXFopk.s 			page 48


 1293              	.LVL36:
 1294 05c2 1021     		mov	r1, #16
 1295 05c4 0094     		str	r4, [sp]
 1296 05c6 FFF7FEFF 		bl	lcdRect
 1297              		.loc 1 267 0
 1298 05ca 1220     		mov	r0, #18
 1299 05cc 1021     		mov	r1, #16
 1300 05ce FFF7FEFF 		bl	lcdGotoxy
 1301              		.loc 1 268 0
 1302 05d2 FD21     		mov	r1, #253
 1303 05d4 0120     		mov	r0, #1
 1304 05d6 FFF7FEFF 		bl	lcdColor
 1305              		.loc 1 269 0
 1306 05da B848     		ldr	r0, .L381+12
 1307 05dc FFF7FEFF 		bl	lcdPuts
 1308              		.loc 1 270 0
 1309 05e0 0021     		mov	r1, #0
 1310 05e2 0020     		mov	r0, #0
 1311 05e4 FFF7AEFD 		bl	drawBtsFound
 1312              		.loc 1 273 0
 1313 05e8 B54B     		ldr	r3, .L381+16
 1314              		.loc 1 278 0
 1315 05ea 6420     		mov	r0, #100
 1316              		.loc 1 273 0
 1317 05ec 1C70     		strb	r4, [r3]
 1318              		.loc 1 278 0
 1319 05ee FFF7FEFF 		bl	osSleep
 1320              		.loc 1 279 0
 1321 05f2 B448     		ldr	r0, .L381+20
 1322 05f4 FFF7FEFF 		bl	uart1SendString
 1323              		.loc 1 280 0
 1324 05f8 6420     		mov	r0, #100
 1325 05fa FFF7FEFF 		bl	osSleep
 1326              		.loc 1 281 0
 1327 05fe B248     		ldr	r0, .L381+24
 1328 0600 FFF7FEFF 		bl	uart1SendString
 1329              		.loc 1 286 0
 1330 0604 B14B     		ldr	r3, .L381+28
 1331 0606 1B68     		ldr	r3, [r3]
 1332 0608 0026     		mov	r6, #0
 1333              	.LVL37:
 1334 060a 0025     		mov	r5, #0
 1335 060c 0027     		mov	r7, #0
 1336              	.LVL38:
 1337 060e 2293     		str	r3, [sp, #136]
 1338 0610 82E0     		b	.L140
 1339              	.LVL39:
 1340              	.L141:
 1341              	.LBE21:
 1342              		.loc 1 294 0
 1343 0612 6C46     		mov	r4, sp
 1344              	.LVL40:
 1345 0614 9234     		add	r4, r4, #146
 1346 0616 201C     		mov	r0, r4
 1347 0618 FFF7FEFF 		bl	uart1GetChar
 1348              	.LBB22:
 1349 061c 0128     		cmp	r0, #1
ARM GAS  /cygdrive/c/Users/Zbyszko/AppData/Local/Temp/ccaXFopk.s 			page 49


 1350 061e 48D1     		bne	.L142
 1351              		.loc 1 296 0
 1352 0620 AB48     		ldr	r0, .L381+32
 1353 0622 2178     		ldrb	r1, [r4]
 1354 0624 FFF7FEFF 		bl	simplePrintf
 1355              		.loc 1 298 0
 1356 0628 2078     		ldrb	r0, [r4]
 1357 062a 0A28     		cmp	r0, #10
 1358 062c 39D1     		bne	.L144
 1359              		.loc 1 300 0
 1360 062e 002E     		cmp	r6, #0
 1361 0630 04D0     		beq	.L146
 1362              		.loc 1 301 0
 1363 0632 25A8     		add	r0, sp, #148
 1364 0634 8319     		add	r3, r0, r6
 1365 0636 3E3B     		sub	r3, r3, #62
 1366 0638 0022     		mov	r2, #0
 1367 063a 1A70     		strb	r2, [r3]
 1368              	.L146:
 1369              	.LBE22:
 1370              		.loc 1 304 0
 1371 063c 6846     		mov	r0, sp
 1372 063e A549     		ldr	r1, .L381+36
 1373 0640 5730     		add	r0, r0, #87
 1374 0642 0822     		mov	r2, #8
 1375 0644 FFF7FEFF 		bl	memcmp
 1376 0648 0028     		cmp	r0, #0
 1377 064a 20D1     		bne	.L148
 1378              	.LBB23:
 1379 064c 1D2E     		cmp	r6, #29
 1380 064e 1ED1     		bne	.L148
 1381              		.loc 1 306 0
 1382 0650 042D     		cmp	r5, #4
 1383 0652 30D8     		bhi	.L151
 1384              		.loc 1 1166 0
 1385 0654 984A     		ldr	r2, .L381+8
 1386 0656 6B01     		lsl	r3, r5, #5
 1387 0658 9B18     		add	r3, r3, r2
 1388 065a 5A1C     		add	r2, r3, #1
 1389 065c 0021     		mov	r1, #0
 1390              	.L153:
 1391              		.loc 1 309 0
 1392 065e 6B46     		mov	r3, sp
 1393 0660 5733     		add	r3, r3, #87
 1394 0662 CB18     		add	r3, r1, r3
 1395 0664 1B7A     		ldrb	r3, [r3, #8]
 1396 0666 0131     		add	r1, r1, #1
 1397 0668 1370     		strb	r3, [r2]
 1398 066a 0132     		add	r2, r2, #1
 1399              		.loc 1 308 0
 1400 066c 0C29     		cmp	r1, #12
 1401 066e F6D1     		bne	.L153
 1402              		.loc 1 310 0
 1403 0670 914A     		ldr	r2, .L381+8
 1404 0672 6B01     		lsl	r3, r5, #5
 1405 0674 9B18     		add	r3, r3, r2
 1406 0676 0022     		mov	r2, #0
ARM GAS  /cygdrive/c/Users/Zbyszko/AppData/Local/Temp/ccaXFopk.s 			page 50


 1407 0678 5A73     		strb	r2, [r3, #13]
 1408              		.loc 1 311 0
 1409 067a 0122     		mov	r2, #1
 1410 067c 1A70     		strb	r2, [r3]
 1411              		.loc 1 312 0
 1412 067e 6B1C     		add	r3, r5, #1
 1413 0680 1B06     		lsl	r3, r3, #24
 1414              		.loc 1 315 0
 1415 0682 0020     		mov	r0, #0
 1416 0684 0021     		mov	r1, #0
 1417              		.loc 1 312 0
 1418 0686 1D0E     		lsr	r5, r3, #24
 1419              		.loc 1 315 0
 1420 0688 FFF75CFD 		bl	drawBtsFound
 1421 068c 13E0     		b	.L151
 1422              	.L148:
 1423              	.LBE23:
 1424              		.loc 1 318 0
 1425 068e 6846     		mov	r0, sp
 1426 0690 9149     		ldr	r1, .L381+40
 1427 0692 5730     		add	r0, r0, #87
 1428 0694 1022     		mov	r2, #16
 1429 0696 FFF7FEFF 		bl	memcmp
 1430 069a 0028     		cmp	r0, #0
 1431 069c 0BD1     		bne	.L151
 1432 069e 0124     		mov	r4, #1
 1433              	.LVL41:
 1434 06a0 0AE0     		b	.L360
 1435              	.LVL42:
 1436              	.L144:
 1437              	.LBB24:
 1438              		.loc 1 324 0
 1439 06a2 1F2E     		cmp	r6, #31
 1440 06a4 05D8     		bhi	.L142
 1441              		.loc 1 325 0
 1442 06a6 6B46     		mov	r3, sp
 1443 06a8 5733     		add	r3, r3, #87
 1444 06aa 9855     		strb	r0, [r3, r6]
 1445 06ac 731C     		add	r3, r6, #1
 1446 06ae 1B06     		lsl	r3, r3, #24
 1447 06b0 1E0E     		lsr	r6, r3, #24
 1448              	.L142:
 1449 06b2 0024     		mov	r4, #0
 1450              	.LVL43:
 1451 06b4 01E0     		b	.L155
 1452              	.LVL44:
 1453              	.L151:
 1454 06b6 0024     		mov	r4, #0
 1455              	.LVL45:
 1456              	.L360:
 1457 06b8 0026     		mov	r6, #0
 1458              	.L155:
 1459              		.loc 1 327 0
 1460 06ba 0120     		mov	r0, #1
 1461 06bc FFF7FEFF 		bl	osSleep
 1462              		.loc 1 330 0
 1463 06c0 4A20     		mov	r0, #74
ARM GAS  /cygdrive/c/Users/Zbyszko/AppData/Local/Temp/ccaXFopk.s 			page 51


 1464 06c2 1021     		mov	r1, #16
 1465 06c4 FFF7FEFF 		bl	lcdGotoxy
 1466              		.loc 1 331 0
 1467 06c8 0120     		mov	r0, #1
 1468 06ca FD21     		mov	r1, #253
 1469 06cc FFF7FEFF 		bl	lcdColor
 1470              		.loc 1 332 0
 1471 06d0 381C     		mov	r0, r7
 1472 06d2 9621     		mov	r1, #150
 1473 06d4 FFF7FEFF 		bl	__umodsi3
 1474 06d8 3228     		cmp	r0, #50
 1475 06da 11D0     		beq	.L161
 1476 06dc 3228     		cmp	r0, #50
 1477 06de 04D8     		bhi	.L165
 1478 06e0 0028     		cmp	r0, #0
 1479 06e2 09D0     		beq	.L159
 1480 06e4 1928     		cmp	r0, #25
 1481 06e6 14D1     		bne	.L158
 1482 06e8 08E0     		b	.L160
 1483              	.L165:
 1484 06ea 6428     		cmp	r0, #100
 1485 06ec 0CD0     		beq	.L163
 1486 06ee 7D28     		cmp	r0, #125
 1487 06f0 0CD0     		beq	.L164
 1488 06f2 4B28     		cmp	r0, #75
 1489 06f4 0DD1     		bne	.L158
 1490 06f6 05E0     		b	.L162
 1491              	.L159:
 1492              		.loc 1 334 0
 1493 06f8 7848     		ldr	r0, .L381+44
 1494 06fa 08E0     		b	.L361
 1495              	.L160:
 1496              		.loc 1 335 0
 1497 06fc 7848     		ldr	r0, .L381+48
 1498 06fe 06E0     		b	.L361
 1499              	.L161:
 1500              		.loc 1 336 0
 1501 0700 7848     		ldr	r0, .L381+52
 1502 0702 04E0     		b	.L361
 1503              	.L162:
 1504              		.loc 1 337 0
 1505 0704 7848     		ldr	r0, .L381+56
 1506 0706 02E0     		b	.L361
 1507              	.L163:
 1508              		.loc 1 338 0
 1509 0708 7848     		ldr	r0, .L381+60
 1510 070a 00E0     		b	.L361
 1511              	.L164:
 1512              		.loc 1 339 0
 1513 070c 7848     		ldr	r0, .L381+64
 1514              	.L361:
 1515 070e FFF7FEFF 		bl	lcdPuts
 1516              	.L158:
 1517              		.loc 1 291 0
 1518 0712 002C     		cmp	r4, #0
 1519 0714 08D1     		bne	.L166
 1520              		.loc 1 342 0
ARM GAS  /cygdrive/c/Users/Zbyszko/AppData/Local/Temp/ccaXFopk.s 			page 52


 1521 0716 0137     		add	r7, r7, #1
 1522              	.L140:
 1523              		.loc 1 291 0
 1524 0718 6C4B     		ldr	r3, .L381+28
 1525 071a 1B68     		ldr	r3, [r3]
 1526 071c 229A     		ldr	r2, [sp, #136]
 1527 071e 9B1A     		sub	r3, r3, r2
 1528 0720 744A     		ldr	r2, .L381+68
 1529 0722 9342     		cmp	r3, r2
 1530 0724 00D8     		bhi	.LCB1337
 1531 0726 74E7     		b	.L141	@long jump
 1532              	.LCB1337:
 1533              	.L166:
 1534              		.loc 1 345 0
 1535 0728 4A20     		mov	r0, #74
 1536 072a 1021     		mov	r1, #16
 1537 072c FFF7FEFF 		bl	lcdGotoxy
 1538              		.loc 1 346 0
 1539 0730 FD21     		mov	r1, #253
 1540 0732 0120     		mov	r0, #1
 1541 0734 FFF7FEFF 		bl	lcdColor
 1542              		.loc 1 347 0
 1543 0738 6F48     		ldr	r0, .L381+72
 1544 073a FFF7FEFF 		bl	lcdPuts
 1545              		.loc 1 354 0
 1546 073e 0120     		mov	r0, #1
 1547 0740 0021     		mov	r1, #0
 1548 0742 FFF7FFFC 		bl	drawBtsFound
 1549 0746 0024     		mov	r4, #0
 1550              	.LVL46:
 1551              	.L168:
 1552              	.LBE24:
 1553              		.loc 1 357 0
 1554 0748 FFF7FEFF 		bl	checkKey
 1555              	.LVL47:
 1556              	.LBB25:
 1557              		.loc 1 358 0
 1558 074c 0028     		cmp	r0, #0
 1559 074e 18D0     		beq	.L169
 1560              		.loc 1 361 0
 1561 0750 1028     		cmp	r0, #16
 1562 0752 01D1     		bne	.LCB1371
 1563 0754 00F000FC 		bl	.L171	@far jump
 1564              	.LCB1371:
 1565              		.loc 1 367 0
 1566 0758 0128     		cmp	r0, #1
 1567 075a 05D1     		bne	.L173
 1568              		.loc 1 369 0
 1569 075c 002C     		cmp	r4, #0
 1570 075e 01D1     		bne	.L175
 1571 0760 0424     		mov	r4, #4
 1572 0762 0AE0     		b	.L181
 1573              	.L175:
 1574              		.loc 1 370 0
 1575 0764 631E     		sub	r3, r4, #1
 1576 0766 06E0     		b	.L369
 1577              	.L173:
ARM GAS  /cygdrive/c/Users/Zbyszko/AppData/Local/Temp/ccaXFopk.s 			page 53


 1578              		.loc 1 377 0
 1579 0768 0428     		cmp	r0, #4
 1580 076a 0AD1     		bne	.L169
 1581              		.loc 1 379 0
 1582 076c 032C     		cmp	r4, #3
 1583 076e 01D9     		bls	.L179
 1584 0770 0024     		mov	r4, #0
 1585 0772 02E0     		b	.L181
 1586              	.L179:
 1587              		.loc 1 380 0
 1588 0774 631C     		add	r3, r4, #1
 1589              	.L369:
 1590 0776 1B06     		lsl	r3, r3, #24
 1591 0778 1C0E     		lsr	r4, r3, #24
 1592              	.L181:
 1593              		.loc 1 383 0
 1594 077a 0120     		mov	r0, #1
 1595              	.LVL48:
 1596 077c 211C     		mov	r1, r4
 1597 077e FFF7E1FC 		bl	drawBtsFound
 1598              	.LVL49:
 1599              	.L169:
 1600              		.loc 1 386 0
 1601 0782 0120     		mov	r0, #1
 1602              	.LVL50:
 1603 0784 FFF7FEFF 		bl	osSleep
 1604 0788 DEE7     		b	.L168
 1605              	.L182:
 1606              	.LBB26:
 1607              		.loc 1 399 0
 1608 078a 5C48     		ldr	r0, .L381+76
 1609 078c FFF7FEFF 		bl	uart1SendString
 1610              		.loc 1 400 0
 1611 0790 494B     		ldr	r3, .L381+8
 1612 0792 6001     		lsl	r0, r4, #5
 1613 0794 C018     		add	r0, r0, r3
 1614 0796 0130     		add	r0, r0, #1
 1615 0798 FFF7FEFF 		bl	uart1SendString
 1616              		.loc 1 401 0
 1617 079c 5848     		ldr	r0, .L381+80
 1618 079e FFF7FEFF 		bl	uart1SendString
 1619              		.loc 1 403 0
 1620 07a2 4A4B     		ldr	r3, .L381+28
 1621 07a4 1B68     		ldr	r3, [r3]
 1622 07a6 0021     		mov	r1, #0
 1623 07a8 0025     		mov	r5, #0
 1624              	.LVL51:
 1625 07aa 0026     		mov	r6, #0
 1626              	.LVL52:
 1627 07ac 0027     		mov	r7, #0
 1628              	.LVL53:
 1629 07ae 2293     		str	r3, [sp, #136]
 1630 07b0 0891     		str	r1, [sp, #32]
 1631 07b2 C2E0     		b	.L183
 1632              	.LVL54:
 1633              	.L184:
 1634              	.LBE26:
ARM GAS  /cygdrive/c/Users/Zbyszko/AppData/Local/Temp/ccaXFopk.s 			page 54


 1635              	.LBE25:
 1636              		.loc 1 410 0
 1637 07b4 6C46     		mov	r4, sp
 1638              	.LVL55:
 1639 07b6 9234     		add	r4, r4, #146
 1640 07b8 201C     		mov	r0, r4
 1641 07ba FFF7FEFF 		bl	uart1GetChar
 1642              	.LBB27:
 1643              	.LBB28:
 1644 07be 0128     		cmp	r0, #1
 1645 07c0 5AD1     		bne	.L185
 1646              		.loc 1 412 0
 1647 07c2 4348     		ldr	r0, .L381+32
 1648 07c4 2178     		ldrb	r1, [r4]
 1649 07c6 FFF7FEFF 		bl	simplePrintf
 1650              		.loc 1 414 0
 1651 07ca 2078     		ldrb	r0, [r4]
 1652 07cc 0A28     		cmp	r0, #10
 1653 07ce 48D1     		bne	.L187
 1654              		.loc 1 416 0
 1655 07d0 089A     		ldr	r2, [sp, #32]
 1656 07d2 002A     		cmp	r2, #0
 1657 07d4 04D0     		beq	.L189
 1658              		.loc 1 417 0
 1659 07d6 25AC     		add	r4, sp, #148
 1660 07d8 A318     		add	r3, r4, r2
 1661 07da 3E3B     		sub	r3, r3, #62
 1662 07dc 0022     		mov	r2, #0
 1663 07de 1A70     		strb	r2, [r3]
 1664              	.L189:
 1665              	.LBE28:
 1666              	.LBE27:
 1667              		.loc 1 420 0
 1668 07e0 6C46     		mov	r4, sp
 1669 07e2 5734     		add	r4, r4, #87
 1670 07e4 4749     		ldr	r1, .L381+84
 1671 07e6 201C     		mov	r0, r4
 1672 07e8 1022     		mov	r2, #16
 1673 07ea FFF7FEFF 		bl	memcmp
 1674 07ee 0028     		cmp	r0, #0
 1675 07f0 02D1     		bne	.L191
 1676 07f2 0124     		mov	r4, #1
 1677              	.LVL56:
 1678 07f4 0890     		str	r0, [sp, #32]
 1679 07f6 43E0     		b	.L193
 1680              	.LVL57:
 1681              	.L191:
 1682              		.loc 1 423 0
 1683 07f8 4349     		ldr	r1, .L381+88
 1684 07fa 201C     		mov	r0, r4
 1685 07fc 0822     		mov	r2, #8
 1686 07fe FFF7FEFF 		bl	memcmp
 1687 0802 0028     		cmp	r0, #0
 1688 0804 3AD1     		bne	.L194
 1689              	.LBB29:
 1690              	.LBB30:
 1691              		.loc 1 425 0
ARM GAS  /cygdrive/c/Users/Zbyszko/AppData/Local/Temp/ccaXFopk.s 			page 55


 1692 0806 731C     		add	r3, r6, #1
 1693 0808 1B06     		lsl	r3, r3, #24
 1694 080a 1E0E     		lsr	r6, r3, #24
 1695              		.loc 1 428 0
 1696 080c 012E     		cmp	r6, #1
 1697 080e 35D1     		bne	.L194
 1698              	.LBE30:
 1699              	.LBE29:
 1700              		.loc 1 433 0
 1701 0810 6846     		mov	r0, sp
 1702 0812 6130     		add	r0, r0, #97
 1703 0814 2221     		mov	r1, #34
 1704 0816 FFF7FEFF 		bl	strchr
 1705              	.LBB31:
 1706              	.LBB32:
 1707              	.LBB33:
 1708              		.loc 1 434 0
 1709 081a 0028     		cmp	r0, #0
 1710 081c 1DD0     		beq	.L197
 1711              	.LBB34:
 1712              		.loc 1 439 0
 1713 081e 0130     		add	r0, r0, #1
 1714              	.LVL58:
 1715 0820 0021     		mov	r1, #0
 1716 0822 04E0     		b	.L199
 1717              	.LVL59:
 1718              	.L200:
 1719              		.loc 1 442 0
 1720 0824 6B46     		mov	r3, sp
 1721 0826 7733     		add	r3, r3, #119
 1722 0828 CA54     		strb	r2, [r1, r3]
 1723 082a 0130     		add	r0, r0, #1
 1724 082c 0131     		add	r1, r1, #1
 1725              	.L199:
 1726              		.loc 1 441 0
 1727 082e 0278     		ldrb	r2, [r0]
 1728              		.loc 1 442 0
 1729 0830 0B06     		lsl	r3, r1, #24
 1730 0832 1C0E     		lsr	r4, r3, #24
 1731              		.loc 1 441 0
 1732 0834 222A     		cmp	r2, #34
 1733 0836 01D0     		beq	.L201
 1734 0838 1029     		cmp	r1, #16
 1735 083a F3D1     		bne	.L200
 1736              	.L201:
 1737              		.loc 1 443 0
 1738 083c 6A46     		mov	r2, sp
 1739 083e 0023     		mov	r3, #0
 1740 0840 7732     		add	r2, r2, #119
 1741 0842 1355     		strb	r3, [r2, r4]
 1742              		.loc 1 444 0
 1743 0844 0378     		ldrb	r3, [r0]
 1744 0846 222B     		cmp	r3, #34
 1745 0848 03D0     		beq	.L203
 1746 084a 0024     		mov	r4, #0
 1747              	.LVL60:
 1748 084c 0127     		mov	r7, #1
ARM GAS  /cygdrive/c/Users/Zbyszko/AppData/Local/Temp/ccaXFopk.s 			page 56


 1749 084e 0894     		str	r4, [sp, #32]
 1750 0850 16E0     		b	.L193
 1751              	.LVL61:
 1752              	.L203:
 1753 0852 0024     		mov	r4, #0
 1754              	.LVL62:
 1755 0854 0027     		mov	r7, #0
 1756 0856 0894     		str	r4, [sp, #32]
 1757 0858 12E0     		b	.L193
 1758              	.LVL63:
 1759              	.L197:
 1760              	.LBE34:
 1761              		.loc 1 450 0
 1762 085a 6B46     		mov	r3, sp
 1763 085c 7733     		add	r3, r3, #119
 1764 085e 1870     		strb	r0, [r3]
 1765 0860 0CE0     		b	.L194
 1766              	.L187:
 1767              	.LBE33:
 1768              		.loc 1 455 0
 1769 0862 0899     		ldr	r1, [sp, #32]
 1770 0864 1F29     		cmp	r1, #31
 1771 0866 07D8     		bhi	.L185
 1772              		.loc 1 456 0
 1773 0868 6B46     		mov	r3, sp
 1774 086a 5733     		add	r3, r3, #87
 1775 086c 5854     		strb	r0, [r3, r1]
 1776 086e 0B1C     		mov	r3, r1
 1777 0870 0133     		add	r3, r3, #1
 1778 0872 1B06     		lsl	r3, r3, #24
 1779 0874 1B0E     		lsr	r3, r3, #24
 1780 0876 0893     		str	r3, [sp, #32]
 1781              	.L185:
 1782 0878 0024     		mov	r4, #0
 1783              	.LVL64:
 1784 087a 01E0     		b	.L193
 1785              	.LVL65:
 1786              	.L194:
 1787 087c 0024     		mov	r4, #0
 1788              	.LVL66:
 1789 087e 0894     		str	r4, [sp, #32]
 1790              	.LVL67:
 1791              	.L193:
 1792              		.loc 1 458 0
 1793 0880 0120     		mov	r0, #1
 1794              	.LVL68:
 1795 0882 FFF7FEFF 		bl	osSleep
 1796              		.loc 1 461 0
 1797 0886 4A20     		mov	r0, #74
 1798 0888 1021     		mov	r1, #16
 1799 088a FFF7FEFF 		bl	lcdGotoxy
 1800              		.loc 1 462 0
 1801 088e 0120     		mov	r0, #1
 1802 0890 FD21     		mov	r1, #253
 1803 0892 FFF7FEFF 		bl	lcdColor
 1804              		.loc 1 463 0
 1805 0896 281C     		mov	r0, r5
ARM GAS  /cygdrive/c/Users/Zbyszko/AppData/Local/Temp/ccaXFopk.s 			page 57


 1806 0898 9621     		mov	r1, #150
 1807 089a FFF7FEFF 		bl	__umodsi3
 1808 089e 3228     		cmp	r0, #50
 1809 08a0 3FD0     		beq	.L209
 1810 08a2 3228     		cmp	r0, #50
 1811 08a4 32D8     		bhi	.L213
 1812 08a6 0028     		cmp	r0, #0
 1813 08a8 37D0     		beq	.L207
 1814 08aa 1928     		cmp	r0, #25
 1815 08ac 42D1     		bne	.L206
 1816 08ae 36E0     		b	.L208
 1817              	.L382:
 1818              		.align	2
 1819              	.L381:
 1820 08b0 02000000 		.word	btCursor
 1821 08b4 18000000 		.word	.L137
 1822 08b8 64030000 		.word	foundBtUnits
 1823 08bc 10000000 		.word	.LC10
 1824 08c0 00000000 		.word	stopRecvProc
 1825 08c4 00000000 		.word	.LC1
 1826 08c8 6C010000 		.word	.LC84
 1827 08cc 00000000 		.word	ms
 1828 08d0 78010000 		.word	.LC87
 1829 08d4 7C010000 		.word	.LC89
 1830 08d8 88010000 		.word	.LC91
 1831 08dc 9C010000 		.word	.LC93
 1832 08e0 A0010000 		.word	.LC95
 1833 08e4 A4010000 		.word	.LC97
 1834 08e8 A8010000 		.word	.LC99
 1835 08ec AC010000 		.word	.LC101
 1836 08f0 B0010000 		.word	.LC103
 1837 08f4 63190000 		.word	6499
 1838 08f8 B4010000 		.word	.LC105
 1839 08fc BC010000 		.word	.LC107
 1840 0900 C8010000 		.word	.LC109
 1841 0904 CC010000 		.word	.LC111
 1842 0908 E0010000 		.word	.LC113
 1843              	.L213:
 1844 090c 6428     		cmp	r0, #100
 1845 090e 0CD0     		beq	.L211
 1846 0910 7D28     		cmp	r0, #125
 1847 0912 0CD0     		beq	.L212
 1848 0914 4B28     		cmp	r0, #75
 1849 0916 0DD1     		bne	.L206
 1850 0918 05E0     		b	.L210
 1851              	.L207:
 1852              		.loc 1 465 0
 1853 091a D748     		ldr	r0, .L383
 1854 091c 08E0     		b	.L362
 1855              	.L208:
 1856              		.loc 1 466 0
 1857 091e D748     		ldr	r0, .L383+4
 1858 0920 06E0     		b	.L362
 1859              	.L209:
 1860              		.loc 1 467 0
 1861 0922 D748     		ldr	r0, .L383+8
 1862 0924 04E0     		b	.L362
ARM GAS  /cygdrive/c/Users/Zbyszko/AppData/Local/Temp/ccaXFopk.s 			page 58


 1863              	.L210:
 1864              		.loc 1 468 0
 1865 0926 D748     		ldr	r0, .L383+12
 1866 0928 02E0     		b	.L362
 1867              	.L211:
 1868              		.loc 1 469 0
 1869 092a D748     		ldr	r0, .L383+16
 1870 092c 00E0     		b	.L362
 1871              	.L212:
 1872              		.loc 1 470 0
 1873 092e D748     		ldr	r0, .L383+20
 1874              	.L362:
 1875 0930 FFF7FEFF 		bl	lcdPuts
 1876              	.L206:
 1877              		.loc 1 407 0
 1878 0934 002C     		cmp	r4, #0
 1879 0936 08D1     		bne	.L214
 1880              		.loc 1 473 0
 1881 0938 0135     		add	r5, r5, #1
 1882              	.LVL69:
 1883              	.L183:
 1884              		.loc 1 407 0
 1885 093a D54B     		ldr	r3, .L383+24
 1886 093c 1B68     		ldr	r3, [r3]
 1887 093e 229A     		ldr	r2, [sp, #136]
 1888 0940 9B1A     		sub	r3, r3, r2
 1889 0942 D44A     		ldr	r2, .L383+28
 1890 0944 9342     		cmp	r3, r2
 1891 0946 00D8     		bhi	.LCB1759
 1892 0948 34E7     		b	.L184	@long jump
 1893              	.LCB1759:
 1894              	.L214:
 1895              		.loc 1 477 0
 1896 094a 0123     		mov	r3, #1
 1897 094c 7E22     		mov	r2, #126
 1898 094e 0093     		str	r3, [sp]
 1899 0950 0120     		mov	r0, #1
 1900 0952 5423     		mov	r3, #84
 1901 0954 1021     		mov	r1, #16
 1902 0956 FFF7FEFF 		bl	lcdRect
 1903              		.loc 1 478 0
 1904 095a 0120     		mov	r0, #1
 1905 095c FD21     		mov	r1, #253
 1906 095e FFF7FEFF 		bl	lcdColor
 1907              		.loc 1 479 0
 1908 0962 1021     		mov	r1, #16
 1909 0964 0220     		mov	r0, #2
 1910 0966 FFF7FEFF 		bl	lcdGotoxy
 1911              		.loc 1 480 0
 1912 096a CB48     		ldr	r0, .L383+32
 1913 096c FFF7FEFF 		bl	lcdPuts
 1914              	.LBB35:
 1915              		.loc 1 484 0
 1916 0970 301C     		mov	r0, r6
 1917 0972 0A21     		mov	r1, #10
 1918 0974 FFF7FEFF 		bl	__umodsi3
 1919 0978 6C46     		mov	r4, sp
ARM GAS  /cygdrive/c/Users/Zbyszko/AppData/Local/Temp/ccaXFopk.s 			page 59


 1920              	.LVL70:
 1921 097a 8F34     		add	r4, r4, #143
 1922 097c 3030     		add	r0, r0, #48
 1923 097e 6070     		strb	r0, [r4, #1]
 1924 0980 C64D     		ldr	r5, .L383+36
 1925              	.LVL71:
 1926              		.loc 1 485 0
 1927 0982 092E     		cmp	r6, #9
 1928 0984 12D9     		bls	.L216
 1929              		.loc 1 486 0
 1930 0986 0A21     		mov	r1, #10
 1931 0988 301C     		mov	r0, r6
 1932 098a FFF7FEFF 		bl	__udivsi3
 1933              		.loc 1 489 0
 1934 098e 0023     		mov	r3, #0
 1935              		.loc 1 486 0
 1936 0990 3030     		add	r0, r0, #48
 1937 0992 2070     		strb	r0, [r4]
 1938              		.loc 1 489 0
 1939 0994 A370     		strb	r3, [r4, #2]
 1940              		.loc 1 490 0
 1941 0996 201C     		mov	r0, r4
 1942 0998 FFF7FEFF 		bl	lcdPuts
 1943              	.LBE35:
 1944              		.loc 1 492 0
 1945 099c 0220     		mov	r0, #2
 1946 099e 1E21     		mov	r1, #30
 1947 09a0 FFF7FEFF 		bl	lcdGotoxy
 1948              		.loc 1 493 0
 1949 09a4 281C     		mov	r0, r5
 1950 09a6 FFF7FEFF 		bl	lcdPuts
 1951 09aa 0FE0     		b	.L218
 1952              	.L216:
 1953              	.LBB36:
 1954              		.loc 1 488 0
 1955 09ac 2023     		mov	r3, #32
 1956 09ae 2370     		strb	r3, [r4]
 1957              		.loc 1 489 0
 1958 09b0 0023     		mov	r3, #0
 1959 09b2 A370     		strb	r3, [r4, #2]
 1960              		.loc 1 490 0
 1961 09b4 201C     		mov	r0, r4
 1962 09b6 FFF7FEFF 		bl	lcdPuts
 1963              	.LBE36:
 1964              		.loc 1 492 0
 1965 09ba 0220     		mov	r0, #2
 1966 09bc 1E21     		mov	r1, #30
 1967 09be FFF7FEFF 		bl	lcdGotoxy
 1968              		.loc 1 493 0
 1969 09c2 281C     		mov	r0, r5
 1970 09c4 FFF7FEFF 		bl	lcdPuts
 1971              		.loc 1 495 0
 1972 09c8 002E     		cmp	r6, #0
 1973 09ca 1ED0     		beq	.L335
 1974              	.L218:
 1975              		.loc 1 497 0
 1976 09cc 2C21     		mov	r1, #44
ARM GAS  /cygdrive/c/Users/Zbyszko/AppData/Local/Temp/ccaXFopk.s 			page 60


 1977 09ce 0220     		mov	r0, #2
 1978 09d0 FFF7FEFF 		bl	lcdGotoxy
 1979              		.loc 1 498 0
 1980 09d4 B248     		ldr	r0, .L383+40
 1981 09d6 FFF7FEFF 		bl	lcdPuts
 1982              		.loc 1 499 0
 1983 09da 3A21     		mov	r1, #58
 1984 09dc 0220     		mov	r0, #2
 1985 09de FFF7FEFF 		bl	lcdGotoxy
 1986              		.loc 1 500 0
 1987 09e2 B048     		ldr	r0, .L383+44
 1988 09e4 FFF7FEFF 		bl	lcdPuts
 1989              		.loc 1 501 0
 1990 09e8 0220     		mov	r0, #2
 1991 09ea 4821     		mov	r1, #72
 1992 09ec FFF7FEFF 		bl	lcdGotoxy
 1993              		.loc 1 502 0
 1994 09f0 6846     		mov	r0, sp
 1995 09f2 7730     		add	r0, r0, #119
 1996 09f4 FFF7FEFF 		bl	lcdPuts
 1997              		.loc 1 504 0
 1998 09f8 012F     		cmp	r7, #1
 1999 09fa 06D1     		bne	.L335
 2000              		.loc 1 506 0
 2001 09fc 0220     		mov	r0, #2
 2002 09fe 5621     		mov	r1, #86
 2003 0a00 FFF7FEFF 		bl	lcdGotoxy
 2004              		.loc 1 507 0
 2005 0a04 A848     		ldr	r0, .L383+48
 2006 0a06 FFF7FEFF 		bl	lcdPuts
 2007              	.L335:
 2008              	.LBE32:
 2009              	.LBE31:
 2010              		.loc 1 515 0
 2011 0a0a FFF7FEFF 		bl	checkKey
 2012 0a0e 041C     		mov	r4, r0
 2013              	.LBB37:
 2014              	.LBB38:
 2015              		.loc 1 518 0
 2016 0a10 0120     		mov	r0, #1
 2017 0a12 FFF7FEFF 		bl	osSleep
 2018              		.loc 1 513 0
 2019 0a16 002C     		cmp	r4, #0
 2020 0a18 F7D0     		beq	.L335
 2021              	.LVL72:
 2022              	.L221:
 2023              	.LBE38:
 2024              		.loc 1 523 0
 2025 0a1a 0123     		mov	r3, #1
 2026 0a1c 0093     		str	r3, [sp]
 2027 0a1e 0120     		mov	r0, #1
 2028 0a20 1021     		mov	r1, #16
 2029 0a22 7E22     		mov	r2, #126
 2030 0a24 5423     		mov	r3, #84
 2031 0a26 FFF7FEFF 		bl	lcdRect
 2032              		.loc 1 526 0
 2033 0a2a A04A     		ldr	r2, .L383+52
ARM GAS  /cygdrive/c/Users/Zbyszko/AppData/Local/Temp/ccaXFopk.s 			page 61


 2034 0a2c 0023     		mov	r3, #0
 2035              		.loc 1 527 0
 2036 0a2e 6946     		mov	r1, sp
 2037              		.loc 1 526 0
 2038 0a30 1370     		strb	r3, [r2]
 2039              		.loc 1 527 0
 2040 0a32 9F48     		ldr	r0, .L383+56
 2041 0a34 9331     		add	r1, r1, #147
 2042 0a36 FFF7FEFF 		bl	osSemGive
 2043 0a3a 6BE1     		b	.L367
 2044              	.LVL73:
 2045              	.L132:
 2046              	.LBE37:
 2047              	.LBE20:
 2048              	.LBB39:
 2049              	.LBB40:
 2050              		.loc 1 779 0
 2051 0a3c 7E22     		mov	r2, #126
 2052 0a3e 5423     		mov	r3, #84
 2053 0a40 0124     		mov	r4, #1
 2054              	.LVL74:
 2055 0a42 0120     		mov	r0, #1
 2056              	.LVL75:
 2057 0a44 1021     		mov	r1, #16
 2058 0a46 0094     		str	r4, [sp]
 2059 0a48 FFF7FEFF 		bl	lcdRect
 2060              		.loc 1 780 0
 2061 0a4c 2220     		mov	r0, #34
 2062 0a4e 1421     		mov	r1, #20
 2063 0a50 FFF7FEFF 		bl	lcdGotoxy
 2064              		.loc 1 781 0
 2065 0a54 FD21     		mov	r1, #253
 2066 0a56 0120     		mov	r0, #1
 2067 0a58 FFF7FEFF 		bl	lcdColor
 2068              		.loc 1 782 0
 2069 0a5c 9548     		ldr	r0, .L383+60
 2070 0a5e FFF7FEFF 		bl	lcdPuts
 2071              		.loc 1 783 0
 2072 0a62 2221     		mov	r1, #34
 2073 0a64 0620     		mov	r0, #6
 2074 0a66 FFF7FEFF 		bl	lcdGotoxy
 2075              		.loc 1 784 0
 2076 0a6a 9348     		ldr	r0, .L383+64
 2077 0a6c FFF7FEFF 		bl	lcdPuts
 2078              		.loc 1 785 0
 2079 0a70 3021     		mov	r1, #48
 2080 0a72 0620     		mov	r0, #6
 2081 0a74 FFF7FEFF 		bl	lcdGotoxy
 2082              		.loc 1 786 0
 2083 0a78 9048     		ldr	r0, .L383+68
 2084 0a7a FFF7FEFF 		bl	lcdPuts
 2085              		.loc 1 787 0
 2086 0a7e 3E21     		mov	r1, #62
 2087 0a80 0620     		mov	r0, #6
 2088 0a82 FFF7FEFF 		bl	lcdGotoxy
 2089              		.loc 1 788 0
 2090 0a86 8E48     		ldr	r0, .L383+72
ARM GAS  /cygdrive/c/Users/Zbyszko/AppData/Local/Temp/ccaXFopk.s 			page 62


 2091 0a88 FFF7FEFF 		bl	lcdPuts
 2092              		.loc 1 791 0
 2093 0a8c 874B     		ldr	r3, .L383+52
 2094              		.loc 1 796 0
 2095 0a8e 6420     		mov	r0, #100
 2096              		.loc 1 791 0
 2097 0a90 1C70     		strb	r4, [r3]
 2098              		.loc 1 796 0
 2099 0a92 FFF7FEFF 		bl	osSleep
 2100              		.loc 1 797 0
 2101 0a96 8B48     		ldr	r0, .L383+76
 2102 0a98 FFF7FEFF 		bl	uart1SendString
 2103              		.loc 1 798 0
 2104 0a9c 6420     		mov	r0, #100
 2105 0a9e FFF7FEFF 		bl	osSleep
 2106              		.loc 1 799 0
 2107 0aa2 8948     		ldr	r0, .L383+80
 2108 0aa4 FFF7FEFF 		bl	uart1SendString
 2109              		.loc 1 804 0
 2110 0aa8 794B     		ldr	r3, .L383+24
 2111 0aaa 1D68     		ldr	r5, [r3]
 2112              	.LVL76:
 2113 0aac 4DE0     		b	.L375
 2114              	.L224:
 2115              	.LBE40:
 2116              		.loc 1 810 0
 2117 0aae 6C46     		mov	r4, sp
 2118 0ab0 9334     		add	r4, r4, #147
 2119 0ab2 201C     		mov	r0, r4
 2120 0ab4 FFF7FEFF 		bl	uart1GetChar
 2121              	.LBB41:
 2122 0ab8 0128     		cmp	r0, #1
 2123 0aba 56D1     		bne	.L376
 2124              		.loc 1 812 0
 2125 0abc 8348     		ldr	r0, .L383+84
 2126 0abe 2178     		ldrb	r1, [r4]
 2127 0ac0 FFF7FEFF 		bl	simplePrintf
 2128              		.loc 1 814 0
 2129 0ac4 2078     		ldrb	r0, [r4]
 2130 0ac6 6C46     		mov	r4, sp
 2131 0ac8 9234     		add	r4, r4, #146
 2132 0aca 0A28     		cmp	r0, #10
 2133 0acc 42D1     		bne	.L226
 2134              		.loc 1 816 0
 2135 0ace 2378     		ldrb	r3, [r4]
 2136 0ad0 002B     		cmp	r3, #0
 2137 0ad2 05D0     		beq	.L228
 2138              	.LVL77:
 2139              		.loc 1 817 0
 2140 0ad4 2378     		ldrb	r3, [r4]
 2141 0ad6 25AA     		add	r2, sp, #148
 2142 0ad8 D318     		add	r3, r2, r3
 2143              	.LVL78:
 2144 0ada 3E3B     		sub	r3, r3, #62
 2145 0adc 0022     		mov	r2, #0
 2146 0ade 1A70     		strb	r2, [r3]
 2147              	.LVL79:
ARM GAS  /cygdrive/c/Users/Zbyszko/AppData/Local/Temp/ccaXFopk.s 			page 63


 2148              	.L228:
 2149              	.LBE41:
 2150              		.loc 1 820 0
 2151 0ae0 6846     		mov	r0, sp
 2152 0ae2 7B49     		ldr	r1, .L383+88
 2153 0ae4 5730     		add	r0, r0, #87
 2154 0ae6 0922     		mov	r2, #9
 2155 0ae8 FFF7FEFF 		bl	memcmp
 2156 0aec 0028     		cmp	r0, #0
 2157 0aee 2CD1     		bne	.L375
 2158              	.LBB42:
 2159 0af0 2378     		ldrb	r3, [r4]
 2160 0af2 1A2B     		cmp	r3, #26
 2161 0af4 29D8     		bhi	.L375
 2162              	.LVL80:
 2163              		.loc 1 822 0
 2164 0af6 2070     		strb	r0, [r4]
 2165 0af8 764C     		ldr	r4, .L383+92
 2166 0afa 07E0     		b	.L233
 2167              	.LVL81:
 2168              	.L234:
 2169              		.loc 1 823 0
 2170 0afc 0278     		ldrb	r2, [r0]
 2171 0afe 2023     		mov	r3, #32
 2172              	.LVL82:
 2173 0b00 8B54     		strb	r3, [r1, r2]
 2174              		.loc 1 822 0
 2175 0b02 0378     		ldrb	r3, [r0]
 2176 0b04 0133     		add	r3, r3, #1
 2177 0b06 1B06     		lsl	r3, r3, #24
 2178 0b08 1B0E     		lsr	r3, r3, #24
 2179 0b0a 0370     		strb	r3, [r0]
 2180              	.LVL83:
 2181              	.L233:
 2182 0b0c 6846     		mov	r0, sp
 2183 0b0e 9230     		add	r0, r0, #146
 2184 0b10 0378     		ldrb	r3, [r0]
 2185 0b12 211C     		mov	r1, r4
 2186 0b14 0F2B     		cmp	r3, #15
 2187 0b16 F1D9     		bls	.L234
 2188              	.LVL84:
 2189              		.loc 1 824 0
 2190 0b18 0023     		mov	r3, #0
 2191              	.LVL85:
 2192 0b1a 2374     		strb	r3, [r4, #16]
 2193              		.loc 1 826 0
 2194 0b1c 0923     		mov	r3, #9
 2195 0b1e 0370     		strb	r3, [r0]
 2196 0b20 0AE0     		b	.L236
 2197              	.LVL86:
 2198              	.L237:
 2199              		.loc 1 829 0
 2200 0b22 0B78     		ldrb	r3, [r1]
 2201 0b24 0A78     		ldrb	r2, [r1]
 2202 0b26 1B19     		add	r3, r3, r4
 2203 0b28 825C     		ldrb	r2, [r0, r2]
 2204 0b2a 093B     		sub	r3, r3, #9
ARM GAS  /cygdrive/c/Users/Zbyszko/AppData/Local/Temp/ccaXFopk.s 			page 64


 2205 0b2c 1A70     		strb	r2, [r3]
 2206              		.loc 1 830 0
 2207 0b2e 0B78     		ldrb	r3, [r1]
 2208 0b30 0133     		add	r3, r3, #1
 2209 0b32 1B06     		lsl	r3, r3, #24
 2210 0b34 1B0E     		lsr	r3, r3, #24
 2211 0b36 0B70     		strb	r3, [r1]
 2212              	.LVL87:
 2213              	.L236:
 2214              		.loc 1 827 0
 2215 0b38 6946     		mov	r1, sp
 2216 0b3a 9231     		add	r1, r1, #146
 2217 0b3c 0B78     		ldrb	r3, [r1]
 2218 0b3e 6846     		mov	r0, sp
 2219 0b40 5730     		add	r0, r0, #87
 2220 0b42 C35C     		ldrb	r3, [r0, r3]
 2221 0b44 222B     		cmp	r3, #34
 2222 0b46 ECD1     		bne	.L237
 2223              	.LVL88:
 2224 0b48 18E2     		b	.L348
 2225              	.LVL89:
 2226              	.L375:
 2227              		.loc 1 834 0
 2228 0b4a 6B46     		mov	r3, sp
 2229 0b4c 0022     		mov	r2, #0
 2230 0b4e 9233     		add	r3, r3, #146
 2231 0b50 1A70     		strb	r2, [r3]
 2232 0b52 0AE0     		b	.L376
 2233              	.L226:
 2234              		.loc 1 836 0
 2235 0b54 2378     		ldrb	r3, [r4]
 2236 0b56 1F2B     		cmp	r3, #31
 2237 0b58 07D8     		bhi	.L376
 2238              	.LVL90:
 2239              		.loc 1 837 0
 2240 0b5a 2378     		ldrb	r3, [r4]
 2241 0b5c 6A46     		mov	r2, sp
 2242 0b5e 5732     		add	r2, r2, #87
 2243              	.LVL91:
 2244 0b60 D054     		strb	r0, [r2, r3]
 2245 0b62 0133     		add	r3, r3, #1
 2246 0b64 1B06     		lsl	r3, r3, #24
 2247 0b66 1B0E     		lsr	r3, r3, #24
 2248 0b68 2370     		strb	r3, [r4]
 2249              	.LVL92:
 2250              	.L376:
 2251              		.loc 1 807 0
 2252 0b6a 494B     		ldr	r3, .L383+24
 2253 0b6c 1B68     		ldr	r3, [r3]
 2254 0b6e 5B1B     		sub	r3, r3, r5
 2255 0b70 C72B     		cmp	r3, #199
 2256 0b72 9CD9     		bls	.L224
 2257              	.LVL93:
 2258              	.L240:
 2259              		.loc 1 842 0
 2260 0b74 4D4B     		ldr	r3, .L383+52
 2261 0b76 0022     		mov	r2, #0
ARM GAS  /cygdrive/c/Users/Zbyszko/AppData/Local/Temp/ccaXFopk.s 			page 65


 2262 0b78 1A70     		strb	r2, [r3]
 2263              		.loc 1 843 0
 2264 0b7a 4D48     		ldr	r0, .L383+56
 2265 0b7c 22A9     		add	r1, sp, #136
 2266 0b7e FFF7FEFF 		bl	osSemGive
 2267              		.loc 1 850 0
 2268 0b82 0020     		mov	r0, #0
 2269 0b84 FFF71CFB 		bl	drawBtName
 2270 0b88 0024     		mov	r4, #0
 2271              	.LVL94:
 2272              	.L241:
 2273              	.LBE42:
 2274              		.loc 1 853 0
 2275 0b8a FFF7FEFF 		bl	checkKey
 2276              	.LVL95:
 2277              	.LBB43:
 2278              		.loc 1 854 0
 2279 0b8e 0028     		cmp	r0, #0
 2280 0b90 00D1     		bne	.LCB2184
 2281 0b92 EBE1     		b	.L242	@long jump
 2282              	.LCB2184:
 2283              		.loc 1 857 0
 2284 0b94 1028     		cmp	r0, #16
 2285 0b96 4ED1     		bne	.L244
 2286              	.LBB44:
 2287              		.loc 1 861 0
 2288 0b98 09A9     		add	r1, sp, #36
 2289 0b9a 0523     		mov	r3, #5
 2290 0b9c 0B70     		strb	r3, [r1]
 2291              		.loc 1 862 0
 2292 0b9e 2323     		mov	r3, #35
 2293 0ba0 4B70     		strb	r3, [r1, #1]
 2294              		.loc 1 863 0
 2295 0ba2 7623     		mov	r3, #118
 2296 0ba4 8B70     		strb	r3, [r1, #2]
 2297              		.loc 1 864 0
 2298 0ba6 2F23     		mov	r3, #47
 2299 0ba8 CB70     		strb	r3, [r1, #3]
 2300              		.loc 1 865 0
 2301 0baa 0223     		mov	r3, #2
 2302 0bac 0B71     		strb	r3, [r1, #4]
 2303              		.loc 1 868 0
 2304 0bae 2A23     		mov	r3, #42
 2305 0bb0 0B73     		strb	r3, [r1, #12]
 2306              		.loc 1 869 0
 2307 0bb2 494B     		ldr	r3, .L383+96
 2308 0bb4 0D93     		str	r3, [sp, #52]
 2309              		.loc 1 870 0
 2310 0bb6 494B     		ldr	r3, .L383+100
 2311              		.loc 1 866 0
 2312 0bb8 0020     		mov	r0, #0
 2313              	.LVL96:
 2314              		.loc 1 870 0
 2315 0bba 0E93     		str	r3, [sp, #56]
 2316              		.loc 1 871 0
 2317 0bbc 13AB     		add	r3, sp, #76
 2318              		.loc 1 866 0
ARM GAS  /cygdrive/c/Users/Zbyszko/AppData/Local/Temp/ccaXFopk.s 			page 66


 2319 0bbe 4871     		strb	r0, [r1, #5]
 2320              		.loc 1 871 0
 2321 0bc0 1870     		strb	r0, [r3]
 2322              		.loc 1 872 0
 2323 0bc2 6D21     		mov	r1, #109
 2324 0bc4 0133     		add	r3, r3, #1
 2325 0bc6 1970     		strb	r1, [r3]
 2326              		.loc 1 873 0
 2327 0bc8 0133     		add	r3, r3, #1
 2328 0bca 1870     		strb	r0, [r3]
 2329              		.loc 1 874 0
 2330 0bcc 6946     		mov	r1, sp
 2331 0bce 0323     		mov	r3, #3
 2332 0bd0 5B42     		neg	r3, r3
 2333 0bd2 4F31     		add	r1, r1, #79
 2334 0bd4 0B70     		strb	r3, [r1]
 2335              		.loc 1 867 0
 2336 0bd6 424A     		ldr	r2, .L383+104
 2337              		.loc 1 875 0
 2338 0bd8 2023     		mov	r3, #32
 2339 0bda 5B42     		neg	r3, r3
 2340 0bdc 14A9     		add	r1, sp, #80
 2341 0bde 0B70     		strb	r3, [r1]
 2342              		.loc 1 867 0
 2343 0be0 0B92     		str	r2, [sp, #44]
 2344              	.LBE44:
 2345              	.LBE43:
 2346              		.loc 1 877 0
 2347 0be2 0DAB     		add	r3, sp, #52
 2348 0be4 6946     		mov	r1, sp
 2349 0be6 31CB     		ldmia	r3!, {r0, r4, r5}
 2350 0be8 31C1     		stmia	r1!, {r0, r4, r5}
 2351              	.LVL97:
 2352 0bea 31CB     		ldmia	r3!, {r0, r4, r5}
 2353 0bec 31C1     		stmia	r1!, {r0, r4, r5}
 2354 0bee 30CB     		ldmia	r3!, {r4, r5}
 2355 0bf0 30C1     		stmia	r1!, {r4, r5}
 2356 0bf2 0998     		ldr	r0, [sp, #36]
 2357 0bf4 0A99     		ldr	r1, [sp, #40]
 2358 0bf6 0C9B     		ldr	r3, [sp, #48]
 2359 0bf8 FFF7FEFF 		bl	drawMenu
 2360              	.LBB45:
 2361              	.LBB46:
 2362 0bfc 0128     		cmp	r0, #1
 2363 0bfe 00D0     		beq	.LCB2263
 2364 0c00 82E0     		b	.L246	@long jump
 2365              	.LCB2263:
 2366 0c02 344C     		ldr	r4, .L383+92
 2367 0c04 0F22     		mov	r2, #15
 2368              	.LVL98:
 2369              	.L248:
 2370              		.loc 1 886 0
 2371 0c06 A35C     		ldrb	r3, [r4, r2]
 2372 0c08 202B     		cmp	r3, #32
 2373 0c0a 06D1     		bne	.L249
 2374              		.loc 1 887 0
 2375 0c0c 0023     		mov	r3, #0
ARM GAS  /cygdrive/c/Users/Zbyszko/AppData/Local/Temp/ccaXFopk.s 			page 67


 2376 0c0e A354     		strb	r3, [r4, r2]
 2377              		.loc 1 884 0
 2378 0c10 531E     		sub	r3, r2, #1
 2379 0c12 1B06     		lsl	r3, r3, #24
 2380 0c14 1A0E     		lsr	r2, r3, #24
 2381 0c16 002A     		cmp	r2, #0
 2382 0c18 F5D1     		bne	.L248
 2383              	.L249:
 2384              		.loc 1 895 0
 2385 0c1a 3248     		ldr	r0, .L383+108
 2386 0c1c FFF7FEFF 		bl	uart1SendString
 2387              	.LVL99:
 2388              		.loc 1 896 0
 2389 0c20 201C     		mov	r0, r4
 2390 0c22 FFF7FEFF 		bl	uart1SendString
 2391              		.loc 1 897 0
 2392 0c26 3048     		ldr	r0, .L383+112
 2393 0c28 FFF7FEFF 		bl	uart1SendString
 2394              		.loc 1 898 0
 2395 0c2c 6420     		mov	r0, #100
 2396 0c2e FFF7FEFF 		bl	osSleep
 2397              		.loc 1 903 0
 2398 0c32 2E48     		ldr	r0, .L383+116
 2399 0c34 36E1     		b	.L374
 2400              	.LVL100:
 2401              	.L244:
 2402              	.LBE46:
 2403              		.loc 1 911 0
 2404 0c36 0128     		cmp	r0, #1
 2405 0c38 0AD1     		bne	.L252
 2406              		.loc 1 913 0
 2407 0c3a 264A     		ldr	r2, .L383+92
 2408 0c3c 135D     		ldrb	r3, [r2, r4]
 2409 0c3e 0133     		add	r3, r3, #1
 2410 0c40 1B06     		lsl	r3, r3, #24
 2411 0c42 1B0E     		lsr	r3, r3, #24
 2412 0c44 1355     		strb	r3, [r2, r4]
 2413              		.loc 1 914 0
 2414 0c46 1B06     		lsl	r3, r3, #24
 2415 0c48 002B     		cmp	r3, #0
 2416 0c4a 59DA     		bge	.L265
 2417              		.loc 1 915 0
 2418 0c4c 2023     		mov	r3, #32
 2419 0c4e 0AE0     		b	.L371
 2420              	.L252:
 2421              		.loc 1 920 0
 2422 0c50 0428     		cmp	r0, #4
 2423 0c52 0AD1     		bne	.L256
 2424              		.loc 1 922 0
 2425 0c54 1F4A     		ldr	r2, .L383+92
 2426 0c56 135D     		ldrb	r3, [r2, r4]
 2427 0c58 013B     		sub	r3, r3, #1
 2428 0c5a 1B06     		lsl	r3, r3, #24
 2429 0c5c 1B0E     		lsr	r3, r3, #24
 2430 0c5e 1355     		strb	r3, [r2, r4]
 2431              		.loc 1 923 0
 2432 0c60 1F2B     		cmp	r3, #31
ARM GAS  /cygdrive/c/Users/Zbyszko/AppData/Local/Temp/ccaXFopk.s 			page 68


 2433 0c62 4DD8     		bhi	.L265
 2434              		.loc 1 924 0
 2435 0c64 7F23     		mov	r3, #127
 2436              	.L371:
 2437 0c66 1355     		strb	r3, [r2, r4]
 2438 0c68 4AE0     		b	.L265
 2439              	.L256:
 2440              		.loc 1 929 0
 2441 0c6a 0828     		cmp	r0, #8
 2442 0c6c 40D1     		bne	.L260
 2443              		.loc 1 931 0
 2444 0c6e 002C     		cmp	r4, #0
 2445 0c70 46D0     		beq	.L265
 2446              		.loc 1 932 0
 2447 0c72 631E     		sub	r3, r4, #1
 2448 0c74 42E0     		b	.L370
 2449              	.L384:
 2450 0c76 0000     		.align	2
 2451              	.L383:
 2452 0c78 EC010000 		.word	.LC115
 2453 0c7c F4010000 		.word	.LC117
 2454 0c80 F8010000 		.word	.LC119
 2455 0c84 FC010000 		.word	.LC121
 2456 0c88 00020000 		.word	.LC123
 2457 0c8c 04020000 		.word	.LC125
 2458 0c90 00000000 		.word	ms
 2459 0c94 6F170000 		.word	5999
 2460 0c98 08020000 		.word	.LC127
 2461 0c9c 10020000 		.word	.LC129
 2462 0ca0 1C020000 		.word	.LC131
 2463 0ca4 2C020000 		.word	.LC133
 2464 0ca8 38020000 		.word	.LC135
 2465 0cac 00000000 		.word	stopRecvProc
 2466 0cb0 28030000 		.word	recvSem
 2467 0cb4 48020000 		.word	.LC139
 2468 0cb8 54020000 		.word	.LC141
 2469 0cbc 64020000 		.word	.LC143
 2470 0cc0 74020000 		.word	.LC145
 2471 0cc4 00000000 		.word	.LC1
 2472 0cc8 84020000 		.word	.LC147
 2473 0ccc 78010000 		.word	.LC87
 2474 0cd0 90020000 		.word	.LC149
 2475 0cd4 44030000 		.word	localName
 2476 0cd8 A4020000 		.word	.LC154
 2477 0cdc AC020000 		.word	.LC156
 2478 0ce0 9C020000 		.word	.LC152
 2479 0ce4 BC020000 		.word	.LC158
 2480 0ce8 C8020000 		.word	.LC160
 2481 0cec CC020000 		.word	.LC162
 2482              	.L260:
 2483              		.loc 1 937 0
 2484 0cf0 0228     		cmp	r0, #2
 2485 0cf2 00D0     		beq	.LCB2403
 2486 0cf4 3AE1     		b	.L242	@long jump
 2487              	.LCB2403:
 2488              		.loc 1 939 0
 2489 0cf6 0E2C     		cmp	r4, #14
ARM GAS  /cygdrive/c/Users/Zbyszko/AppData/Local/Temp/ccaXFopk.s 			page 69


 2490 0cf8 02D8     		bhi	.L265
 2491              		.loc 1 940 0
 2492 0cfa 631C     		add	r3, r4, #1
 2493              	.L370:
 2494 0cfc 1B06     		lsl	r3, r3, #24
 2495 0cfe 1C0E     		lsr	r4, r3, #24
 2496              	.L265:
 2497              		.loc 1 941 0
 2498 0d00 201C     		mov	r0, r4
 2499              	.LVL101:
 2500 0d02 FFF75DFA 		bl	drawBtName
 2501 0d06 31E1     		b	.L242
 2502              	.LVL102:
 2503              	.L246:
 2504              		.loc 1 944 0
 2505 0d08 0120     		mov	r0, #1
 2506 0d0a FFF7FEFF 		bl	osSleep
 2507              		.loc 1 947 0
 2508 0d0e 6420     		mov	r0, #100
 2509 0d10 FFF7FEFF 		bl	osSleep
 2510              	.LVL103:
 2511              	.L367:
 2512              		.loc 1 948 0
 2513 0d14 A44B     		ldr	r3, .L385
 2514 0d16 1878     		ldrb	r0, [r3]
 2515 0d18 FFF77EF9 		bl	btSetMode
 2516 0d1c 33E1     		b	.L222
 2517              	.LVL104:
 2518              	.L133:
 2519              	.LBE45:
 2520              	.LBE39:
 2521              	.LBB47:
 2522              	.LBB48:
 2523              		.loc 1 580 0
 2524 0d1e 7E22     		mov	r2, #126
 2525 0d20 5423     		mov	r3, #84
 2526 0d22 0124     		mov	r4, #1
 2527              	.LVL105:
 2528 0d24 0120     		mov	r0, #1
 2529              	.LVL106:
 2530 0d26 1021     		mov	r1, #16
 2531 0d28 0094     		str	r4, [sp]
 2532 0d2a FFF7FEFF 		bl	lcdRect
 2533              		.loc 1 581 0
 2534 0d2e 1220     		mov	r0, #18
 2535 0d30 1421     		mov	r1, #20
 2536 0d32 FFF7FEFF 		bl	lcdGotoxy
 2537              		.loc 1 582 0
 2538 0d36 FD21     		mov	r1, #253
 2539 0d38 0120     		mov	r0, #1
 2540 0d3a FFF7FEFF 		bl	lcdColor
 2541              		.loc 1 583 0
 2542 0d3e 9B48     		ldr	r0, .L385+4
 2543 0d40 FFF7FEFF 		bl	lcdPuts
 2544              		.loc 1 584 0
 2545 0d44 2221     		mov	r1, #34
 2546 0d46 0620     		mov	r0, #6
ARM GAS  /cygdrive/c/Users/Zbyszko/AppData/Local/Temp/ccaXFopk.s 			page 70


 2547 0d48 FFF7FEFF 		bl	lcdGotoxy
 2548              		.loc 1 585 0
 2549 0d4c 9848     		ldr	r0, .L385+8
 2550 0d4e FFF7FEFF 		bl	lcdPuts
 2551              		.loc 1 586 0
 2552 0d52 3021     		mov	r1, #48
 2553 0d54 0620     		mov	r0, #6
 2554 0d56 FFF7FEFF 		bl	lcdGotoxy
 2555              		.loc 1 587 0
 2556 0d5a 9648     		ldr	r0, .L385+12
 2557 0d5c FFF7FEFF 		bl	lcdPuts
 2558              		.loc 1 588 0
 2559 0d60 3E21     		mov	r1, #62
 2560 0d62 0620     		mov	r0, #6
 2561 0d64 FFF7FEFF 		bl	lcdGotoxy
 2562              		.loc 1 589 0
 2563 0d68 9348     		ldr	r0, .L385+16
 2564 0d6a FFF7FEFF 		bl	lcdPuts
 2565              		.loc 1 592 0
 2566 0d6e 934B     		ldr	r3, .L385+20
 2567              		.loc 1 597 0
 2568 0d70 6420     		mov	r0, #100
 2569              		.loc 1 592 0
 2570 0d72 1C70     		strb	r4, [r3]
 2571              		.loc 1 597 0
 2572 0d74 FFF7FEFF 		bl	osSleep
 2573              		.loc 1 598 0
 2574 0d78 9148     		ldr	r0, .L385+24
 2575 0d7a FFF7FEFF 		bl	uart1SendString
 2576              		.loc 1 599 0
 2577 0d7e 6420     		mov	r0, #100
 2578 0d80 FFF7FEFF 		bl	osSleep
 2579              		.loc 1 600 0
 2580 0d84 8F48     		ldr	r0, .L385+28
 2581 0d86 FFF7FEFF 		bl	uart1SendString
 2582              		.loc 1 605 0
 2583 0d8a 8F4B     		ldr	r3, .L385+32
 2584 0d8c 1E68     		ldr	r6, [r3]
 2585              	.LVL107:
 2586 0d8e 34E0     		b	.L378
 2587              	.LVL108:
 2588              	.L268:
 2589              	.LBE48:
 2590              		.loc 1 611 0
 2591 0d90 22AC     		add	r4, sp, #136
 2592 0d92 201C     		mov	r0, r4
 2593 0d94 FFF7FEFF 		bl	uart1GetChar
 2594              	.LBB49:
 2595 0d98 0128     		cmp	r0, #1
 2596 0d9a 2FD1     		bne	.L379
 2597              		.loc 1 613 0
 2598 0d9c 8B48     		ldr	r0, .L385+36
 2599 0d9e 2178     		ldrb	r1, [r4]
 2600 0da0 FFF7FEFF 		bl	simplePrintf
 2601              		.loc 1 615 0
 2602 0da4 2078     		ldrb	r0, [r4]
 2603 0da6 0A28     		cmp	r0, #10
ARM GAS  /cygdrive/c/Users/Zbyszko/AppData/Local/Temp/ccaXFopk.s 			page 71


 2604 0da8 1ED1     		bne	.L270
 2605              		.loc 1 617 0
 2606 0daa 002D     		cmp	r5, #0
 2607 0dac 04D0     		beq	.L272
 2608              		.loc 1 618 0
 2609 0dae 25A8     		add	r0, sp, #148
 2610 0db0 4319     		add	r3, r0, r5
 2611 0db2 3E3B     		sub	r3, r3, #62
 2612 0db4 0022     		mov	r2, #0
 2613 0db6 1A70     		strb	r2, [r3]
 2614              	.L272:
 2615              	.LBE49:
 2616              		.loc 1 621 0
 2617 0db8 6846     		mov	r0, sp
 2618 0dba 8549     		ldr	r1, .L385+40
 2619 0dbc 5730     		add	r0, r0, #87
 2620 0dbe 0822     		mov	r2, #8
 2621 0dc0 FFF7FEFF 		bl	memcmp
 2622 0dc4 0028     		cmp	r0, #0
 2623 0dc6 18D1     		bne	.L378
 2624              	.LBB50:
 2625 0dc8 152D     		cmp	r5, #21
 2626 0dca 16D1     		bne	.L378
 2627 0dcc 814A     		ldr	r2, .L385+44
 2628 0dce 0821     		mov	r1, #8
 2629 0dd0 101C     		mov	r0, r2
 2630              	.L277:
 2631              		.loc 1 625 0
 2632 0dd2 6B46     		mov	r3, sp
 2633 0dd4 5733     		add	r3, r3, #87
 2634 0dd6 CB5C     		ldrb	r3, [r1, r3]
 2635 0dd8 0131     		add	r1, r1, #1
 2636 0dda 1370     		strb	r3, [r2]
 2637 0ddc 0132     		add	r2, r2, #1
 2638              		.loc 1 624 0
 2639 0dde 1429     		cmp	r1, #20
 2640 0de0 F7D1     		bne	.L277
 2641              		.loc 1 626 0
 2642 0de2 0023     		mov	r3, #0
 2643 0de4 0373     		strb	r3, [r0, #12]
 2644 0de6 0EE0     		b	.L279
 2645              	.L270:
 2646              		.loc 1 631 0
 2647 0de8 1F2D     		cmp	r5, #31
 2648 0dea 07D8     		bhi	.L379
 2649              		.loc 1 632 0
 2650 0dec 6B46     		mov	r3, sp
 2651 0dee 5733     		add	r3, r3, #87
 2652 0df0 5855     		strb	r0, [r3, r5]
 2653 0df2 6B1C     		add	r3, r5, #1
 2654 0df4 1B06     		lsl	r3, r3, #24
 2655 0df6 1D0E     		lsr	r5, r3, #24
 2656 0df8 00E0     		b	.L379
 2657              	.LVL109:
 2658              	.L378:
 2659 0dfa 0025     		mov	r5, #0
 2660              	.LVL110:
ARM GAS  /cygdrive/c/Users/Zbyszko/AppData/Local/Temp/ccaXFopk.s 			page 72


 2661              	.L379:
 2662              		.loc 1 608 0
 2663 0dfc 724B     		ldr	r3, .L385+32
 2664 0dfe 1B68     		ldr	r3, [r3]
 2665 0e00 9B1B     		sub	r3, r3, r6
 2666 0e02 C72B     		cmp	r3, #199
 2667 0e04 C4D9     		bls	.L268
 2668              	.L279:
 2669              		.loc 1 637 0
 2670 0e06 6D4B     		ldr	r3, .L385+20
 2671 0e08 0022     		mov	r2, #0
 2672              		.loc 1 638 0
 2673 0e0a 6946     		mov	r1, sp
 2674              		.loc 1 637 0
 2675 0e0c 1A70     		strb	r2, [r3]
 2676              		.loc 1 638 0
 2677 0e0e 7248     		ldr	r0, .L385+48
 2678 0e10 9231     		add	r1, r1, #146
 2679 0e12 FFF7FEFF 		bl	osSemGive
 2680              		.loc 1 645 0
 2681 0e16 0020     		mov	r0, #0
 2682 0e18 FFF7F4F9 		bl	drawBtAddress
 2683 0e1c 0024     		mov	r4, #0
 2684              	.LVL111:
 2685              	.L281:
 2686              	.LBE50:
 2687              		.loc 1 648 0
 2688 0e1e FFF7FEFF 		bl	checkKey
 2689              	.LVL112:
 2690              	.LBB51:
 2691              		.loc 1 649 0
 2692 0e22 0028     		cmp	r0, #0
 2693 0e24 00D1     		bne	.LCB2634
 2694 0e26 A5E0     		b	.L282	@long jump
 2695              	.LCB2634:
 2696              		.loc 1 652 0
 2697 0e28 1028     		cmp	r0, #16
 2698 0e2a 3ED1     		bne	.L284
 2699              	.LBB52:
 2700              		.loc 1 656 0
 2701 0e2c 09A9     		add	r1, sp, #36
 2702 0e2e 0523     		mov	r3, #5
 2703 0e30 0B70     		strb	r3, [r1]
 2704              		.loc 1 657 0
 2705 0e32 2323     		mov	r3, #35
 2706 0e34 4B70     		strb	r3, [r1, #1]
 2707              		.loc 1 658 0
 2708 0e36 7623     		mov	r3, #118
 2709 0e38 8B70     		strb	r3, [r1, #2]
 2710              		.loc 1 659 0
 2711 0e3a 2F23     		mov	r3, #47
 2712 0e3c CB70     		strb	r3, [r1, #3]
 2713              		.loc 1 660 0
 2714 0e3e 0223     		mov	r3, #2
 2715 0e40 0B71     		strb	r3, [r1, #4]
 2716              		.loc 1 663 0
 2717 0e42 3223     		mov	r3, #50
ARM GAS  /cygdrive/c/Users/Zbyszko/AppData/Local/Temp/ccaXFopk.s 			page 73


 2718 0e44 0B73     		strb	r3, [r1, #12]
 2719              		.loc 1 664 0
 2720 0e46 654B     		ldr	r3, .L385+52
 2721 0e48 0D93     		str	r3, [sp, #52]
 2722              		.loc 1 665 0
 2723 0e4a 654B     		ldr	r3, .L385+56
 2724              		.loc 1 661 0
 2725 0e4c 0020     		mov	r0, #0
 2726              	.LVL113:
 2727              		.loc 1 665 0
 2728 0e4e 0E93     		str	r3, [sp, #56]
 2729              		.loc 1 666 0
 2730 0e50 13AB     		add	r3, sp, #76
 2731              		.loc 1 661 0
 2732 0e52 4871     		strb	r0, [r1, #5]
 2733              		.loc 1 666 0
 2734 0e54 1870     		strb	r0, [r3]
 2735              		.loc 1 667 0
 2736 0e56 6D21     		mov	r1, #109
 2737 0e58 0133     		add	r3, r3, #1
 2738 0e5a 1970     		strb	r1, [r3]
 2739              		.loc 1 668 0
 2740 0e5c 0133     		add	r3, r3, #1
 2741 0e5e 1870     		strb	r0, [r3]
 2742              		.loc 1 669 0
 2743 0e60 6946     		mov	r1, sp
 2744 0e62 0323     		mov	r3, #3
 2745 0e64 5B42     		neg	r3, r3
 2746 0e66 4F31     		add	r1, r1, #79
 2747 0e68 0B70     		strb	r3, [r1]
 2748              		.loc 1 662 0
 2749 0e6a 5E4A     		ldr	r2, .L385+60
 2750              		.loc 1 670 0
 2751 0e6c 2023     		mov	r3, #32
 2752 0e6e 5B42     		neg	r3, r3
 2753 0e70 14A9     		add	r1, sp, #80
 2754 0e72 0B70     		strb	r3, [r1]
 2755              		.loc 1 662 0
 2756 0e74 0B92     		str	r2, [sp, #44]
 2757              	.LBE52:
 2758              	.LBE51:
 2759              		.loc 1 672 0
 2760 0e76 0DAB     		add	r3, sp, #52
 2761 0e78 6946     		mov	r1, sp
 2762 0e7a 31CB     		ldmia	r3!, {r0, r4, r5}
 2763 0e7c 31C1     		stmia	r1!, {r0, r4, r5}
 2764              	.LVL114:
 2765 0e7e 31CB     		ldmia	r3!, {r0, r4, r5}
 2766 0e80 31C1     		stmia	r1!, {r0, r4, r5}
 2767 0e82 30CB     		ldmia	r3!, {r4, r5}
 2768 0e84 30C1     		stmia	r1!, {r4, r5}
 2769 0e86 0998     		ldr	r0, [sp, #36]
 2770 0e88 0A99     		ldr	r1, [sp, #40]
 2771 0e8a 0C9B     		ldr	r3, [sp, #48]
 2772 0e8c FFF7FEFF 		bl	drawMenu
 2773              	.LBB53:
 2774              	.LBB54:
ARM GAS  /cygdrive/c/Users/Zbyszko/AppData/Local/Temp/ccaXFopk.s 			page 74


 2775 0e90 0128     		cmp	r0, #1
 2776 0e92 00D0     		beq	.LCB2713
 2777 0e94 38E7     		b	.L246	@long jump
 2778              	.LCB2713:
 2779              		.loc 1 679 0
 2780 0e96 5448     		ldr	r0, .L385+64
 2781 0e98 FFF7FEFF 		bl	uart1SendString
 2782              		.loc 1 680 0
 2783 0e9c 4D48     		ldr	r0, .L385+44
 2784 0e9e FFF7FEFF 		bl	uart1SendString
 2785              		.loc 1 681 0
 2786 0ea2 5248     		ldr	r0, .L385+68
 2787              	.LVL115:
 2788              	.L374:
 2789 0ea4 FFF7FEFF 		bl	uart1SendString
 2790 0ea8 2EE7     		b	.L246
 2791              	.LVL116:
 2792              	.L284:
 2793              	.LBE54:
 2794              		.loc 1 690 0
 2795 0eaa 0128     		cmp	r0, #1
 2796 0eac 10D1     		bne	.L289
 2797              		.loc 1 692 0
 2798 0eae 494A     		ldr	r2, .L385+44
 2799 0eb0 135D     		ldrb	r3, [r2, r4]
 2800 0eb2 0133     		add	r3, r3, #1
 2801 0eb4 1B06     		lsl	r3, r3, #24
 2802 0eb6 1B0E     		lsr	r3, r3, #24
 2803 0eb8 1355     		strb	r3, [r2, r4]
 2804              		.loc 1 693 0
 2805 0eba 462B     		cmp	r3, #70
 2806 0ebc 01D9     		bls	.L291
 2807              		.loc 1 694 0
 2808 0ebe 3023     		mov	r3, #48
 2809 0ec0 18E0     		b	.L364
 2810              	.L291:
 2811              		.loc 1 695 0
 2812 0ec2 3A3B     		sub	r3, r3, #58
 2813 0ec4 1B06     		lsl	r3, r3, #24
 2814 0ec6 1B0E     		lsr	r3, r3, #24
 2815 0ec8 062B     		cmp	r3, #6
 2816 0eca 22D8     		bhi	.L306
 2817              		.loc 1 696 0
 2818 0ecc 4123     		mov	r3, #65
 2819 0ece 11E0     		b	.L364
 2820              	.L289:
 2821              		.loc 1 701 0
 2822 0ed0 0428     		cmp	r0, #4
 2823 0ed2 11D1     		bne	.L295
 2824              		.loc 1 703 0
 2825 0ed4 3F4A     		ldr	r2, .L385+44
 2826 0ed6 135D     		ldrb	r3, [r2, r4]
 2827 0ed8 013B     		sub	r3, r3, #1
 2828 0eda 1B06     		lsl	r3, r3, #24
 2829 0edc 1B0E     		lsr	r3, r3, #24
 2830 0ede 1355     		strb	r3, [r2, r4]
 2831              		.loc 1 704 0
ARM GAS  /cygdrive/c/Users/Zbyszko/AppData/Local/Temp/ccaXFopk.s 			page 75


 2832 0ee0 2F2B     		cmp	r3, #47
 2833 0ee2 01D8     		bhi	.L297
 2834              		.loc 1 705 0
 2835 0ee4 4623     		mov	r3, #70
 2836 0ee6 05E0     		b	.L364
 2837              	.L297:
 2838              		.loc 1 706 0
 2839 0ee8 3A3B     		sub	r3, r3, #58
 2840 0eea 1B06     		lsl	r3, r3, #24
 2841 0eec 1B0E     		lsr	r3, r3, #24
 2842 0eee 062B     		cmp	r3, #6
 2843 0ef0 0FD8     		bhi	.L306
 2844              		.loc 1 707 0
 2845 0ef2 3923     		mov	r3, #57
 2846              	.L364:
 2847 0ef4 1355     		strb	r3, [r2, r4]
 2848 0ef6 0CE0     		b	.L306
 2849              	.L295:
 2850              		.loc 1 712 0
 2851 0ef8 0828     		cmp	r0, #8
 2852 0efa 03D1     		bne	.L301
 2853              		.loc 1 714 0
 2854 0efc 002C     		cmp	r4, #0
 2855 0efe 08D0     		beq	.L306
 2856              		.loc 1 715 0
 2857 0f00 631E     		sub	r3, r4, #1
 2858 0f02 04E0     		b	.L373
 2859              	.L301:
 2860              		.loc 1 720 0
 2861 0f04 0228     		cmp	r0, #2
 2862 0f06 35D1     		bne	.L282
 2863              		.loc 1 722 0
 2864 0f08 0A2C     		cmp	r4, #10
 2865 0f0a 02D8     		bhi	.L306
 2866              		.loc 1 723 0
 2867 0f0c 631C     		add	r3, r4, #1
 2868              	.L373:
 2869 0f0e 1B06     		lsl	r3, r3, #24
 2870 0f10 1C0E     		lsr	r4, r3, #24
 2871              	.L306:
 2872              		.loc 1 724 0
 2873 0f12 201C     		mov	r0, r4
 2874              	.LVL117:
 2875 0f14 FFF776F9 		bl	drawBtAddress
 2876 0f18 2CE0     		b	.L282
 2877              	.LVL118:
 2878              	.L134:
 2879              	.LBE53:
 2880              	.LBE47:
 2881              		.loc 1 1187 0
 2882 0f1a FFF7A7F9 		bl	btMode
 2883              	.LVL119:
 2884 0f1e 32E0     		b	.L222
 2885              	.LVL120:
 2886              	.L135:
 2887              		.loc 1 1188 0
 2888 0f20 FFF75CFA 		bl	btActiveSleep
ARM GAS  /cygdrive/c/Users/Zbyszko/AppData/Local/Temp/ccaXFopk.s 			page 76


 2889              	.LVL121:
 2890 0f24 2FE0     		b	.L222
 2891              	.LVL122:
 2892              	.L128:
 2893              		.loc 1 1196 0
 2894 0f26 0128     		cmp	r0, #1
 2895 0f28 07D1     		bne	.L308
 2896              		.loc 1 1198 0
 2897 0f2a 314A     		ldr	r2, .L385+72
 2898 0f2c 1378     		ldrb	r3, [r2]
 2899 0f2e 002B     		cmp	r3, #0
 2900 0f30 01D0     		beq	.L310
 2901              		.loc 1 1199 0
 2902 0f32 013B     		sub	r3, r3, #1
 2903 0f34 0AE0     		b	.L366
 2904              	.L310:
 2905              		.loc 1 1201 0
 2906 0f36 0523     		mov	r3, #5
 2907 0f38 08E0     		b	.L366
 2908              	.L308:
 2909              		.loc 1 1206 0
 2910 0f3a 0428     		cmp	r0, #4
 2911 0f3c 25D1     		bne	.L359
 2912              		.loc 1 1208 0
 2913 0f3e 2C4A     		ldr	r2, .L385+72
 2914 0f40 1378     		ldrb	r3, [r2]
 2915 0f42 042B     		cmp	r3, #4
 2916 0f44 01D8     		bhi	.L314
 2917              		.loc 1 1209 0
 2918 0f46 0133     		add	r3, r3, #1
 2919 0f48 00E0     		b	.L366
 2920              	.L314:
 2921              		.loc 1 1211 0
 2922 0f4a 0023     		mov	r3, #0
 2923              	.L366:
 2924 0f4c 1370     		strb	r3, [r2]
 2925              		.loc 1 1212 0
 2926 0f4e 284B     		ldr	r3, .L385+72
 2927 0f50 1878     		ldrb	r0, [r3]
 2928              	.LVL123:
 2929 0f52 FFF79FF8 		bl	drawBtMenuCursor
 2930 0f56 18E0     		b	.L359
 2931              	.LVL124:
 2932              	.L171:
 2933              	.LBB55:
 2934              	.LBB56:
 2935              		.loc 1 386 0
 2936 0f58 0120     		mov	r0, #1
 2937              	.LVL125:
 2938 0f5a FFF7FEFF 		bl	osSleep
 2939              		.loc 1 394 0
 2940 0f5e 254B     		ldr	r3, .L385+76
 2941 0f60 6201     		lsl	r2, r4, #5
 2942 0f62 D35C     		ldrb	r3, [r2, r3]
 2943 0f64 012B     		cmp	r3, #1
 2944 0f66 00D0     		beq	.LCB2931
 2945 0f68 57E5     		b	.L221	@long jump
ARM GAS  /cygdrive/c/Users/Zbyszko/AppData/Local/Temp/ccaXFopk.s 			page 77


 2946              	.LCB2931:
 2947 0f6a 0EE4     		b	.L182
 2948              	.LVL126:
 2949              	.L242:
 2950              	.LBE56:
 2951              	.LBE55:
 2952              	.LBB57:
 2953              	.LBB58:
 2954              		.loc 1 944 0
 2955 0f6c 0120     		mov	r0, #1
 2956              	.LVL127:
 2957 0f6e FFF7FEFF 		bl	osSleep
 2958 0f72 0AE6     		b	.L241
 2959              	.LVL128:
 2960              	.L282:
 2961              	.LBE58:
 2962              	.LBE57:
 2963              	.LBB59:
 2964              	.LBB60:
 2965              		.loc 1 727 0
 2966 0f74 0120     		mov	r0, #1
 2967              	.LVL129:
 2968 0f76 FFF7FEFF 		bl	osSleep
 2969 0f7a 50E7     		b	.L281
 2970              	.LVL130:
 2971              	.L348:
 2972              	.LBE60:
 2973              	.LBE59:
 2974              	.LBB61:
 2975              	.LBB62:
 2976              		.loc 1 834 0
 2977 0f7c 6B46     		mov	r3, sp
 2978 0f7e 0022     		mov	r2, #0
 2979 0f80 9233     		add	r3, r3, #146
 2980 0f82 1A70     		strb	r2, [r3]
 2981 0f84 F6E5     		b	.L240
 2982              	.LVL131:
 2983              	.L222:
 2984              	.LBE62:
 2985              	.LBE61:
 2986              		.loc 1 1192 0
 2987 0f86 FFF795FA 		bl	drawBtMenu
 2988              	.LVL132:
 2989              	.L359:
 2990              		.loc 1 1215 0
 2991 0f8a 0120     		mov	r0, #1
 2992              	.LVL133:
 2993 0f8c FFF7FEFF 		bl	osSleep
 2994 0f90 FFF7F6FA 		bl	.L353	@ far jump
 2995              	.LVL134:
 2996              	.L136:
 2997              		.loc 1 1192 0
 2998 0f94 FFF78EFA 		bl	drawBtMenu
 2999              	.LVL135:
 3000              		.loc 1 1215 0
 3001 0f98 0120     		mov	r0, #1
 3002 0f9a FFF7FEFF 		bl	osSleep
ARM GAS  /cygdrive/c/Users/Zbyszko/AppData/Local/Temp/ccaXFopk.s 			page 78


 3003              	.LBE19:
 3004              		.loc 1 1217 0
 3005 0f9e 25B0     		add	sp, sp, #148
 3006              		@ sp needed for prologue
 3007              	.LVL136:
 3008              	.LVL137:
 3009              	.LVL138:
 3010              	.LVL139:
 3011 0fa0 F0BC     		pop	{r4, r5, r6, r7}
 3012 0fa2 01BC     		pop	{r0}
 3013 0fa4 0047     		bx	r0
 3014              	.L386:
 3015 0fa6 0000     		.align	2
 3016              	.L385:
 3017 0fa8 01000000 		.word	btCommandMode
 3018 0fac D8020000 		.word	.LC164
 3019 0fb0 54020000 		.word	.LC141
 3020 0fb4 64020000 		.word	.LC143
 3021 0fb8 74020000 		.word	.LC145
 3022 0fbc 00000000 		.word	stopRecvProc
 3023 0fc0 00000000 		.word	.LC1
 3024 0fc4 E8020000 		.word	.LC166
 3025 0fc8 00000000 		.word	ms
 3026 0fcc 78010000 		.word	.LC87
 3027 0fd0 F4020000 		.word	.LC168
 3028 0fd4 55030000 		.word	btAddress
 3029 0fd8 28030000 		.word	recvSem
 3030 0fdc A4020000 		.word	.LC154
 3031 0fe0 00030000 		.word	.LC171
 3032 0fe4 9C020000 		.word	.LC152
 3033 0fe8 10030000 		.word	.LC173
 3034 0fec C8010000 		.word	.LC109
 3035 0ff0 02000000 		.word	btCursor
 3036 0ff4 64030000 		.word	foundBtUnits
 3037              	.LFE16:
 3038              		.size	handleBt, .-handleBt
 3039              		.align	2
 3040              		.global	initBtProc
 3041              		.code 16
 3042              		.thumb_func
 3043              		.type	initBtProc, %function
 3044              	initBtProc:
 3045              	.LFB2:
 3046              		.loc 1 90 0
 3047 0ff8 30B5     		push	{r4, r5, lr}
 3048              	.LCFI18:
 3049 0ffa 84B0     		sub	sp, sp, #16
 3050              	.LCFI19:
 3051              		.loc 1 93 0
 3052 0ffc 0D48     		ldr	r0, .L389
 3053 0ffe 0121     		mov	r1, #1
 3054 1000 FFF7FEFF 		bl	osSemInit
 3055              		.loc 1 95 0
 3056 1004 0C4D     		ldr	r5, .L389+4
 3057 1006 0423     		mov	r3, #4
 3058 1008 0093     		str	r3, [sp]
 3059 100a 6C46     		mov	r4, sp
ARM GAS  /cygdrive/c/Users/Zbyszko/AppData/Local/Temp/ccaXFopk.s 			page 79


 3060 100c 0023     		mov	r3, #0
 3061 100e C822     		mov	r2, #200
 3062 1010 9200     		lsl	r2, r2, #2
 3063 1012 0193     		str	r3, [sp, #4]
 3064 1014 0F34     		add	r4, r4, #15
 3065 1016 2B1C     		mov	r3, r5
 3066 1018 0848     		ldr	r0, .L389+8
 3067 101a 0949     		ldr	r1, .L389+12
 3068 101c 0294     		str	r4, [sp, #8]
 3069 101e FFF7FEFF 		bl	osCreateProcess
 3070              		.loc 1 96 0
 3071 1022 2878     		ldrb	r0, [r5]
 3072 1024 211C     		mov	r1, r4
 3073 1026 FFF7FEFF 		bl	osStartProcess
 3074              		.loc 1 97 0
 3075 102a 04B0     		add	sp, sp, #16
 3076              		@ sp needed for prologue
 3077 102c 30BC     		pop	{r4, r5}
 3078 102e 01BC     		pop	{r0}
 3079 1030 0047     		bx	r0
 3080              	.L390:
 3081 1032 0000     		.align	2
 3082              	.L389:
 3083 1034 28030000 		.word	recvSem
 3084 1038 24030000 		.word	pidBt
 3085 103c 00000000 		.word	procBt
 3086 1040 04000000 		.word	procBtStack
 3087              	.LFE2:
 3088              		.size	initBtProc, .-initBtProc
 3089              		.section	.rodata.str1.4
 3090              		.align	2
 3091              	.LC182:
 3092 031c 4154490D 		.ascii	"ATI\015\000"
 3092      00
 3093 0321 000000   		.align	2
 3094              	.LC186:
 3095 0324 41542B42 		.ascii	"AT+BTINQ=5\015\000"
 3095      54494E51 
 3095      3D350D00 
 3096              		.text
 3097              		.align	2
 3098              		.code 16
 3099              		.thumb_func
 3100              		.type	procBt, %function
 3101              	procBt:
 3102              	.LFB3:
 3103              		.loc 1 111 0
 3104 1044 30B5     		push	{r4, r5, lr}
 3105              	.LCFI20:
 3106              	.LVL140:
 3107 1046 81B0     		sub	sp, sp, #4
 3108              	.LCFI21:
 3109              		.loc 1 115 0
 3110 1048 0120     		mov	r0, #1
 3111              	.LVL141:
 3112 104a FFF7FEFF 		bl	resetBT
 3113              		.loc 1 116 0
ARM GAS  /cygdrive/c/Users/Zbyszko/AppData/Local/Temp/ccaXFopk.s 			page 80


 3114 104e 0220     		mov	r0, #2
 3115 1050 FFF7FEFF 		bl	osSleep
 3116              		.loc 1 117 0
 3117 1054 0020     		mov	r0, #0
 3118 1056 FFF7FEFF 		bl	resetBT
 3119              		.loc 1 118 0
 3120 105a 0520     		mov	r0, #5
 3121 105c FFF7FEFF 		bl	osSleep
 3122              		.loc 1 121 0
 3123 1060 3220     		mov	r0, #50
 3124 1062 FFF7FEFF 		bl	osSleep
 3125              		.loc 1 124 0
 3126 1066 0321     		mov	r1, #3
 3127 1068 C122     		mov	r2, #193
 3128 106a 0820     		mov	r0, #8
 3129 106c FFF7FEFF 		bl	initUart1
 3130              		.loc 1 130 0
 3131 1070 3220     		mov	r0, #50
 3132 1072 FFF7FEFF 		bl	osSleep
 3133              		.loc 1 131 0
 3134 1076 2748     		ldr	r0, .L409
 3135 1078 FFF7FEFF 		bl	uart1SendString
 3136              		.loc 1 132 0
 3137 107c 3220     		mov	r0, #50
 3138 107e FFF7FEFF 		bl	osSleep
 3139              		.loc 1 133 0
 3140 1082 2548     		ldr	r0, .L409+4
 3141 1084 FFF7FEFF 		bl	uart1SendString
 3142              		.loc 1 134 0
 3143 1088 3220     		mov	r0, #50
 3144 108a FFF7FEFF 		bl	osSleep
 3145              		.loc 1 135 0
 3146 108e 2348     		ldr	r0, .L409+8
 3147 1090 FFF7FEFF 		bl	uart1SendString
 3148              		.loc 1 137 0
 3149 1094 6420     		mov	r0, #100
 3150 1096 FFF7FEFF 		bl	osSleep
 3151              		.loc 1 138 0
 3152 109a 2148     		ldr	r0, .L409+12
 3153 109c FFF7FEFF 		bl	uart1SendString
 3154              		.loc 1 139 0
 3155 10a0 6420     		mov	r0, #100
 3156 10a2 FFF7FEFF 		bl	osSleep
 3157              		.loc 1 140 0
 3158 10a6 1F48     		ldr	r0, .L409+16
 3159 10a8 FFF7FEFF 		bl	uart1SendString
 3160              		.loc 1 141 0
 3161 10ac 9620     		mov	r0, #150
 3162 10ae 8000     		lsl	r0, r0, #2
 3163 10b0 FFF7FEFF 		bl	osSleep
 3164              		.loc 1 145 0
 3165 10b4 1C48     		ldr	r0, .L409+20
 3166 10b6 FFF7FEFF 		bl	uart1SendString
 3167              	.LVL142:
 3168              	.L392:
 3169              		.loc 1 153 0
 3170 10ba 6A46     		mov	r2, sp
ARM GAS  /cygdrive/c/Users/Zbyszko/AppData/Local/Temp/ccaXFopk.s 			page 81


 3171 10bc 0021     		mov	r1, #0
 3172 10be 0332     		add	r2, r2, #3
 3173 10c0 1A48     		ldr	r0, .L409+24
 3174 10c2 FFF7FEFF 		bl	osSemTake
 3175 10c6 1DE0     		b	.L408
 3176              	.L394:
 3177              	.LBB63:
 3178              		.loc 1 164 0
 3179 10c8 6C46     		mov	r4, sp
 3180 10ca 0234     		add	r4, r4, #2
 3181 10cc 201C     		mov	r0, r4
 3182 10ce FFF7FEFF 		bl	consolGetChar
 3183 10d2 0128     		cmp	r0, #1
 3184 10d4 01D0     		beq	.L395
 3185 10d6 0125     		mov	r5, #1
 3186 10d8 03E0     		b	.L397
 3187              	.L395:
 3188              		.loc 1 166 0
 3189 10da 2078     		ldrb	r0, [r4]
 3190 10dc FFF7FEFF 		bl	uart1SendChar
 3191 10e0 0025     		mov	r5, #0
 3192              	.L397:
 3193              		.loc 1 171 0
 3194 10e2 6C46     		mov	r4, sp
 3195 10e4 0234     		add	r4, r4, #2
 3196 10e6 201C     		mov	r0, r4
 3197 10e8 FFF7FEFF 		bl	uart1GetChar
 3198 10ec 0128     		cmp	r0, #1
 3199 10ee 04D1     		bne	.L398
 3200              		.loc 1 173 0
 3201 10f0 0F48     		ldr	r0, .L409+28
 3202 10f2 2178     		ldrb	r1, [r4]
 3203 10f4 FFF7FEFF 		bl	simplePrintf
 3204 10f8 04E0     		b	.L408
 3205              	.L398:
 3206              		.loc 1 177 0
 3207 10fa 012D     		cmp	r5, #1
 3208 10fc 02D1     		bne	.L408
 3209              		.loc 1 178 0
 3210 10fe 0120     		mov	r0, #1
 3211 1100 FFF7FEFF 		bl	osSleep
 3212              	.L408:
 3213              	.LBE63:
 3214              		.loc 1 155 0
 3215 1104 0B4A     		ldr	r2, .L409+32
 3216 1106 1378     		ldrb	r3, [r2]
 3217 1108 002B     		cmp	r3, #0
 3218 110a DDD0     		beq	.L394
 3219              		.loc 1 180 0
 3220 110c 0023     		mov	r3, #0
 3221 110e 1370     		strb	r3, [r2]
 3222 1110 D3E7     		b	.L392
 3223              	.L410:
 3224 1112 0000     		.align	2
 3225              	.L409:
 3226 1114 00000000 		.word	.LC1
 3227 1118 1C030000 		.word	.LC182
ARM GAS  /cygdrive/c/Users/Zbyszko/AppData/Local/Temp/ccaXFopk.s 			page 82


 3228 111c 84020000 		.word	.LC147
 3229 1120 E8020000 		.word	.LC166
 3230 1124 24030000 		.word	.LC186
 3231 1128 04000000 		.word	.LC3
 3232 112c 28030000 		.word	recvSem
 3233 1130 78010000 		.word	.LC87
 3234 1134 00000000 		.word	stopRecvProc
 3235              	.LFE3:
 3236              		.size	procBt, .-procBt
 3237              		.bss
 3238              	stopRecvProc:
 3239 0000 00       		.space	1
 3240              	btCommandMode:
 3241 0001 00       		.space	1
 3242              	btCursor:
 3243 0002 00       		.space	1
 3244              	btSleepState:
 3245 0003 00       		.space	1
 3246              	procBtStack:
 3247 0004 00000000 		.space	800
 3247      00000000 
 3247      00000000 
 3247      00000000 
 3247      00000000 
 3248              	pidBt:
 3249 0324 00       		.space	1
 3250 0325 000000   		.align	2
 3251              	recvSem:
 3252 0328 00000000 		.space	28
 3252      00000000 
 3252      00000000 
 3252      00000000 
 3252      00000000 
 3253              	localName:
 3254 0344 00000000 		.space	17
 3254      00000000 
 3254      00000000 
 3254      00000000 
 3254      00
 3255              	btAddress:
 3256 0355 00000000 		.space	13
 3256      00000000 
 3256      00000000 
 3256      00
 3257 0362 0000     		.align	2
 3258              	foundBtUnits:
 3259 0364 00000000 		.space	160
 3259      00000000 
 3259      00000000 
 3259      00000000 
 3259      00000000 
 3260              		.comm	ver1_0,1,1
 3261              		.comm	ver1_1,1,1
 3262              		.section	.debug_frame,"",%progbits
 3263              	.Lframe0:
 3264 0000 0C000000 		.4byte	.LECIE0-.LSCIE0
 3265              	.LSCIE0:
ARM GAS  /cygdrive/c/Users/Zbyszko/AppData/Local/Temp/ccaXFopk.s 			page 83


 3266 0004 FFFFFFFF 		.4byte	0xffffffff
 3267 0008 01       		.byte	0x1
 3268 0009 00       		.ascii	"\000"
 3269 000a 01       		.uleb128 0x1
 3270 000b 7C       		.sleb128 -4
 3271 000c 0E       		.byte	0xe
 3272 000d 0C       		.byte	0xc
 3273 000e 0D       		.uleb128 0xd
 3274 000f 00       		.uleb128 0x0
 3275              		.align	2
 3276              	.LECIE0:
 3277              	.LSFDE0:
 3278 0010 14000000 		.4byte	.LEFDE0-.LASFDE0
 3279              	.LASFDE0:
 3280 0014 00000000 		.4byte	.Lframe0
 3281 0018 00000000 		.4byte	.LFB17
 3282 001c 18000000 		.4byte	.LFE17-.LFB17
 3283 0020 42       		.byte	0x4
 3284              		.4byte	.LCFI0-.LFB17
 3285 0021 0E       		.byte	0xe
 3286 0022 04       		.uleb128 0x4
 3287 0023 8E       		.byte	0x8e
 3288 0024 01       		.uleb128 0x1
 3289 0025 000000   		.align	2
 3290              	.LEFDE0:
 3291              	.LSFDE2:
 3292 0028 14000000 		.4byte	.LEFDE2-.LASFDE2
 3293              	.LASFDE2:
 3294 002c 00000000 		.4byte	.Lframe0
 3295 0030 18000000 		.4byte	.LFB12
 3296 0034 48000000 		.4byte	.LFE12-.LFB12
 3297 0038 42       		.byte	0x4
 3298              		.4byte	.LCFI1-.LFB12
 3299 0039 0E       		.byte	0xe
 3300 003a 08       		.uleb128 0x8
 3301 003b 84       		.byte	0x84
 3302 003c 02       		.uleb128 0x2
 3303 003d 8E       		.byte	0x8e
 3304 003e 01       		.uleb128 0x1
 3305 003f 00       		.align	2
 3306              	.LEFDE2:
 3307              	.LSFDE4:
 3308 0040 14000000 		.4byte	.LEFDE4-.LASFDE4
 3309              	.LASFDE4:
 3310 0044 00000000 		.4byte	.Lframe0
 3311 0048 60000000 		.4byte	.LFB18
 3312 004c 34000000 		.4byte	.LFE18-.LFB18
 3313 0050 42       		.byte	0x4
 3314              		.4byte	.LCFI2-.LFB18
 3315 0051 0E       		.byte	0xe
 3316 0052 04       		.uleb128 0x4
 3317 0053 8E       		.byte	0x8e
 3318 0054 01       		.uleb128 0x1
 3319 0055 42       		.byte	0x4
 3320              		.4byte	.LCFI3-.LCFI2
 3321 0056 0E       		.byte	0xe
 3322 0057 08       		.uleb128 0x8
ARM GAS  /cygdrive/c/Users/Zbyszko/AppData/Local/Temp/ccaXFopk.s 			page 84


 3323              		.align	2
 3324              	.LEFDE4:
 3325              	.LSFDE6:
 3326 0058 14000000 		.4byte	.LEFDE6-.LASFDE6
 3327              	.LASFDE6:
 3328 005c 00000000 		.4byte	.Lframe0
 3329 0060 94000000 		.4byte	.LFB14
 3330 0064 B0000000 		.4byte	.LFE14-.LFB14
 3331 0068 42       		.byte	0x4
 3332              		.4byte	.LCFI4-.LFB14
 3333 0069 0E       		.byte	0xe
 3334 006a 08       		.uleb128 0x8
 3335 006b 84       		.byte	0x84
 3336 006c 02       		.uleb128 0x2
 3337 006d 8E       		.byte	0x8e
 3338 006e 01       		.uleb128 0x1
 3339 006f 00       		.align	2
 3340              	.LEFDE6:
 3341              	.LSFDE8:
 3342 0070 1C000000 		.4byte	.LEFDE8-.LASFDE8
 3343              	.LASFDE8:
 3344 0074 00000000 		.4byte	.Lframe0
 3345 0078 44010000 		.4byte	.LFB5
 3346 007c 7C000000 		.4byte	.LFE5-.LFB5
 3347 0080 42       		.byte	0x4
 3348              		.4byte	.LCFI5-.LFB5
 3349 0081 0E       		.byte	0xe
 3350 0082 14       		.uleb128 0x14
 3351 0083 84       		.byte	0x84
 3352 0084 05       		.uleb128 0x5
 3353 0085 85       		.byte	0x85
 3354 0086 04       		.uleb128 0x4
 3355 0087 86       		.byte	0x86
 3356 0088 03       		.uleb128 0x3
 3357 0089 87       		.byte	0x87
 3358 008a 02       		.uleb128 0x2
 3359 008b 8E       		.byte	0x8e
 3360 008c 01       		.uleb128 0x1
 3361 008d 44       		.byte	0x4
 3362              		.4byte	.LCFI6-.LCFI5
 3363 008e 0E       		.byte	0xe
 3364 008f 18       		.uleb128 0x18
 3365              		.align	2
 3366              	.LEFDE8:
 3367              	.LSFDE10:
 3368 0090 18000000 		.4byte	.LEFDE10-.LASFDE10
 3369              	.LASFDE10:
 3370 0094 00000000 		.4byte	.Lframe0
 3371 0098 C0010000 		.4byte	.LFB9
 3372 009c 44000000 		.4byte	.LFE9-.LFB9
 3373 00a0 42       		.byte	0x4
 3374              		.4byte	.LCFI7-.LFB9
 3375 00a1 0E       		.byte	0xe
 3376 00a2 0C       		.uleb128 0xc
 3377 00a3 84       		.byte	0x84
 3378 00a4 03       		.uleb128 0x3
 3379 00a5 85       		.byte	0x85
ARM GAS  /cygdrive/c/Users/Zbyszko/AppData/Local/Temp/ccaXFopk.s 			page 85


 3380 00a6 02       		.uleb128 0x2
 3381 00a7 8E       		.byte	0x8e
 3382 00a8 01       		.uleb128 0x1
 3383 00a9 000000   		.align	2
 3384              	.LEFDE10:
 3385              	.LSFDE12:
 3386 00ac 18000000 		.4byte	.LEFDE12-.LASFDE12
 3387              	.LASFDE12:
 3388 00b0 00000000 		.4byte	.Lframe0
 3389 00b4 04020000 		.4byte	.LFB7
 3390 00b8 44000000 		.4byte	.LFE7-.LFB7
 3391 00bc 42       		.byte	0x4
 3392              		.4byte	.LCFI8-.LFB7
 3393 00bd 0E       		.byte	0xe
 3394 00be 0C       		.uleb128 0xc
 3395 00bf 84       		.byte	0x84
 3396 00c0 03       		.uleb128 0x3
 3397 00c1 85       		.byte	0x85
 3398 00c2 02       		.uleb128 0x2
 3399 00c3 8E       		.byte	0x8e
 3400 00c4 01       		.uleb128 0x1
 3401 00c5 000000   		.align	2
 3402              	.LEFDE12:
 3403              	.LSFDE14:
 3404 00c8 18000000 		.4byte	.LEFDE14-.LASFDE14
 3405              	.LASFDE14:
 3406 00cc 00000000 		.4byte	.Lframe0
 3407 00d0 48020000 		.4byte	.LFB4
 3408 00d4 22000000 		.4byte	.LFE4-.LFB4
 3409 00d8 42       		.byte	0x4
 3410              		.4byte	.LCFI9-.LFB4
 3411 00d9 0E       		.byte	0xe
 3412 00da 0C       		.uleb128 0xc
 3413 00db 84       		.byte	0x84
 3414 00dc 03       		.uleb128 0x3
 3415 00dd 85       		.byte	0x85
 3416 00de 02       		.uleb128 0x2
 3417 00df 8E       		.byte	0x8e
 3418 00e0 01       		.uleb128 0x1
 3419 00e1 000000   		.align	2
 3420              	.LEFDE14:
 3421              	.LSFDE16:
 3422 00e4 20000000 		.4byte	.LEFDE16-.LASFDE16
 3423              	.LASFDE16:
 3424 00e8 00000000 		.4byte	.Lframe0
 3425 00ec 6C020000 		.4byte	.LFB13
 3426 00f0 70010000 		.4byte	.LFE13-.LFB13
 3427 00f4 42       		.byte	0x4
 3428              		.4byte	.LCFI10-.LFB13
 3429 00f5 0E       		.byte	0xe
 3430 00f6 14       		.uleb128 0x14
 3431 00f7 84       		.byte	0x84
 3432 00f8 05       		.uleb128 0x5
 3433 00f9 85       		.byte	0x85
 3434 00fa 04       		.uleb128 0x4
 3435 00fb 86       		.byte	0x86
 3436 00fc 03       		.uleb128 0x3
ARM GAS  /cygdrive/c/Users/Zbyszko/AppData/Local/Temp/ccaXFopk.s 			page 86


 3437 00fd 87       		.byte	0x87
 3438 00fe 02       		.uleb128 0x2
 3439 00ff 8E       		.byte	0x8e
 3440 0100 01       		.uleb128 0x1
 3441 0101 42       		.byte	0x4
 3442              		.4byte	.LCFI11-.LCFI10
 3443 0102 0E       		.byte	0xe
 3444 0103 8C01     		.uleb128 0x8c
 3445 0105 000000   		.align	2
 3446              	.LEFDE16:
 3447              	.LSFDE18:
 3448 0108 1C000000 		.4byte	.LEFDE18-.LASFDE18
 3449              	.LASFDE18:
 3450 010c 00000000 		.4byte	.Lframe0
 3451 0110 DC030000 		.4byte	.LFB11
 3452 0114 D8000000 		.4byte	.LFE11-.LFB11
 3453 0118 42       		.byte	0x4
 3454              		.4byte	.LCFI12-.LFB11
 3455 0119 0E       		.byte	0xe
 3456 011a 14       		.uleb128 0x14
 3457 011b 84       		.byte	0x84
 3458 011c 05       		.uleb128 0x5
 3459 011d 85       		.byte	0x85
 3460 011e 04       		.uleb128 0x4
 3461 011f 86       		.byte	0x86
 3462 0120 03       		.uleb128 0x3
 3463 0121 87       		.byte	0x87
 3464 0122 02       		.uleb128 0x2
 3465 0123 8E       		.byte	0x8e
 3466 0124 01       		.uleb128 0x1
 3467 0125 42       		.byte	0x4
 3468              		.4byte	.LCFI13-.LCFI12
 3469 0126 0E       		.byte	0xe
 3470 0127 48       		.uleb128 0x48
 3471              		.align	2
 3472              	.LEFDE18:
 3473              	.LSFDE20:
 3474 0128 14000000 		.4byte	.LEFDE20-.LASFDE20
 3475              	.LASFDE20:
 3476 012c 00000000 		.4byte	.Lframe0
 3477 0130 B4040000 		.4byte	.LFB15
 3478 0134 C4000000 		.4byte	.LFE15-.LFB15
 3479 0138 42       		.byte	0x4
 3480              		.4byte	.LCFI14-.LFB15
 3481 0139 0E       		.byte	0xe
 3482 013a 04       		.uleb128 0x4
 3483 013b 8E       		.byte	0x8e
 3484 013c 01       		.uleb128 0x1
 3485 013d 42       		.byte	0x4
 3486              		.4byte	.LCFI15-.LCFI14
 3487 013e 0E       		.byte	0xe
 3488 013f 08       		.uleb128 0x8
 3489              		.align	2
 3490              	.LEFDE20:
 3491              	.LSFDE22:
 3492 0140 20000000 		.4byte	.LEFDE22-.LASFDE22
 3493              	.LASFDE22:
ARM GAS  /cygdrive/c/Users/Zbyszko/AppData/Local/Temp/ccaXFopk.s 			page 87


 3494 0144 00000000 		.4byte	.Lframe0
 3495 0148 78050000 		.4byte	.LFB16
 3496 014c 800A0000 		.4byte	.LFE16-.LFB16
 3497 0150 42       		.byte	0x4
 3498              		.4byte	.LCFI16-.LFB16
 3499 0151 0E       		.byte	0xe
 3500 0152 14       		.uleb128 0x14
 3501 0153 84       		.byte	0x84
 3502 0154 05       		.uleb128 0x5
 3503 0155 85       		.byte	0x85
 3504 0156 04       		.uleb128 0x4
 3505 0157 86       		.byte	0x86
 3506 0158 03       		.uleb128 0x3
 3507 0159 87       		.byte	0x87
 3508 015a 02       		.uleb128 0x2
 3509 015b 8E       		.byte	0x8e
 3510 015c 01       		.uleb128 0x1
 3511 015d 42       		.byte	0x4
 3512              		.4byte	.LCFI17-.LCFI16
 3513 015e 0E       		.byte	0xe
 3514 015f A801     		.uleb128 0xa8
 3515 0161 000000   		.align	2
 3516              	.LEFDE22:
 3517              	.LSFDE24:
 3518 0164 18000000 		.4byte	.LEFDE24-.LASFDE24
 3519              	.LASFDE24:
 3520 0168 00000000 		.4byte	.Lframe0
 3521 016c F80F0000 		.4byte	.LFB2
 3522 0170 4C000000 		.4byte	.LFE2-.LFB2
 3523 0174 42       		.byte	0x4
 3524              		.4byte	.LCFI18-.LFB2
 3525 0175 0E       		.byte	0xe
 3526 0176 0C       		.uleb128 0xc
 3527 0177 84       		.byte	0x84
 3528 0178 03       		.uleb128 0x3
 3529 0179 85       		.byte	0x85
 3530 017a 02       		.uleb128 0x2
 3531 017b 8E       		.byte	0x8e
 3532 017c 01       		.uleb128 0x1
 3533 017d 42       		.byte	0x4
 3534              		.4byte	.LCFI19-.LCFI18
 3535 017e 0E       		.byte	0xe
 3536 017f 1C       		.uleb128 0x1c
 3537              		.align	2
 3538              	.LEFDE24:
 3539              	.LSFDE26:
 3540 0180 18000000 		.4byte	.LEFDE26-.LASFDE26
 3541              	.LASFDE26:
 3542 0184 00000000 		.4byte	.Lframe0
 3543 0188 44100000 		.4byte	.LFB3
 3544 018c F4000000 		.4byte	.LFE3-.LFB3
 3545 0190 42       		.byte	0x4
 3546              		.4byte	.LCFI20-.LFB3
 3547 0191 0E       		.byte	0xe
 3548 0192 0C       		.uleb128 0xc
 3549 0193 84       		.byte	0x84
 3550 0194 03       		.uleb128 0x3
ARM GAS  /cygdrive/c/Users/Zbyszko/AppData/Local/Temp/ccaXFopk.s 			page 88


 3551 0195 85       		.byte	0x85
 3552 0196 02       		.uleb128 0x2
 3553 0197 8E       		.byte	0x8e
 3554 0198 01       		.uleb128 0x1
 3555 0199 42       		.byte	0x4
 3556              		.4byte	.LCFI21-.LCFI20
 3557 019a 0E       		.byte	0xe
 3558 019b 10       		.uleb128 0x10
 3559              		.align	2
 3560              	.LEFDE26:
 3561              		.file 2 "./startup/../pre_emptive_os/api/../api/general.h"
 3562              		.file 3 "select.h"
 3563              		.file 4 "./startup/../pre_emptive_os/api/osapi.h"
 3564              		.file 5 "hw.h"
 3565              		.text
 3566              	.Letext0:
 3567              		.section	.debug_loc,"",%progbits
 3568              	.Ldebug_loc0:
 3569              	.LLST0:
 3570 0000 00000000 		.4byte	.LFB17-.Ltext0
 3571 0004 02000000 		.4byte	.LCFI0-.Ltext0
 3572 0008 0100     		.2byte	0x1
 3573 000a 5D       		.byte	0x5d
 3574 000b 02000000 		.4byte	.LCFI0-.Ltext0
 3575 000f 18000000 		.4byte	.LFE17-.Ltext0
 3576 0013 0200     		.2byte	0x2
 3577 0015 7D       		.byte	0x7d
 3578 0016 04       		.sleb128 4
 3579 0017 00000000 		.4byte	0x0
 3580 001b 00000000 		.4byte	0x0
 3581              	.LLST1:
 3582 001f 18000000 		.4byte	.LFB12-.Ltext0
 3583 0023 1A000000 		.4byte	.LCFI1-.Ltext0
 3584 0027 0100     		.2byte	0x1
 3585 0029 5D       		.byte	0x5d
 3586 002a 1A000000 		.4byte	.LCFI1-.Ltext0
 3587 002e 60000000 		.4byte	.LFE12-.Ltext0
 3588 0032 0200     		.2byte	0x2
 3589 0034 7D       		.byte	0x7d
 3590 0035 08       		.sleb128 8
 3591 0036 00000000 		.4byte	0x0
 3592 003a 00000000 		.4byte	0x0
 3593              	.LLST2:
 3594 003e 1A000000 		.4byte	.LVL0-.Ltext0
 3595 0042 1C000000 		.4byte	.LVL1-.Ltext0
 3596 0046 0100     		.2byte	0x1
 3597 0048 50       		.byte	0x50
 3598 0049 1E000000 		.4byte	.LVL2-.Ltext0
 3599 004d 26000000 		.4byte	.LVL3-.Ltext0
 3600 0051 0100     		.2byte	0x1
 3601 0053 50       		.byte	0x50
 3602 0054 38000000 		.4byte	.LVL4-.Ltext0
 3603 0058 3A000000 		.4byte	.LVL5-.Ltext0
 3604 005c 0100     		.2byte	0x1
 3605 005e 50       		.byte	0x50
 3606 005f 00000000 		.4byte	0x0
 3607 0063 00000000 		.4byte	0x0
ARM GAS  /cygdrive/c/Users/Zbyszko/AppData/Local/Temp/ccaXFopk.s 			page 89


 3608              	.LLST3:
 3609 0067 60000000 		.4byte	.LFB18-.Ltext0
 3610 006b 62000000 		.4byte	.LCFI2-.Ltext0
 3611 006f 0100     		.2byte	0x1
 3612 0071 5D       		.byte	0x5d
 3613 0072 62000000 		.4byte	.LCFI2-.Ltext0
 3614 0076 64000000 		.4byte	.LCFI3-.Ltext0
 3615 007a 0200     		.2byte	0x2
 3616 007c 7D       		.byte	0x7d
 3617 007d 04       		.sleb128 4
 3618 007e 64000000 		.4byte	.LCFI3-.Ltext0
 3619 0082 94000000 		.4byte	.LFE18-.Ltext0
 3620 0086 0200     		.2byte	0x2
 3621 0088 7D       		.byte	0x7d
 3622 0089 08       		.sleb128 8
 3623 008a 00000000 		.4byte	0x0
 3624 008e 00000000 		.4byte	0x0
 3625              	.LLST4:
 3626 0092 94000000 		.4byte	.LFB14-.Ltext0
 3627 0096 96000000 		.4byte	.LCFI4-.Ltext0
 3628 009a 0100     		.2byte	0x1
 3629 009c 5D       		.byte	0x5d
 3630 009d 96000000 		.4byte	.LCFI4-.Ltext0
 3631 00a1 44010000 		.4byte	.LFE14-.Ltext0
 3632 00a5 0200     		.2byte	0x2
 3633 00a7 7D       		.byte	0x7d
 3634 00a8 08       		.sleb128 8
 3635 00a9 00000000 		.4byte	0x0
 3636 00ad 00000000 		.4byte	0x0
 3637              	.LLST5:
 3638 00b1 96000000 		.4byte	.LVL6-.Ltext0
 3639 00b5 A8000000 		.4byte	.LVL8-.Ltext0
 3640 00b9 0100     		.2byte	0x1
 3641 00bb 50       		.byte	0x50
 3642 00bc 00000000 		.4byte	0x0
 3643 00c0 00000000 		.4byte	0x0
 3644              	.LLST6:
 3645 00c4 98000000 		.4byte	.LVL7-.Ltext0
 3646 00c8 0E010000 		.4byte	.LVL9-.Ltext0
 3647 00cc 0100     		.2byte	0x1
 3648 00ce 54       		.byte	0x54
 3649 00cf 00000000 		.4byte	0x0
 3650 00d3 00000000 		.4byte	0x0
 3651              	.LLST7:
 3652 00d7 44010000 		.4byte	.LFB5-.Ltext0
 3653 00db 46010000 		.4byte	.LCFI5-.Ltext0
 3654 00df 0100     		.2byte	0x1
 3655 00e1 5D       		.byte	0x5d
 3656 00e2 46010000 		.4byte	.LCFI5-.Ltext0
 3657 00e6 4A010000 		.4byte	.LCFI6-.Ltext0
 3658 00ea 0200     		.2byte	0x2
 3659 00ec 7D       		.byte	0x7d
 3660 00ed 14       		.sleb128 20
 3661 00ee 4A010000 		.4byte	.LCFI6-.Ltext0
 3662 00f2 C0010000 		.4byte	.LFE5-.Ltext0
 3663 00f6 0200     		.2byte	0x2
 3664 00f8 7D       		.byte	0x7d
ARM GAS  /cygdrive/c/Users/Zbyszko/AppData/Local/Temp/ccaXFopk.s 			page 90


 3665 00f9 18       		.sleb128 24
 3666 00fa 00000000 		.4byte	0x0
 3667 00fe 00000000 		.4byte	0x0
 3668              	.LLST8:
 3669 0102 46010000 		.4byte	.LVL10-.Ltext0
 3670 0106 48010000 		.4byte	.LVL11-.Ltext0
 3671 010a 0100     		.2byte	0x1
 3672 010c 50       		.byte	0x50
 3673 010d 50010000 		.4byte	.LVL13-.Ltext0
 3674 0111 C0010000 		.4byte	.LFE5-.Ltext0
 3675 0115 0200     		.2byte	0x2
 3676 0117 91       		.byte	0x91
 3677 0118 7C       		.sleb128 -4
 3678 0119 00000000 		.4byte	0x0
 3679 011d 00000000 		.4byte	0x0
 3680              	.LLST9:
 3681 0121 46010000 		.4byte	.LVL10-.Ltext0
 3682 0125 4E010000 		.4byte	.LVL12-.Ltext0
 3683 0129 0100     		.2byte	0x1
 3684 012b 51       		.byte	0x51
 3685 012c 54010000 		.4byte	.LVL14-.Ltext0
 3686 0130 B2010000 		.4byte	.LVL17-.Ltext0
 3687 0134 0100     		.2byte	0x1
 3688 0136 57       		.byte	0x57
 3689 0137 00000000 		.4byte	0x0
 3690 013b 00000000 		.4byte	0x0
 3691              	.LLST10:
 3692 013f 56010000 		.4byte	.LVL15-.Ltext0
 3693 0143 B2010000 		.4byte	.LVL16-.Ltext0
 3694 0147 0100     		.2byte	0x1
 3695 0149 55       		.byte	0x55
 3696 014a 00000000 		.4byte	0x0
 3697 014e 00000000 		.4byte	0x0
 3698              	.LLST11:
 3699 0152 C0010000 		.4byte	.LFB9-.Ltext0
 3700 0156 C2010000 		.4byte	.LCFI7-.Ltext0
 3701 015a 0100     		.2byte	0x1
 3702 015c 5D       		.byte	0x5d
 3703 015d C2010000 		.4byte	.LCFI7-.Ltext0
 3704 0161 04020000 		.4byte	.LFE9-.Ltext0
 3705 0165 0200     		.2byte	0x2
 3706 0167 7D       		.byte	0x7d
 3707 0168 0C       		.sleb128 12
 3708 0169 00000000 		.4byte	0x0
 3709 016d 00000000 		.4byte	0x0
 3710              	.LLST12:
 3711 0171 C2010000 		.4byte	.LVL18-.Ltext0
 3712 0175 C4010000 		.4byte	.LVL19-.Ltext0
 3713 0179 0100     		.2byte	0x1
 3714 017b 50       		.byte	0x50
 3715 017c C6010000 		.4byte	.LVL20-.Ltext0
 3716 0180 F4010000 		.4byte	.LVL21-.Ltext0
 3717 0184 0100     		.2byte	0x1
 3718 0186 55       		.byte	0x55
 3719 0187 00000000 		.4byte	0x0
 3720 018b 00000000 		.4byte	0x0
 3721              	.LLST13:
ARM GAS  /cygdrive/c/Users/Zbyszko/AppData/Local/Temp/ccaXFopk.s 			page 91


 3722 018f 04020000 		.4byte	.LFB7-.Ltext0
 3723 0193 06020000 		.4byte	.LCFI8-.Ltext0
 3724 0197 0100     		.2byte	0x1
 3725 0199 5D       		.byte	0x5d
 3726 019a 06020000 		.4byte	.LCFI8-.Ltext0
 3727 019e 48020000 		.4byte	.LFE7-.Ltext0
 3728 01a2 0200     		.2byte	0x2
 3729 01a4 7D       		.byte	0x7d
 3730 01a5 0C       		.sleb128 12
 3731 01a6 00000000 		.4byte	0x0
 3732 01aa 00000000 		.4byte	0x0
 3733              	.LLST14:
 3734 01ae 06020000 		.4byte	.LVL22-.Ltext0
 3735 01b2 08020000 		.4byte	.LVL23-.Ltext0
 3736 01b6 0100     		.2byte	0x1
 3737 01b8 50       		.byte	0x50
 3738 01b9 0A020000 		.4byte	.LVL24-.Ltext0
 3739 01bd 38020000 		.4byte	.LVL25-.Ltext0
 3740 01c1 0100     		.2byte	0x1
 3741 01c3 55       		.byte	0x55
 3742 01c4 00000000 		.4byte	0x0
 3743 01c8 00000000 		.4byte	0x0
 3744              	.LLST15:
 3745 01cc 48020000 		.4byte	.LFB4-.Ltext0
 3746 01d0 4A020000 		.4byte	.LCFI9-.Ltext0
 3747 01d4 0100     		.2byte	0x1
 3748 01d6 5D       		.byte	0x5d
 3749 01d7 4A020000 		.4byte	.LCFI9-.Ltext0
 3750 01db 6A020000 		.4byte	.LFE4-.Ltext0
 3751 01df 0200     		.2byte	0x2
 3752 01e1 7D       		.byte	0x7d
 3753 01e2 0C       		.sleb128 12
 3754 01e3 00000000 		.4byte	0x0
 3755 01e7 00000000 		.4byte	0x0
 3756              	.LLST16:
 3757 01eb 4A020000 		.4byte	.LVL26-.Ltext0
 3758 01ef 52020000 		.4byte	.LVL29-.Ltext0
 3759 01f3 0100     		.2byte	0x1
 3760 01f5 50       		.byte	0x50
 3761 01f6 52020000 		.4byte	.LVL29-.Ltext0
 3762 01fa 64020000 		.4byte	.LVL31-.Ltext0
 3763 01fe 0100     		.2byte	0x1
 3764 0200 54       		.byte	0x54
 3765 0201 00000000 		.4byte	0x0
 3766 0205 00000000 		.4byte	0x0
 3767              	.LLST17:
 3768 0209 4A020000 		.4byte	.LVL26-.Ltext0
 3769 020d 4C020000 		.4byte	.LVL27-.Ltext0
 3770 0211 0100     		.2byte	0x1
 3771 0213 51       		.byte	0x51
 3772 0214 50020000 		.4byte	.LVL28-.Ltext0
 3773 0218 64020000 		.4byte	.LVL32-.Ltext0
 3774 021c 0100     		.2byte	0x1
 3775 021e 55       		.byte	0x55
 3776 021f 00000000 		.4byte	0x0
 3777 0223 00000000 		.4byte	0x0
 3778              	.LLST18:
ARM GAS  /cygdrive/c/Users/Zbyszko/AppData/Local/Temp/ccaXFopk.s 			page 92


 3779 0227 6C020000 		.4byte	.LFB13-.Ltext0
 3780 022b 6E020000 		.4byte	.LCFI10-.Ltext0
 3781 022f 0100     		.2byte	0x1
 3782 0231 5D       		.byte	0x5d
 3783 0232 6E020000 		.4byte	.LCFI10-.Ltext0
 3784 0236 70020000 		.4byte	.LCFI11-.Ltext0
 3785 023a 0200     		.2byte	0x2
 3786 023c 7D       		.byte	0x7d
 3787 023d 14       		.sleb128 20
 3788 023e 70020000 		.4byte	.LCFI11-.Ltext0
 3789 0242 DC030000 		.4byte	.LFE13-.Ltext0
 3790 0246 0300     		.2byte	0x3
 3791 0248 7D       		.byte	0x7d
 3792 0249 8C01     		.sleb128 140
 3793 024b 00000000 		.4byte	0x0
 3794 024f 00000000 		.4byte	0x0
 3795              	.LLST19:
 3796 0253 DC030000 		.4byte	.LFB11-.Ltext0
 3797 0257 DE030000 		.4byte	.LCFI12-.Ltext0
 3798 025b 0100     		.2byte	0x1
 3799 025d 5D       		.byte	0x5d
 3800 025e DE030000 		.4byte	.LCFI12-.Ltext0
 3801 0262 E0030000 		.4byte	.LCFI13-.Ltext0
 3802 0266 0200     		.2byte	0x2
 3803 0268 7D       		.byte	0x7d
 3804 0269 14       		.sleb128 20
 3805 026a E0030000 		.4byte	.LCFI13-.Ltext0
 3806 026e B4040000 		.4byte	.LFE11-.Ltext0
 3807 0272 0300     		.2byte	0x3
 3808 0274 7D       		.byte	0x7d
 3809 0275 C800     		.sleb128 72
 3810 0277 00000000 		.4byte	0x0
 3811 027b 00000000 		.4byte	0x0
 3812              	.LLST20:
 3813 027f B4040000 		.4byte	.LFB15-.Ltext0
 3814 0283 B6040000 		.4byte	.LCFI14-.Ltext0
 3815 0287 0100     		.2byte	0x1
 3816 0289 5D       		.byte	0x5d
 3817 028a B6040000 		.4byte	.LCFI14-.Ltext0
 3818 028e B8040000 		.4byte	.LCFI15-.Ltext0
 3819 0292 0200     		.2byte	0x2
 3820 0294 7D       		.byte	0x7d
 3821 0295 04       		.sleb128 4
 3822 0296 B8040000 		.4byte	.LCFI15-.Ltext0
 3823 029a 78050000 		.4byte	.LFE15-.Ltext0
 3824 029e 0200     		.2byte	0x2
 3825 02a0 7D       		.byte	0x7d
 3826 02a1 08       		.sleb128 8
 3827 02a2 00000000 		.4byte	0x0
 3828 02a6 00000000 		.4byte	0x0
 3829              	.LLST21:
 3830 02aa 78050000 		.4byte	.LFB16-.Ltext0
 3831 02ae 7A050000 		.4byte	.LCFI16-.Ltext0
 3832 02b2 0100     		.2byte	0x1
 3833 02b4 5D       		.byte	0x5d
 3834 02b5 7A050000 		.4byte	.LCFI16-.Ltext0
 3835 02b9 7C050000 		.4byte	.LCFI17-.Ltext0
ARM GAS  /cygdrive/c/Users/Zbyszko/AppData/Local/Temp/ccaXFopk.s 			page 93


 3836 02bd 0200     		.2byte	0x2
 3837 02bf 7D       		.byte	0x7d
 3838 02c0 14       		.sleb128 20
 3839 02c1 7C050000 		.4byte	.LCFI17-.Ltext0
 3840 02c5 F80F0000 		.4byte	.LFE16-.Ltext0
 3841 02c9 0300     		.2byte	0x3
 3842 02cb 7D       		.byte	0x7d
 3843 02cc A801     		.sleb128 168
 3844 02ce 00000000 		.4byte	0x0
 3845 02d2 00000000 		.4byte	0x0
 3846              	.LLST22:
 3847 02d6 84050000 		.4byte	.LVL34-.Ltext0
 3848 02da C2050000 		.4byte	.LVL36-.Ltext0
 3849 02de 0100     		.2byte	0x1
 3850 02e0 50       		.byte	0x50
 3851 02e1 3C0A0000 		.4byte	.LVL73-.Ltext0
 3852 02e5 440A0000 		.4byte	.LVL75-.Ltext0
 3853 02e9 0100     		.2byte	0x1
 3854 02eb 50       		.byte	0x50
 3855 02ec 1E0D0000 		.4byte	.LVL104-.Ltext0
 3856 02f0 260D0000 		.4byte	.LVL106-.Ltext0
 3857 02f4 0100     		.2byte	0x1
 3858 02f6 50       		.byte	0x50
 3859 02f7 1A0F0000 		.4byte	.LVL118-.Ltext0
 3860 02fb 1E0F0000 		.4byte	.LVL119-.Ltext0
 3861 02ff 0100     		.2byte	0x1
 3862 0301 50       		.byte	0x50
 3863 0302 200F0000 		.4byte	.LVL120-.Ltext0
 3864 0306 240F0000 		.4byte	.LVL121-.Ltext0
 3865 030a 0100     		.2byte	0x1
 3866 030c 50       		.byte	0x50
 3867 030d 260F0000 		.4byte	.LVL122-.Ltext0
 3868 0311 520F0000 		.4byte	.LVL123-.Ltext0
 3869 0315 0100     		.2byte	0x1
 3870 0317 50       		.byte	0x50
 3871 0318 860F0000 		.4byte	.LVL131-.Ltext0
 3872 031c 8A0F0000 		.4byte	.LVL132-.Ltext0
 3873 0320 0100     		.2byte	0x1
 3874 0322 50       		.byte	0x50
 3875 0323 8A0F0000 		.4byte	.LVL132-.Ltext0
 3876 0327 8C0F0000 		.4byte	.LVL133-.Ltext0
 3877 032b 0100     		.2byte	0x1
 3878 032d 50       		.byte	0x50
 3879 032e 940F0000 		.4byte	.LVL134-.Ltext0
 3880 0332 980F0000 		.4byte	.LVL135-.Ltext0
 3881 0336 0100     		.2byte	0x1
 3882 0338 50       		.byte	0x50
 3883 0339 00000000 		.4byte	0x0
 3884 033d 00000000 		.4byte	0x0
 3885              	.LLST23:
 3886 0341 12060000 		.4byte	.LVL39-.Ltext0
 3887 0345 14060000 		.4byte	.LVL40-.Ltext0
 3888 0349 0100     		.2byte	0x1
 3889 034b 54       		.byte	0x54
 3890 034c A0060000 		.4byte	.LVL41-.Ltext0
 3891 0350 A2060000 		.4byte	.LVL42-.Ltext0
 3892 0354 0100     		.2byte	0x1
ARM GAS  /cygdrive/c/Users/Zbyszko/AppData/Local/Temp/ccaXFopk.s 			page 94


 3893 0356 54       		.byte	0x54
 3894 0357 B4060000 		.4byte	.LVL43-.Ltext0
 3895 035b B6060000 		.4byte	.LVL44-.Ltext0
 3896 035f 0100     		.2byte	0x1
 3897 0361 54       		.byte	0x54
 3898 0362 B8060000 		.4byte	.LVL45-.Ltext0
 3899 0366 48070000 		.4byte	.LVL46-.Ltext0
 3900 036a 0100     		.2byte	0x1
 3901 036c 54       		.byte	0x54
 3902 036d B4070000 		.4byte	.LVL54-.Ltext0
 3903 0371 B6070000 		.4byte	.LVL55-.Ltext0
 3904 0375 0100     		.2byte	0x1
 3905 0377 54       		.byte	0x54
 3906 0378 F4070000 		.4byte	.LVL56-.Ltext0
 3907 037c F8070000 		.4byte	.LVL57-.Ltext0
 3908 0380 0100     		.2byte	0x1
 3909 0382 54       		.byte	0x54
 3910 0383 4C080000 		.4byte	.LVL60-.Ltext0
 3911 0387 52080000 		.4byte	.LVL61-.Ltext0
 3912 038b 0100     		.2byte	0x1
 3913 038d 54       		.byte	0x54
 3914 038e 54080000 		.4byte	.LVL62-.Ltext0
 3915 0392 5A080000 		.4byte	.LVL63-.Ltext0
 3916 0396 0100     		.2byte	0x1
 3917 0398 54       		.byte	0x54
 3918 0399 7A080000 		.4byte	.LVL64-.Ltext0
 3919 039d 7C080000 		.4byte	.LVL65-.Ltext0
 3920 03a1 0100     		.2byte	0x1
 3921 03a3 54       		.byte	0x54
 3922 03a4 7E080000 		.4byte	.LVL66-.Ltext0
 3923 03a8 7A090000 		.4byte	.LVL70-.Ltext0
 3924 03ac 0100     		.2byte	0x1
 3925 03ae 54       		.byte	0x54
 3926 03af 00000000 		.4byte	0x0
 3927 03b3 00000000 		.4byte	0x0
 3928              	.LLST24:
 3929 03b7 4C070000 		.4byte	.LVL47-.Ltext0
 3930 03bb 7C070000 		.4byte	.LVL48-.Ltext0
 3931 03bf 0100     		.2byte	0x1
 3932 03c1 50       		.byte	0x50
 3933 03c2 82070000 		.4byte	.LVL49-.Ltext0
 3934 03c6 84070000 		.4byte	.LVL50-.Ltext0
 3935 03ca 0100     		.2byte	0x1
 3936 03cc 50       		.byte	0x50
 3937 03cd 580F0000 		.4byte	.LVL124-.Ltext0
 3938 03d1 5A0F0000 		.4byte	.LVL125-.Ltext0
 3939 03d5 0100     		.2byte	0x1
 3940 03d7 50       		.byte	0x50
 3941 03d8 00000000 		.4byte	0x0
 3942 03dc 00000000 		.4byte	0x0
 3943              	.LLST25:
 3944 03e0 80050000 		.4byte	.LVL33-.Ltext0
 3945 03e4 C0050000 		.4byte	.LVL35-.Ltext0
 3946 03e8 0100     		.2byte	0x1
 3947 03ea 54       		.byte	0x54
 3948 03eb 48070000 		.4byte	.LVL46-.Ltext0
 3949 03ef B6070000 		.4byte	.LVL55-.Ltext0
ARM GAS  /cygdrive/c/Users/Zbyszko/AppData/Local/Temp/ccaXFopk.s 			page 95


 3950 03f3 0100     		.2byte	0x1
 3951 03f5 54       		.byte	0x54
 3952 03f6 3A090000 		.4byte	.LVL69-.Ltext0
 3953 03fa 7A090000 		.4byte	.LVL70-.Ltext0
 3954 03fe 0100     		.2byte	0x1
 3955 0400 54       		.byte	0x54
 3956 0401 1A0A0000 		.4byte	.LVL72-.Ltext0
 3957 0405 420A0000 		.4byte	.LVL74-.Ltext0
 3958 0409 0100     		.2byte	0x1
 3959 040b 54       		.byte	0x54
 3960 040c 140D0000 		.4byte	.LVL103-.Ltext0
 3961 0410 240D0000 		.4byte	.LVL105-.Ltext0
 3962 0414 0100     		.2byte	0x1
 3963 0416 54       		.byte	0x54
 3964 0417 1A0F0000 		.4byte	.LVL118-.Ltext0
 3965 041b 6C0F0000 		.4byte	.LVL126-.Ltext0
 3966 041f 0100     		.2byte	0x1
 3967 0421 54       		.byte	0x54
 3968 0422 860F0000 		.4byte	.LVL131-.Ltext0
 3969 0426 A00F0000 		.4byte	.LVL136-.Ltext0
 3970 042a 0100     		.2byte	0x1
 3971 042c 54       		.byte	0x54
 3972 042d 00000000 		.4byte	0x0
 3973 0431 00000000 		.4byte	0x0
 3974              	.LLST26:
 3975 0435 80050000 		.4byte	.LVL33-.Ltext0
 3976 0439 80050000 		.4byte	.LVL33-.Ltext0
 3977 043d 0100     		.2byte	0x1
 3978 043f 56       		.byte	0x56
 3979 0440 80050000 		.4byte	.LVL33-.Ltext0
 3980 0444 AC070000 		.4byte	.LVL52-.Ltext0
 3981 0448 0300     		.2byte	0x3
 3982 044a 91       		.byte	0x91
 3983 044b 8C7F     		.sleb128 -116
 3984 044d 1A0A0000 		.4byte	.LVL72-.Ltext0
 3985 0451 8E0D0000 		.4byte	.LVL107-.Ltext0
 3986 0455 0100     		.2byte	0x1
 3987 0457 56       		.byte	0x56
 3988 0458 A40E0000 		.4byte	.LVL115-.Ltext0
 3989 045c AA0E0000 		.4byte	.LVL116-.Ltext0
 3990 0460 0100     		.2byte	0x1
 3991 0462 56       		.byte	0x56
 3992 0463 1A0F0000 		.4byte	.LVL118-.Ltext0
 3993 0467 740F0000 		.4byte	.LVL128-.Ltext0
 3994 046b 0100     		.2byte	0x1
 3995 046d 56       		.byte	0x56
 3996 046e 7C0F0000 		.4byte	.LVL130-.Ltext0
 3997 0472 A00F0000 		.4byte	.LVL138-.Ltext0
 3998 0476 0100     		.2byte	0x1
 3999 0478 56       		.byte	0x56
 4000 0479 00000000 		.4byte	0x0
 4001 047d 00000000 		.4byte	0x0
 4002              	.LLST27:
 4003 0481 80050000 		.4byte	.LVL33-.Ltext0
 4004 0485 AA070000 		.4byte	.LVL51-.Ltext0
 4005 0489 0100     		.2byte	0x1
 4006 048b 55       		.byte	0x55
ARM GAS  /cygdrive/c/Users/Zbyszko/AppData/Local/Temp/ccaXFopk.s 			page 96


 4007 048c 1A0A0000 		.4byte	.LVL72-.Ltext0
 4008 0490 AC0A0000 		.4byte	.LVL76-.Ltext0
 4009 0494 0100     		.2byte	0x1
 4010 0496 55       		.byte	0x55
 4011 0497 140D0000 		.4byte	.LVL103-.Ltext0
 4012 049b 900D0000 		.4byte	.LVL108-.Ltext0
 4013 049f 0100     		.2byte	0x1
 4014 04a1 55       		.byte	0x55
 4015 04a2 FA0D0000 		.4byte	.LVL109-.Ltext0
 4016 04a6 FC0D0000 		.4byte	.LVL110-.Ltext0
 4017 04aa 0100     		.2byte	0x1
 4018 04ac 55       		.byte	0x55
 4019 04ad 1A0F0000 		.4byte	.LVL118-.Ltext0
 4020 04b1 6C0F0000 		.4byte	.LVL126-.Ltext0
 4021 04b5 0100     		.2byte	0x1
 4022 04b7 55       		.byte	0x55
 4023 04b8 860F0000 		.4byte	.LVL131-.Ltext0
 4024 04bc A00F0000 		.4byte	.LVL137-.Ltext0
 4025 04c0 0100     		.2byte	0x1
 4026 04c2 55       		.byte	0x55
 4027 04c3 00000000 		.4byte	0x0
 4028 04c7 00000000 		.4byte	0x0
 4029              	.LLST28:
 4030 04cb 80050000 		.4byte	.LVL33-.Ltext0
 4031 04cf AA070000 		.4byte	.LVL51-.Ltext0
 4032 04d3 0100     		.2byte	0x1
 4033 04d5 57       		.byte	0x57
 4034 04d6 AA070000 		.4byte	.LVL51-.Ltext0
 4035 04da AE070000 		.4byte	.LVL53-.Ltext0
 4036 04de 0100     		.2byte	0x1
 4037 04e0 55       		.byte	0x55
 4038 04e1 1A0A0000 		.4byte	.LVL72-.Ltext0
 4039 04e5 A00F0000 		.4byte	.LVL139-.Ltext0
 4040 04e9 0100     		.2byte	0x1
 4041 04eb 57       		.byte	0x57
 4042 04ec 00000000 		.4byte	0x0
 4043 04f0 00000000 		.4byte	0x0
 4044              	.LLST29:
 4045 04f4 80050000 		.4byte	.LVL33-.Ltext0
 4046 04f8 0A060000 		.4byte	.LVL37-.Ltext0
 4047 04fc 0100     		.2byte	0x1
 4048 04fe 56       		.byte	0x56
 4049 04ff AC070000 		.4byte	.LVL52-.Ltext0
 4050 0503 8E0D0000 		.4byte	.LVL107-.Ltext0
 4051 0507 0100     		.2byte	0x1
 4052 0509 56       		.byte	0x56
 4053 050a A40E0000 		.4byte	.LVL115-.Ltext0
 4054 050e AA0E0000 		.4byte	.LVL116-.Ltext0
 4055 0512 0100     		.2byte	0x1
 4056 0514 56       		.byte	0x56
 4057 0515 1A0F0000 		.4byte	.LVL118-.Ltext0
 4058 0519 580F0000 		.4byte	.LVL124-.Ltext0
 4059 051d 0100     		.2byte	0x1
 4060 051f 56       		.byte	0x56
 4061 0520 6C0F0000 		.4byte	.LVL126-.Ltext0
 4062 0524 740F0000 		.4byte	.LVL128-.Ltext0
 4063 0528 0100     		.2byte	0x1
ARM GAS  /cygdrive/c/Users/Zbyszko/AppData/Local/Temp/ccaXFopk.s 			page 97


 4064 052a 56       		.byte	0x56
 4065 052b 7C0F0000 		.4byte	.LVL130-.Ltext0
 4066 052f A00F0000 		.4byte	.LVL138-.Ltext0
 4067 0533 0100     		.2byte	0x1
 4068 0535 56       		.byte	0x56
 4069 0536 00000000 		.4byte	0x0
 4070 053a 00000000 		.4byte	0x0
 4071              	.LLST30:
 4072 053e 80050000 		.4byte	.LVL33-.Ltext0
 4073 0542 0E060000 		.4byte	.LVL38-.Ltext0
 4074 0546 0100     		.2byte	0x1
 4075 0548 57       		.byte	0x57
 4076 0549 AE070000 		.4byte	.LVL53-.Ltext0
 4077 054d 580F0000 		.4byte	.LVL124-.Ltext0
 4078 0551 0100     		.2byte	0x1
 4079 0553 57       		.byte	0x57
 4080 0554 6C0F0000 		.4byte	.LVL126-.Ltext0
 4081 0558 A00F0000 		.4byte	.LVL139-.Ltext0
 4082 055c 0100     		.2byte	0x1
 4083 055e 57       		.byte	0x57
 4084 055f 00000000 		.4byte	0x0
 4085 0563 00000000 		.4byte	0x0
 4086              	.LLST31:
 4087 0567 20080000 		.4byte	.LVL58-.Ltext0
 4088 056b 5A080000 		.4byte	.LVL63-.Ltext0
 4089 056f 0100     		.2byte	0x1
 4090 0571 50       		.byte	0x50
 4091 0572 80080000 		.4byte	.LVL67-.Ltext0
 4092 0576 82080000 		.4byte	.LVL68-.Ltext0
 4093 057a 0100     		.2byte	0x1
 4094 057c 50       		.byte	0x50
 4095 057d 00000000 		.4byte	0x0
 4096 0581 00000000 		.4byte	0x0
 4097              	.LLST32:
 4098 0585 24080000 		.4byte	.LVL59-.Ltext0
 4099 0589 4C080000 		.4byte	.LVL60-.Ltext0
 4100 058d 0100     		.2byte	0x1
 4101 058f 54       		.byte	0x54
 4102 0590 52080000 		.4byte	.LVL61-.Ltext0
 4103 0594 54080000 		.4byte	.LVL62-.Ltext0
 4104 0598 0100     		.2byte	0x1
 4105 059a 54       		.byte	0x54
 4106 059b 00000000 		.4byte	0x0
 4107 059f 00000000 		.4byte	0x0
 4108              	.LLST33:
 4109 05a3 060C0000 		.4byte	.LVL98-.Ltext0
 4110 05a7 200C0000 		.4byte	.LVL99-.Ltext0
 4111 05ab 0100     		.2byte	0x1
 4112 05ad 52       		.byte	0x52
 4113 05ae 00000000 		.4byte	0x0
 4114 05b2 00000000 		.4byte	0x0
 4115              	.LLST34:
 4116 05b6 8E0B0000 		.4byte	.LVL95-.Ltext0
 4117 05ba BA0B0000 		.4byte	.LVL96-.Ltext0
 4118 05be 0100     		.2byte	0x1
 4119 05c0 50       		.byte	0x50
 4120 05c1 360C0000 		.4byte	.LVL100-.Ltext0
ARM GAS  /cygdrive/c/Users/Zbyszko/AppData/Local/Temp/ccaXFopk.s 			page 98


 4121 05c5 020D0000 		.4byte	.LVL101-.Ltext0
 4122 05c9 0100     		.2byte	0x1
 4123 05cb 50       		.byte	0x50
 4124 05cc 6C0F0000 		.4byte	.LVL126-.Ltext0
 4125 05d0 6E0F0000 		.4byte	.LVL127-.Ltext0
 4126 05d4 0100     		.2byte	0x1
 4127 05d6 50       		.byte	0x50
 4128 05d7 00000000 		.4byte	0x0
 4129 05db 00000000 		.4byte	0x0
 4130              	.LLST35:
 4131 05df 8A0B0000 		.4byte	.LVL94-.Ltext0
 4132 05e3 EA0B0000 		.4byte	.LVL97-.Ltext0
 4133 05e7 0100     		.2byte	0x1
 4134 05e9 54       		.byte	0x54
 4135 05ea 360C0000 		.4byte	.LVL100-.Ltext0
 4136 05ee 080D0000 		.4byte	.LVL102-.Ltext0
 4137 05f2 0100     		.2byte	0x1
 4138 05f4 54       		.byte	0x54
 4139 05f5 6C0F0000 		.4byte	.LVL126-.Ltext0
 4140 05f9 740F0000 		.4byte	.LVL128-.Ltext0
 4141 05fd 0100     		.2byte	0x1
 4142 05ff 54       		.byte	0x54
 4143 0600 00000000 		.4byte	0x0
 4144 0604 00000000 		.4byte	0x0
 4145              	.LLST36:
 4146 0608 AC0A0000 		.4byte	.LVL76-.Ltext0
 4147 060c EA0B0000 		.4byte	.LVL97-.Ltext0
 4148 0610 0100     		.2byte	0x1
 4149 0612 55       		.byte	0x55
 4150 0613 360C0000 		.4byte	.LVL100-.Ltext0
 4151 0617 080D0000 		.4byte	.LVL102-.Ltext0
 4152 061b 0100     		.2byte	0x1
 4153 061d 55       		.byte	0x55
 4154 061e 6C0F0000 		.4byte	.LVL126-.Ltext0
 4155 0622 740F0000 		.4byte	.LVL128-.Ltext0
 4156 0626 0100     		.2byte	0x1
 4157 0628 55       		.byte	0x55
 4158 0629 7C0F0000 		.4byte	.LVL130-.Ltext0
 4159 062d 860F0000 		.4byte	.LVL131-.Ltext0
 4160 0631 0100     		.2byte	0x1
 4161 0633 55       		.byte	0x55
 4162 0634 00000000 		.4byte	0x0
 4163 0638 00000000 		.4byte	0x0
 4164              	.LLST37:
 4165 063c 80050000 		.4byte	.LVL33-.Ltext0
 4166 0640 D40A0000 		.4byte	.LVL77-.Ltext0
 4167 0644 0200     		.2byte	0x2
 4168 0646 73       		.byte	0x73
 4169 0647 00       		.sleb128 0
 4170 0648 D40A0000 		.4byte	.LVL77-.Ltext0
 4171 064c DA0A0000 		.4byte	.LVL78-.Ltext0
 4172 0650 0100     		.2byte	0x1
 4173 0652 53       		.byte	0x53
 4174 0653 DA0A0000 		.4byte	.LVL78-.Ltext0
 4175 0657 F60A0000 		.4byte	.LVL80-.Ltext0
 4176 065b 0200     		.2byte	0x2
 4177 065d 74       		.byte	0x74
ARM GAS  /cygdrive/c/Users/Zbyszko/AppData/Local/Temp/ccaXFopk.s 			page 99


 4178 065e 00       		.sleb128 0
 4179 065f F60A0000 		.4byte	.LVL80-.Ltext0
 4180 0663 000B0000 		.4byte	.LVL82-.Ltext0
 4181 0667 0100     		.2byte	0x1
 4182 0669 53       		.byte	0x53
 4183 066a 000B0000 		.4byte	.LVL82-.Ltext0
 4184 066e 0C0B0000 		.4byte	.LVL83-.Ltext0
 4185 0672 0100     		.2byte	0x1
 4186 0674 52       		.byte	0x52
 4187 0675 0C0B0000 		.4byte	.LVL83-.Ltext0
 4188 0679 180B0000 		.4byte	.LVL84-.Ltext0
 4189 067d 0200     		.2byte	0x2
 4190 067f 74       		.byte	0x74
 4191 0680 00       		.sleb128 0
 4192 0681 180B0000 		.4byte	.LVL84-.Ltext0
 4193 0685 1A0B0000 		.4byte	.LVL85-.Ltext0
 4194 0689 0100     		.2byte	0x1
 4195 068b 53       		.byte	0x53
 4196 068c 1A0B0000 		.4byte	.LVL85-.Ltext0
 4197 0690 220B0000 		.4byte	.LVL86-.Ltext0
 4198 0694 0200     		.2byte	0x2
 4199 0696 70       		.byte	0x70
 4200 0697 00       		.sleb128 0
 4201 0698 220B0000 		.4byte	.LVL86-.Ltext0
 4202 069c 380B0000 		.4byte	.LVL87-.Ltext0
 4203 06a0 0200     		.2byte	0x2
 4204 06a2 71       		.byte	0x71
 4205 06a3 00       		.sleb128 0
 4206 06a4 380B0000 		.4byte	.LVL87-.Ltext0
 4207 06a8 480B0000 		.4byte	.LVL88-.Ltext0
 4208 06ac 0200     		.2byte	0x2
 4209 06ae 70       		.byte	0x70
 4210 06af 00       		.sleb128 0
 4211 06b0 480B0000 		.4byte	.LVL88-.Ltext0
 4212 06b4 4A0B0000 		.4byte	.LVL89-.Ltext0
 4213 06b8 0200     		.2byte	0x2
 4214 06ba 71       		.byte	0x71
 4215 06bb 00       		.sleb128 0
 4216 06bc 4A0B0000 		.4byte	.LVL89-.Ltext0
 4217 06c0 5A0B0000 		.4byte	.LVL90-.Ltext0
 4218 06c4 0200     		.2byte	0x2
 4219 06c6 73       		.byte	0x73
 4220 06c7 00       		.sleb128 0
 4221 06c8 5A0B0000 		.4byte	.LVL90-.Ltext0
 4222 06cc 600B0000 		.4byte	.LVL91-.Ltext0
 4223 06d0 0100     		.2byte	0x1
 4224 06d2 53       		.byte	0x53
 4225 06d3 600B0000 		.4byte	.LVL91-.Ltext0
 4226 06d7 740B0000 		.4byte	.LVL93-.Ltext0
 4227 06db 0200     		.2byte	0x2
 4228 06dd 74       		.byte	0x74
 4229 06de 00       		.sleb128 0
 4230 06df 740B0000 		.4byte	.LVL93-.Ltext0
 4231 06e3 7C0F0000 		.4byte	.LVL130-.Ltext0
 4232 06e7 0200     		.2byte	0x2
 4233 06e9 73       		.byte	0x73
 4234 06ea 00       		.sleb128 0
ARM GAS  /cygdrive/c/Users/Zbyszko/AppData/Local/Temp/ccaXFopk.s 			page 100


 4235 06eb 7C0F0000 		.4byte	.LVL130-.Ltext0
 4236 06ef 860F0000 		.4byte	.LVL131-.Ltext0
 4237 06f3 0200     		.2byte	0x2
 4238 06f5 71       		.byte	0x71
 4239 06f6 00       		.sleb128 0
 4240 06f7 860F0000 		.4byte	.LVL131-.Ltext0
 4241 06fb F80F0000 		.4byte	.LFE16-.Ltext0
 4242 06ff 0200     		.2byte	0x2
 4243 0701 73       		.byte	0x73
 4244 0702 00       		.sleb128 0
 4245 0703 00000000 		.4byte	0x0
 4246 0707 00000000 		.4byte	0x0
 4247              	.LLST38:
 4248 070b 220E0000 		.4byte	.LVL112-.Ltext0
 4249 070f 4E0E0000 		.4byte	.LVL113-.Ltext0
 4250 0713 0100     		.2byte	0x1
 4251 0715 50       		.byte	0x50
 4252 0716 AA0E0000 		.4byte	.LVL116-.Ltext0
 4253 071a 140F0000 		.4byte	.LVL117-.Ltext0
 4254 071e 0100     		.2byte	0x1
 4255 0720 50       		.byte	0x50
 4256 0721 740F0000 		.4byte	.LVL128-.Ltext0
 4257 0725 760F0000 		.4byte	.LVL129-.Ltext0
 4258 0729 0100     		.2byte	0x1
 4259 072b 50       		.byte	0x50
 4260 072c 00000000 		.4byte	0x0
 4261 0730 00000000 		.4byte	0x0
 4262              	.LLST39:
 4263 0734 1E0E0000 		.4byte	.LVL111-.Ltext0
 4264 0738 7E0E0000 		.4byte	.LVL114-.Ltext0
 4265 073c 0100     		.2byte	0x1
 4266 073e 54       		.byte	0x54
 4267 073f AA0E0000 		.4byte	.LVL116-.Ltext0
 4268 0743 1A0F0000 		.4byte	.LVL118-.Ltext0
 4269 0747 0100     		.2byte	0x1
 4270 0749 54       		.byte	0x54
 4271 074a 740F0000 		.4byte	.LVL128-.Ltext0
 4272 074e 7C0F0000 		.4byte	.LVL130-.Ltext0
 4273 0752 0100     		.2byte	0x1
 4274 0754 54       		.byte	0x54
 4275 0755 00000000 		.4byte	0x0
 4276 0759 00000000 		.4byte	0x0
 4277              	.LLST40:
 4278 075d 80050000 		.4byte	.LVL33-.Ltext0
 4279 0761 0A060000 		.4byte	.LVL37-.Ltext0
 4280 0765 0100     		.2byte	0x1
 4281 0767 56       		.byte	0x56
 4282 0768 3C0A0000 		.4byte	.LVL73-.Ltext0
 4283 076c 580F0000 		.4byte	.LVL124-.Ltext0
 4284 0770 0100     		.2byte	0x1
 4285 0772 56       		.byte	0x56
 4286 0773 6C0F0000 		.4byte	.LVL126-.Ltext0
 4287 0777 A00F0000 		.4byte	.LVL138-.Ltext0
 4288 077b 0100     		.2byte	0x1
 4289 077d 56       		.byte	0x56
 4290 077e 00000000 		.4byte	0x0
 4291 0782 00000000 		.4byte	0x0
ARM GAS  /cygdrive/c/Users/Zbyszko/AppData/Local/Temp/ccaXFopk.s 			page 101


 4292              	.LLST41:
 4293 0786 900D0000 		.4byte	.LVL108-.Ltext0
 4294 078a 7E0E0000 		.4byte	.LVL114-.Ltext0
 4295 078e 0100     		.2byte	0x1
 4296 0790 55       		.byte	0x55
 4297 0791 AA0E0000 		.4byte	.LVL116-.Ltext0
 4298 0795 1A0F0000 		.4byte	.LVL118-.Ltext0
 4299 0799 0100     		.2byte	0x1
 4300 079b 55       		.byte	0x55
 4301 079c 740F0000 		.4byte	.LVL128-.Ltext0
 4302 07a0 7C0F0000 		.4byte	.LVL130-.Ltext0
 4303 07a4 0100     		.2byte	0x1
 4304 07a6 55       		.byte	0x55
 4305 07a7 00000000 		.4byte	0x0
 4306 07ab 00000000 		.4byte	0x0
 4307              	.LLST42:
 4308 07af F80F0000 		.4byte	.LFB2-.Ltext0
 4309 07b3 FA0F0000 		.4byte	.LCFI18-.Ltext0
 4310 07b7 0100     		.2byte	0x1
 4311 07b9 5D       		.byte	0x5d
 4312 07ba FA0F0000 		.4byte	.LCFI18-.Ltext0
 4313 07be FC0F0000 		.4byte	.LCFI19-.Ltext0
 4314 07c2 0200     		.2byte	0x2
 4315 07c4 7D       		.byte	0x7d
 4316 07c5 0C       		.sleb128 12
 4317 07c6 FC0F0000 		.4byte	.LCFI19-.Ltext0
 4318 07ca 44100000 		.4byte	.LFE2-.Ltext0
 4319 07ce 0200     		.2byte	0x2
 4320 07d0 7D       		.byte	0x7d
 4321 07d1 1C       		.sleb128 28
 4322 07d2 00000000 		.4byte	0x0
 4323 07d6 00000000 		.4byte	0x0
 4324              	.LLST43:
 4325 07da 44100000 		.4byte	.LFB3-.Ltext0
 4326 07de 46100000 		.4byte	.LCFI20-.Ltext0
 4327 07e2 0100     		.2byte	0x1
 4328 07e4 5D       		.byte	0x5d
 4329 07e5 46100000 		.4byte	.LCFI20-.Ltext0
 4330 07e9 48100000 		.4byte	.LCFI21-.Ltext0
 4331 07ed 0200     		.2byte	0x2
 4332 07ef 7D       		.byte	0x7d
 4333 07f0 0C       		.sleb128 12
 4334 07f1 48100000 		.4byte	.LCFI21-.Ltext0
 4335 07f5 38110000 		.4byte	.LFE3-.Ltext0
 4336 07f9 0200     		.2byte	0x2
 4337 07fb 7D       		.byte	0x7d
 4338 07fc 10       		.sleb128 16
 4339 07fd 00000000 		.4byte	0x0
 4340 0801 00000000 		.4byte	0x0
 4341              	.LLST44:
 4342 0805 46100000 		.4byte	.LVL140-.Ltext0
 4343 0809 4A100000 		.4byte	.LVL141-.Ltext0
 4344 080d 0100     		.2byte	0x1
 4345 080f 50       		.byte	0x50
 4346 0810 00000000 		.4byte	0x0
 4347 0814 00000000 		.4byte	0x0
 4348              		.section	.debug_info
ARM GAS  /cygdrive/c/Users/Zbyszko/AppData/Local/Temp/ccaXFopk.s 			page 102


 4349 0000 640C0000 		.4byte	0xc64
 4350 0004 0200     		.2byte	0x2
 4351 0006 00000000 		.4byte	.Ldebug_abbrev0
 4352 000a 04       		.byte	0x4
 4353 000b 01       		.uleb128 0x1
 4354 000c 00000000 		.4byte	.Ldebug_line0
 4355 0010 38110000 		.4byte	.Letext0
 4356 0014 00000000 		.4byte	.Ltext0
 4357 0018 2F030000 		.4byte	.LASF106
 4358 001c 01       		.byte	0x1
 4359 001d 35010000 		.4byte	.LASF107
 4360 0021 63010000 		.4byte	.LASF108
 4361 0025 02       		.uleb128 0x2
 4362 0026 74553800 		.ascii	"tU8\000"
 4363 002a 02       		.byte	0x2
 4364 002b 47       		.byte	0x47
 4365 002c 30000000 		.4byte	0x30
 4366 0030 03       		.uleb128 0x3
 4367 0031 21030000 		.4byte	.LASF1
 4368 0035 01       		.byte	0x1
 4369 0036 08       		.byte	0x8
 4370 0037 04       		.uleb128 0x4
 4371 0038 08010000 		.4byte	.LASF0
 4372 003c 02       		.byte	0x2
 4373 003d 48       		.byte	0x48
 4374 003e 42000000 		.4byte	0x42
 4375 0042 03       		.uleb128 0x3
 4376 0043 36020000 		.4byte	.LASF2
 4377 0047 02       		.byte	0x2
 4378 0048 07       		.byte	0x7
 4379 0049 04       		.uleb128 0x4
 4380 004a 58020000 		.4byte	.LASF3
 4381 004e 02       		.byte	0x2
 4382 004f 49       		.byte	0x49
 4383 0050 54000000 		.4byte	0x54
 4384 0054 03       		.uleb128 0x3
 4385 0055 D5010000 		.4byte	.LASF4
 4386 0059 04       		.byte	0x4
 4387 005a 07       		.byte	0x7
 4388 005b 03       		.uleb128 0x3
 4389 005c 5B000000 		.4byte	.LASF5
 4390 0060 01       		.byte	0x1
 4391 0061 06       		.byte	0x6
 4392 0062 03       		.uleb128 0x3
 4393 0063 3B030000 		.4byte	.LASF6
 4394 0067 02       		.byte	0x2
 4395 0068 05       		.byte	0x5
 4396 0069 05       		.uleb128 0x5
 4397 006a 696E7400 		.ascii	"int\000"
 4398 006e 04       		.byte	0x4
 4399 006f 05       		.byte	0x5
 4400 0070 04       		.uleb128 0x4
 4401 0071 E7000000 		.4byte	.LASF7
 4402 0075 02       		.byte	0x2
 4403 0076 4D       		.byte	0x4d
 4404 0077 30000000 		.4byte	0x30
 4405 007b 06       		.uleb128 0x6
ARM GAS  /cygdrive/c/Users/Zbyszko/AppData/Local/Temp/ccaXFopk.s 			page 103


 4406 007c 30010000 		.4byte	0x130
 4407 0080 26000000 		.4byte	.LASF20
 4408 0084 28       		.byte	0x28
 4409 0085 04       		.byte	0x4
 4410 0086 58       		.byte	0x58
 4411 0087 07       		.uleb128 0x7
 4412 0088 00030000 		.4byte	.LASF8
 4413 008c 04       		.byte	0x4
 4414 008d 59       		.byte	0x59
 4415 008e 30010000 		.4byte	0x130
 4416 0092 02       		.byte	0x2
 4417 0093 23       		.byte	0x23
 4418 0094 00       		.uleb128 0x0
 4419 0095 07       		.uleb128 0x7
 4420 0096 47000000 		.4byte	.LASF9
 4421 009a 04       		.byte	0x4
 4422 009b 5A       		.byte	0x5a
 4423 009c 36010000 		.4byte	0x136
 4424 00a0 02       		.byte	0x2
 4425 00a1 23       		.byte	0x23
 4426 00a2 04       		.uleb128 0x4
 4427 00a3 07       		.uleb128 0x7
 4428 00a4 50040000 		.4byte	.LASF10
 4429 00a8 04       		.byte	0x4
 4430 00a9 5B       		.byte	0x5b
 4431 00aa 36010000 		.4byte	0x136
 4432 00ae 02       		.byte	0x2
 4433 00af 23       		.byte	0x23
 4434 00b0 08       		.uleb128 0x8
 4435 00b1 07       		.uleb128 0x7
 4436 00b2 5D020000 		.4byte	.LASF11
 4437 00b6 04       		.byte	0x4
 4438 00b7 5C       		.byte	0x5c
 4439 00b8 36010000 		.4byte	0x136
 4440 00bc 02       		.byte	0x2
 4441 00bd 23       		.byte	0x23
 4442 00be 0C       		.uleb128 0xc
 4443 00bf 07       		.uleb128 0x7
 4444 00c0 FF030000 		.4byte	.LASF12
 4445 00c4 04       		.byte	0x4
 4446 00c5 5D       		.byte	0x5d
 4447 00c6 36010000 		.4byte	0x136
 4448 00ca 02       		.byte	0x2
 4449 00cb 23       		.byte	0x23
 4450 00cc 10       		.uleb128 0x10
 4451 00cd 07       		.uleb128 0x7
 4452 00ce 00000000 		.4byte	.LASF13
 4453 00d2 04       		.byte	0x4
 4454 00d3 5E       		.byte	0x5e
 4455 00d4 36010000 		.4byte	0x136
 4456 00d8 02       		.byte	0x2
 4457 00d9 23       		.byte	0x23
 4458 00da 14       		.uleb128 0x14
 4459 00db 08       		.uleb128 0x8
 4460 00dc 70696400 		.ascii	"pid\000"
 4461 00e0 04       		.byte	0x4
 4462 00e1 5F       		.byte	0x5f
ARM GAS  /cygdrive/c/Users/Zbyszko/AppData/Local/Temp/ccaXFopk.s 			page 104


 4463 00e2 25000000 		.4byte	0x25
 4464 00e6 02       		.byte	0x2
 4465 00e7 23       		.byte	0x23
 4466 00e8 18       		.uleb128 0x18
 4467 00e9 07       		.uleb128 0x7
 4468 00ea 30000000 		.4byte	.LASF14
 4469 00ee 04       		.byte	0x4
 4470 00ef 60       		.byte	0x60
 4471 00f0 25000000 		.4byte	0x25
 4472 00f4 02       		.byte	0x2
 4473 00f5 23       		.byte	0x23
 4474 00f6 19       		.uleb128 0x19
 4475 00f7 07       		.uleb128 0x7
 4476 00f8 4A030000 		.4byte	.LASF15
 4477 00fc 04       		.byte	0x4
 4478 00fd 61       		.byte	0x61
 4479 00fe 25000000 		.4byte	0x25
 4480 0102 02       		.byte	0x2
 4481 0103 23       		.byte	0x23
 4482 0104 1A       		.uleb128 0x1a
 4483 0105 07       		.uleb128 0x7
 4484 0106 49020000 		.4byte	.LASF16
 4485 010a 04       		.byte	0x4
 4486 010b 62       		.byte	0x62
 4487 010c 49000000 		.4byte	0x49
 4488 0110 02       		.byte	0x2
 4489 0111 23       		.byte	0x23
 4490 0112 1C       		.uleb128 0x1c
 4491 0113 07       		.uleb128 0x7
 4492 0114 F8020000 		.4byte	.LASF17
 4493 0118 04       		.byte	0x4
 4494 0119 65       		.byte	0x65
 4495 011a 30010000 		.4byte	0x130
 4496 011e 02       		.byte	0x2
 4497 011f 23       		.byte	0x23
 4498 0120 20       		.uleb128 0x20
 4499 0121 07       		.uleb128 0x7
 4500 0122 60030000 		.4byte	.LASF18
 4501 0126 04       		.byte	0x4
 4502 0127 66       		.byte	0x66
 4503 0128 37000000 		.4byte	0x37
 4504 012c 02       		.byte	0x2
 4505 012d 23       		.byte	0x23
 4506 012e 24       		.uleb128 0x24
 4507 012f 00       		.byte	0x0
 4508 0130 09       		.uleb128 0x9
 4509 0131 04       		.byte	0x4
 4510 0132 25000000 		.4byte	0x25
 4511 0136 09       		.uleb128 0x9
 4512 0137 04       		.byte	0x4
 4513 0138 7B000000 		.4byte	0x7b
 4514 013c 04       		.uleb128 0x4
 4515 013d B3000000 		.4byte	.LASF19
 4516 0141 04       		.byte	0x4
 4517 0142 68       		.byte	0x68
 4518 0143 7B000000 		.4byte	0x7b
 4519 0147 06       		.uleb128 0x6
ARM GAS  /cygdrive/c/Users/Zbyszko/AppData/Local/Temp/ccaXFopk.s 			page 105


 4520 0148 70010000 		.4byte	0x170
 4521 014c BA000000 		.4byte	.LASF21
 4522 0150 18       		.byte	0x18
 4523 0151 04       		.byte	0x4
 4524 0152 70       		.byte	0x70
 4525 0153 07       		.uleb128 0x7
 4526 0154 A6030000 		.4byte	.LASF22
 4527 0158 04       		.byte	0x4
 4528 0159 71       		.byte	0x71
 4529 015a 70010000 		.4byte	0x170
 4530 015e 02       		.byte	0x2
 4531 015f 23       		.byte	0x23
 4532 0160 00       		.uleb128 0x0
 4533 0161 07       		.uleb128 0x7
 4534 0162 DA030000 		.4byte	.LASF23
 4535 0166 04       		.byte	0x4
 4536 0167 72       		.byte	0x72
 4537 0168 87010000 		.4byte	0x187
 4538 016c 02       		.byte	0x2
 4539 016d 23       		.byte	0x23
 4540 016e 14       		.uleb128 0x14
 4541 016f 00       		.byte	0x0
 4542 0170 0A       		.uleb128 0xa
 4543 0171 80010000 		.4byte	0x180
 4544 0175 87010000 		.4byte	0x187
 4545 0179 0B       		.uleb128 0xb
 4546 017a 80010000 		.4byte	0x180
 4547 017e 04       		.byte	0x4
 4548 017f 00       		.byte	0x0
 4549 0180 03       		.uleb128 0x3
 4550 0181 0B020000 		.4byte	.LASF24
 4551 0185 04       		.byte	0x4
 4552 0186 07       		.byte	0x7
 4553 0187 09       		.uleb128 0x9
 4554 0188 04       		.byte	0x4
 4555 0189 3C010000 		.4byte	0x13c
 4556 018d 04       		.uleb128 0x4
 4557 018e 30040000 		.4byte	.LASF25
 4558 0192 04       		.byte	0x4
 4559 0193 73       		.byte	0x73
 4560 0194 47010000 		.4byte	0x147
 4561 0198 06       		.uleb128 0x6
 4562 0199 B3010000 		.4byte	0x1b3
 4563 019d 7B020000 		.4byte	.LASF26
 4564 01a1 18       		.byte	0x18
 4565 01a2 04       		.byte	0x4
 4566 01a3 76       		.byte	0x76
 4567 01a4 07       		.uleb128 0x7
 4568 01a5 CF010000 		.4byte	.LASF27
 4569 01a9 04       		.byte	0x4
 4570 01aa 77       		.byte	0x77
 4571 01ab 8D010000 		.4byte	0x18d
 4572 01af 02       		.byte	0x2
 4573 01b0 23       		.byte	0x23
 4574 01b1 00       		.uleb128 0x0
 4575 01b2 00       		.byte	0x0
 4576 01b3 04       		.uleb128 0x4
ARM GAS  /cygdrive/c/Users/Zbyszko/AppData/Local/Temp/ccaXFopk.s 			page 106


 4577 01b4 F6030000 		.4byte	.LASF28
 4578 01b8 04       		.byte	0x4
 4579 01b9 78       		.byte	0x78
 4580 01ba 98010000 		.4byte	0x198
 4581 01be 06       		.uleb128 0x6
 4582 01bf E6010000 		.4byte	0x1e6
 4583 01c3 46040000 		.4byte	.LASF29
 4584 01c7 1C       		.byte	0x1c
 4585 01c8 04       		.byte	0x4
 4586 01c9 7B       		.byte	0x7b
 4587 01ca 08       		.uleb128 0x8
 4588 01cb 657600   		.ascii	"ev\000"
 4589 01ce 04       		.byte	0x4
 4590 01cf 7C       		.byte	0x7c
 4591 01d0 B3010000 		.4byte	0x1b3
 4592 01d4 02       		.byte	0x2
 4593 01d5 23       		.byte	0x23
 4594 01d6 00       		.uleb128 0x0
 4595 01d7 08       		.uleb128 0x8
 4596 01d8 636E7400 		.ascii	"cnt\000"
 4597 01dc 04       		.byte	0x4
 4598 01dd 7D       		.byte	0x7d
 4599 01de 37000000 		.4byte	0x37
 4600 01e2 02       		.byte	0x2
 4601 01e3 23       		.byte	0x23
 4602 01e4 18       		.uleb128 0x18
 4603 01e5 00       		.byte	0x0
 4604 01e6 04       		.uleb128 0x4
 4605 01e7 1E000000 		.4byte	.LASF30
 4606 01eb 04       		.byte	0x4
 4607 01ec 7F       		.byte	0x7f
 4608 01ed BE010000 		.4byte	0x1be
 4609 01f1 0C       		.uleb128 0xc
 4610 01f2 04       		.byte	0x4
 4611 01f3 03       		.uleb128 0x3
 4612 01f4 0B020000 		.4byte	.LASF24
 4613 01f8 04       		.byte	0x4
 4614 01f9 07       		.byte	0x7
 4615 01fa 03       		.uleb128 0x3
 4616 01fb 0D010000 		.4byte	.LASF31
 4617 01ff 04       		.byte	0x4
 4618 0200 05       		.byte	0x5
 4619 0201 03       		.uleb128 0x3
 4620 0202 D9000000 		.4byte	.LASF32
 4621 0206 08       		.byte	0x8
 4622 0207 05       		.byte	0x5
 4623 0208 03       		.uleb128 0x3
 4624 0209 4F030000 		.4byte	.LASF33
 4625 020d 01       		.byte	0x1
 4626 020e 08       		.byte	0x8
 4627 020f 03       		.uleb128 0x3
 4628 0210 87000000 		.4byte	.LASF34
 4629 0214 08       		.byte	0x8
 4630 0215 07       		.byte	0x7
 4631 0216 0D       		.uleb128 0xd
 4632 0217 E3020000 		.4byte	0x2e3
 4633 021b 30       		.byte	0x30
ARM GAS  /cygdrive/c/Users/Zbyszko/AppData/Local/Temp/ccaXFopk.s 			page 107


 4634 021c 03       		.byte	0x3
 4635 021d 1A       		.byte	0x1a
 4636 021e 07       		.uleb128 0x7
 4637 021f 41040000 		.4byte	.LASF35
 4638 0223 03       		.byte	0x3
 4639 0224 1B       		.byte	0x1b
 4640 0225 25000000 		.4byte	0x25
 4641 0229 02       		.byte	0x2
 4642 022a 23       		.byte	0x23
 4643 022b 00       		.uleb128 0x0
 4644 022c 07       		.uleb128 0x7
 4645 022d D5030000 		.4byte	.LASF36
 4646 0231 03       		.byte	0x3
 4647 0232 1C       		.byte	0x1c
 4648 0233 25000000 		.4byte	0x25
 4649 0237 02       		.byte	0x2
 4650 0238 23       		.byte	0x23
 4651 0239 01       		.uleb128 0x1
 4652 023a 07       		.uleb128 0x7
 4653 023b 45030000 		.4byte	.LASF37
 4654 023f 03       		.byte	0x3
 4655 0240 1D       		.byte	0x1d
 4656 0241 25000000 		.4byte	0x25
 4657 0245 02       		.byte	0x2
 4658 0246 23       		.byte	0x23
 4659 0247 02       		.uleb128 0x2
 4660 0248 07       		.uleb128 0x7
 4661 0249 3A010000 		.4byte	.LASF38
 4662 024d 03       		.byte	0x3
 4663 024e 1E       		.byte	0x1e
 4664 024f 25000000 		.4byte	0x25
 4665 0253 02       		.byte	0x2
 4666 0254 23       		.byte	0x23
 4667 0255 03       		.uleb128 0x3
 4668 0256 07       		.uleb128 0x7
 4669 0257 9C010000 		.4byte	.LASF39
 4670 025b 03       		.byte	0x3
 4671 025c 1F       		.byte	0x1f
 4672 025d 25000000 		.4byte	0x25
 4673 0261 02       		.byte	0x2
 4674 0262 23       		.byte	0x23
 4675 0263 04       		.uleb128 0x4
 4676 0264 07       		.uleb128 0x7
 4677 0265 C1010000 		.4byte	.LASF40
 4678 0269 03       		.byte	0x3
 4679 026a 20       		.byte	0x20
 4680 026b 25000000 		.4byte	0x25
 4681 026f 02       		.byte	0x2
 4682 0270 23       		.byte	0x23
 4683 0271 05       		.uleb128 0x5
 4684 0272 07       		.uleb128 0x7
 4685 0273 75040000 		.4byte	.LASF41
 4686 0277 03       		.byte	0x3
 4687 0278 21       		.byte	0x21
 4688 0279 30010000 		.4byte	0x130
 4689 027d 02       		.byte	0x2
 4690 027e 23       		.byte	0x23
ARM GAS  /cygdrive/c/Users/Zbyszko/AppData/Local/Temp/ccaXFopk.s 			page 108


 4691 027f 08       		.uleb128 0x8
 4692 0280 07       		.uleb128 0x7
 4693 0281 F0010000 		.4byte	.LASF42
 4694 0285 03       		.byte	0x3
 4695 0286 22       		.byte	0x22
 4696 0287 25000000 		.4byte	0x25
 4697 028b 02       		.byte	0x2
 4698 028c 23       		.byte	0x23
 4699 028d 0C       		.uleb128 0xc
 4700 028e 07       		.uleb128 0x7
 4701 028f 86020000 		.4byte	.LASF43
 4702 0293 03       		.byte	0x3
 4703 0294 23       		.byte	0x23
 4704 0295 E3020000 		.4byte	0x2e3
 4705 0299 02       		.byte	0x2
 4706 029a 23       		.byte	0x23
 4707 029b 10       		.uleb128 0x10
 4708 029c 07       		.uleb128 0x7
 4709 029d 8E020000 		.4byte	.LASF44
 4710 02a1 03       		.byte	0x3
 4711 02a2 24       		.byte	0x24
 4712 02a3 25000000 		.4byte	0x25
 4713 02a7 02       		.byte	0x2
 4714 02a8 23       		.byte	0x23
 4715 02a9 28       		.uleb128 0x28
 4716 02aa 07       		.uleb128 0x7
 4717 02ab CD000000 		.4byte	.LASF45
 4718 02af 03       		.byte	0x3
 4719 02b0 25       		.byte	0x25
 4720 02b1 25000000 		.4byte	0x25
 4721 02b5 02       		.byte	0x2
 4722 02b6 23       		.byte	0x23
 4723 02b7 29       		.uleb128 0x29
 4724 02b8 07       		.uleb128 0x7
 4725 02b9 EA030000 		.4byte	.LASF46
 4726 02bd 03       		.byte	0x3
 4727 02be 26       		.byte	0x26
 4728 02bf 25000000 		.4byte	0x25
 4729 02c3 02       		.byte	0x2
 4730 02c4 23       		.byte	0x23
 4731 02c5 2A       		.uleb128 0x2a
 4732 02c6 07       		.uleb128 0x7
 4733 02c7 B4010000 		.4byte	.LASF47
 4734 02cb 03       		.byte	0x3
 4735 02cc 27       		.byte	0x27
 4736 02cd 25000000 		.4byte	0x25
 4737 02d1 02       		.byte	0x2
 4738 02d2 23       		.byte	0x23
 4739 02d3 2B       		.uleb128 0x2b
 4740 02d4 07       		.uleb128 0x7
 4741 02d5 9E000000 		.4byte	.LASF48
 4742 02d9 03       		.byte	0x3
 4743 02da 28       		.byte	0x28
 4744 02db 25000000 		.4byte	0x25
 4745 02df 02       		.byte	0x2
 4746 02e0 23       		.byte	0x23
 4747 02e1 2C       		.uleb128 0x2c
ARM GAS  /cygdrive/c/Users/Zbyszko/AppData/Local/Temp/ccaXFopk.s 			page 109


 4748 02e2 00       		.byte	0x0
 4749 02e3 0A       		.uleb128 0xa
 4750 02e4 F3020000 		.4byte	0x2f3
 4751 02e8 30010000 		.4byte	0x130
 4752 02ec 0B       		.uleb128 0xb
 4753 02ed 80010000 		.4byte	0x180
 4754 02f1 05       		.byte	0x5
 4755 02f2 00       		.byte	0x0
 4756 02f3 04       		.uleb128 0x4
 4757 02f4 0A030000 		.4byte	.LASF49
 4758 02f8 03       		.byte	0x3
 4759 02f9 29       		.byte	0x29
 4760 02fa 16020000 		.4byte	0x216
 4761 02fe 0D       		.uleb128 0xd
 4762 02ff 31030000 		.4byte	0x331
 4763 0303 20       		.byte	0x20
 4764 0304 01       		.byte	0x1
 4765 0305 29       		.byte	0x29
 4766 0306 07       		.uleb128 0x7
 4767 0307 E9010000 		.4byte	.LASF50
 4768 030b 01       		.byte	0x1
 4769 030c 2A       		.byte	0x2a
 4770 030d 25000000 		.4byte	0x25
 4771 0311 02       		.byte	0x2
 4772 0312 23       		.byte	0x23
 4773 0313 00       		.uleb128 0x0
 4774 0314 07       		.uleb128 0x7
 4775 0315 D1020000 		.4byte	.LASF51
 4776 0319 01       		.byte	0x1
 4777 031a 2B       		.byte	0x2b
 4778 031b 31030000 		.4byte	0x331
 4779 031f 02       		.byte	0x2
 4780 0320 23       		.byte	0x23
 4781 0321 01       		.uleb128 0x1
 4782 0322 07       		.uleb128 0x7
 4783 0323 64040000 		.4byte	.LASF52
 4784 0327 01       		.byte	0x1
 4785 0328 2C       		.byte	0x2c
 4786 0329 41030000 		.4byte	0x341
 4787 032d 02       		.byte	0x2
 4788 032e 23       		.byte	0x23
 4789 032f 0E       		.uleb128 0xe
 4790 0330 00       		.byte	0x0
 4791 0331 0A       		.uleb128 0xa
 4792 0332 41030000 		.4byte	0x341
 4793 0336 25000000 		.4byte	0x25
 4794 033a 0B       		.uleb128 0xb
 4795 033b 80010000 		.4byte	0x180
 4796 033f 0C       		.byte	0xc
 4797 0340 00       		.byte	0x0
 4798 0341 0A       		.uleb128 0xa
 4799 0342 51030000 		.4byte	0x351
 4800 0346 25000000 		.4byte	0x25
 4801 034a 0B       		.uleb128 0xb
 4802 034b 80010000 		.4byte	0x180
 4803 034f 10       		.byte	0x10
 4804 0350 00       		.byte	0x0
ARM GAS  /cygdrive/c/Users/Zbyszko/AppData/Local/Temp/ccaXFopk.s 			page 110


 4805 0351 04       		.uleb128 0x4
 4806 0352 67000000 		.4byte	.LASF53
 4807 0356 01       		.byte	0x1
 4808 0357 2D       		.byte	0x2d
 4809 0358 FE020000 		.4byte	0x2fe
 4810 035c 0E       		.uleb128 0xe
 4811 035d 01       		.byte	0x1
 4812 035e 6A030000 		.4byte	.LASF109
 4813 0362 01       		.byte	0x1
 4814 0363 CD04     		.2byte	0x4cd
 4815 0365 01       		.byte	0x1
 4816 0366 00000000 		.4byte	.LFB17
 4817 036a 18000000 		.4byte	.LFE17
 4818 036e 00000000 		.4byte	.LLST0
 4819 0372 0F       		.uleb128 0xf
 4820 0373 9C030000 		.4byte	0x39c
 4821 0377 EE020000 		.4byte	.LASF54
 4822 037b 01       		.byte	0x1
 4823 037c EE03     		.2byte	0x3ee
 4824 037e 01       		.byte	0x1
 4825 037f 18000000 		.4byte	.LFB12
 4826 0383 60000000 		.4byte	.LFE12
 4827 0387 1F000000 		.4byte	.LLST1
 4828 038b 10       		.uleb128 0x10
 4829 038c 2A020000 		.4byte	.LASF56
 4830 0390 01       		.byte	0x1
 4831 0391 ED03     		.2byte	0x3ed
 4832 0393 70000000 		.4byte	0x70
 4833 0397 3E000000 		.4byte	.LLST2
 4834 039b 00       		.byte	0x0
 4835 039c 11       		.uleb128 0x11
 4836 039d C6030000 		.4byte	0x3c6
 4837 03a1 01       		.byte	0x1
 4838 03a2 0F000000 		.4byte	.LASF89
 4839 03a6 01       		.byte	0x1
 4840 03a7 DD04     		.2byte	0x4dd
 4841 03a9 01       		.byte	0x1
 4842 03aa 60000000 		.4byte	.LFB18
 4843 03ae 94000000 		.4byte	.LFE18
 4844 03b2 67000000 		.4byte	.LLST3
 4845 03b6 12       		.uleb128 0x12
 4846 03b7 DB020000 		.4byte	.LASF58
 4847 03bb 01       		.byte	0x1
 4848 03bc DE04     		.2byte	0x4de
 4849 03be 25000000 		.4byte	0x25
 4850 03c2 02       		.byte	0x2
 4851 03c3 91       		.byte	0x91
 4852 03c4 7B       		.sleb128 -5
 4853 03c5 00       		.byte	0x0
 4854 03c6 0F       		.uleb128 0xf
 4855 03c7 00040000 		.4byte	0x400
 4856 03cb 76000000 		.4byte	.LASF55
 4857 03cf 01       		.byte	0x1
 4858 03d0 4704     		.2byte	0x447
 4859 03d2 01       		.byte	0x1
 4860 03d3 94000000 		.4byte	.LFB14
 4861 03d7 44010000 		.4byte	.LFE14
ARM GAS  /cygdrive/c/Users/Zbyszko/AppData/Local/Temp/ccaXFopk.s 			page 111


 4862 03db 92000000 		.4byte	.LLST4
 4863 03df 10       		.uleb128 0x10
 4864 03e0 CA020000 		.4byte	.LASF57
 4865 03e4 01       		.byte	0x1
 4866 03e5 4604     		.2byte	0x446
 4867 03e7 25000000 		.4byte	0x25
 4868 03eb B1000000 		.4byte	.LLST5
 4869 03ef 13       		.uleb128 0x13
 4870 03f0 726F7700 		.ascii	"row\000"
 4871 03f4 01       		.byte	0x1
 4872 03f5 4804     		.2byte	0x448
 4873 03f7 49000000 		.4byte	0x49
 4874 03fb C4000000 		.4byte	.LLST6
 4875 03ff 00       		.byte	0x0
 4876 0400 14       		.uleb128 0x14
 4877 0401 46040000 		.4byte	0x446
 4878 0405 8F010000 		.4byte	.LASF59
 4879 0409 01       		.byte	0x1
 4880 040a D3       		.byte	0xd3
 4881 040b 01       		.byte	0x1
 4882 040c 44010000 		.4byte	.LFB5
 4883 0410 C0010000 		.4byte	.LFE5
 4884 0414 D7000000 		.4byte	.LLST7
 4885 0418 15       		.uleb128 0x15
 4886 0419 25040000 		.4byte	.LASF60
 4887 041d 01       		.byte	0x1
 4888 041e D2       		.byte	0xd2
 4889 041f 70000000 		.4byte	0x70
 4890 0423 02010000 		.4byte	.LLST8
 4891 0427 15       		.uleb128 0x15
 4892 0428 71020000 		.4byte	.LASF61
 4893 042c 01       		.byte	0x1
 4894 042d D2       		.byte	0xd2
 4895 042e 25000000 		.4byte	0x25
 4896 0432 21010000 		.4byte	.LLST9
 4897 0436 16       		.uleb128 0x16
 4898 0437 726F7700 		.ascii	"row\000"
 4899 043b 01       		.byte	0x1
 4900 043c D4       		.byte	0xd4
 4901 043d 49000000 		.4byte	0x49
 4902 0441 3F010000 		.4byte	.LLST10
 4903 0445 00       		.byte	0x0
 4904 0446 0F       		.uleb128 0xf
 4905 0447 7C040000 		.4byte	0x47c
 4906 044b BF020000 		.4byte	.LASF62
 4907 044f 01       		.byte	0x1
 4908 0450 E702     		.2byte	0x2e7
 4909 0452 01       		.byte	0x1
 4910 0453 C0010000 		.4byte	.LFB9
 4911 0457 04020000 		.4byte	.LFE9
 4912 045b 52010000 		.4byte	.LLST11
 4913 045f 10       		.uleb128 0x10
 4914 0460 CA020000 		.4byte	.LASF57
 4915 0464 01       		.byte	0x1
 4916 0465 E602     		.2byte	0x2e6
 4917 0467 25000000 		.4byte	0x25
 4918 046b 71010000 		.4byte	.LLST12
ARM GAS  /cygdrive/c/Users/Zbyszko/AppData/Local/Temp/ccaXFopk.s 			page 112


 4919 046f 17       		.uleb128 0x17
 4920 0470 636F6C00 		.ascii	"col\000"
 4921 0474 01       		.byte	0x1
 4922 0475 E802     		.2byte	0x2e8
 4923 0477 49000000 		.4byte	0x49
 4924 047b 00       		.byte	0x0
 4925 047c 0F       		.uleb128 0xf
 4926 047d B2040000 		.4byte	0x4b2
 4927 0481 BF030000 		.4byte	.LASF63
 4928 0485 01       		.byte	0x1
 4929 0486 2102     		.2byte	0x221
 4930 0488 01       		.byte	0x1
 4931 0489 04020000 		.4byte	.LFB7
 4932 048d 48020000 		.4byte	.LFE7
 4933 0491 8F010000 		.4byte	.LLST13
 4934 0495 10       		.uleb128 0x10
 4935 0496 CA020000 		.4byte	.LASF57
 4936 049a 01       		.byte	0x1
 4937 049b 2002     		.2byte	0x220
 4938 049d 25000000 		.4byte	0x25
 4939 04a1 AE010000 		.4byte	.LLST14
 4940 04a5 17       		.uleb128 0x17
 4941 04a6 636F6C00 		.ascii	"col\000"
 4942 04aa 01       		.byte	0x1
 4943 04ab 2202     		.2byte	0x222
 4944 04ad 49000000 		.4byte	0x49
 4945 04b1 00       		.byte	0x0
 4946 04b2 14       		.uleb128 0x14
 4947 04b3 E9040000 		.4byte	0x4e9
 4948 04b7 54010000 		.4byte	.LASF64
 4949 04bb 01       		.byte	0x1
 4950 04bc C2       		.byte	0xc2
 4951 04bd 01       		.byte	0x1
 4952 04be 48020000 		.4byte	.LFB4
 4953 04c2 6A020000 		.4byte	.LFE4
 4954 04c6 CC010000 		.4byte	.LLST15
 4955 04ca 15       		.uleb128 0x15
 4956 04cb 90030000 		.4byte	.LASF65
 4957 04cf 01       		.byte	0x1
 4958 04d0 C1       		.byte	0xc1
 4959 04d1 30010000 		.4byte	0x130
 4960 04d5 EB010000 		.4byte	.LLST16
 4961 04d9 15       		.uleb128 0x15
 4962 04da 3B040000 		.4byte	.LASF66
 4963 04de 01       		.byte	0x1
 4964 04df C1       		.byte	0xc1
 4965 04e0 25000000 		.4byte	0x25
 4966 04e4 09020000 		.4byte	.LLST17
 4967 04e8 00       		.byte	0x0
 4968 04e9 0F       		.uleb128 0xf
 4969 04ea A7050000 		.4byte	0x5a7
 4970 04ee B0030000 		.4byte	.LASF67
 4971 04f2 01       		.byte	0x1
 4972 04f3 0B04     		.2byte	0x40b
 4973 04f5 01       		.byte	0x1
 4974 04f6 6C020000 		.4byte	.LFB13
 4975 04fa DC030000 		.4byte	.LFE13
ARM GAS  /cygdrive/c/Users/Zbyszko/AppData/Local/Temp/ccaXFopk.s 			page 113


 4976 04fe 27020000 		.4byte	.LLST18
 4977 0502 18       		.uleb128 0x18
 4978 0503 5E050000 		.4byte	0x55e
 4979 0507 98020000 		.4byte	.LBB2
 4980 050b 30030000 		.4byte	.LBE2
 4981 050f 12       		.uleb128 0x12
 4982 0510 76030000 		.4byte	.LASF68
 4983 0514 01       		.byte	0x1
 4984 0515 1304     		.2byte	0x413
 4985 0517 A7050000 		.4byte	0x5a7
 4986 051b 02       		.byte	0x2
 4987 051c 91       		.byte	0x91
 4988 051d 5A       		.sleb128 -38
 4989 051e 12       		.uleb128 0x12
 4990 051f 83030000 		.4byte	.LASF69
 4991 0523 01       		.byte	0x1
 4992 0524 1404     		.2byte	0x414
 4993 0526 B7050000 		.4byte	0x5b7
 4994 052a 03       		.byte	0x3
 4995 052b 91       		.byte	0x91
 4996 052c B37F     		.sleb128 -77
 4997 052e 12       		.uleb128 0x12
 4998 052f 35000000 		.4byte	.LASF70
 4999 0533 01       		.byte	0x1
 5000 0534 1504     		.2byte	0x415
 5001 0536 C7050000 		.4byte	0x5c7
 5002 053a 02       		.byte	0x2
 5003 053b 91       		.byte	0x91
 5004 053c 40       		.sleb128 -64
 5005 053d 12       		.uleb128 0x12
 5006 053e 99030000 		.4byte	.LASF71
 5007 0542 01       		.byte	0x1
 5008 0543 1604     		.2byte	0x416
 5009 0545 D7050000 		.4byte	0x5d7
 5010 0549 03       		.byte	0x3
 5011 054a 91       		.byte	0x91
 5012 054b 977F     		.sleb128 -105
 5013 054d 12       		.uleb128 0x12
 5014 054e 1D020000 		.4byte	.LASF72
 5015 0552 01       		.byte	0x1
 5016 0553 1704     		.2byte	0x417
 5017 0555 E7050000 		.4byte	0x5e7
 5018 0559 03       		.byte	0x3
 5019 055a 91       		.byte	0x91
 5020 055b A57F     		.sleb128 -91
 5021 055d 00       		.byte	0x0
 5022 055e 19       		.uleb128 0x19
 5023 055f 30030000 		.4byte	.LBB3
 5024 0563 A8030000 		.4byte	.LBE3
 5025 0567 12       		.uleb128 0x12
 5026 0568 76030000 		.4byte	.LASF68
 5027 056c 01       		.byte	0x1
 5028 056d 2804     		.2byte	0x428
 5029 056f F7050000 		.4byte	0x5f7
 5030 0573 02       		.byte	0x2
 5031 0574 91       		.byte	0x91
 5032 0575 63       		.sleb128 -29
ARM GAS  /cygdrive/c/Users/Zbyszko/AppData/Local/Temp/ccaXFopk.s 			page 114


 5033 0576 12       		.uleb128 0x12
 5034 0577 83030000 		.4byte	.LASF69
 5035 057b 01       		.byte	0x1
 5036 057c 2904     		.2byte	0x429
 5037 057e 07060000 		.4byte	0x607
 5038 0582 02       		.byte	0x2
 5039 0583 91       		.byte	0x91
 5040 0584 4D       		.sleb128 -51
 5041 0585 12       		.uleb128 0x12
 5042 0586 35000000 		.4byte	.LASF70
 5043 058a 01       		.byte	0x1
 5044 058b 2A04     		.2byte	0x42a
 5045 058d 17060000 		.4byte	0x617
 5046 0591 03       		.byte	0x3
 5047 0592 91       		.byte	0x91
 5048 0593 897F     		.sleb128 -119
 5049 0595 12       		.uleb128 0x12
 5050 0596 99030000 		.4byte	.LASF71
 5051 059a 01       		.byte	0x1
 5052 059b 2B04     		.2byte	0x42b
 5053 059d 27060000 		.4byte	0x627
 5054 05a1 03       		.byte	0x3
 5055 05a2 91       		.byte	0x91
 5056 05a3 FA7E     		.sleb128 -134
 5057 05a5 00       		.byte	0x0
 5058 05a6 00       		.byte	0x0
 5059 05a7 0A       		.uleb128 0xa
 5060 05a8 B7050000 		.4byte	0x5b7
 5061 05ac 25000000 		.4byte	0x25
 5062 05b0 0B       		.uleb128 0xb
 5063 05b1 80010000 		.4byte	0x180
 5064 05b5 08       		.byte	0x8
 5065 05b6 00       		.byte	0x0
 5066 05b7 0A       		.uleb128 0xa
 5067 05b8 C7050000 		.4byte	0x5c7
 5068 05bc 25000000 		.4byte	0x25
 5069 05c0 0B       		.uleb128 0xb
 5070 05c1 80010000 		.4byte	0x180
 5071 05c5 0C       		.byte	0xc
 5072 05c6 00       		.byte	0x0
 5073 05c7 0A       		.uleb128 0xa
 5074 05c8 D7050000 		.4byte	0x5d7
 5075 05cc 25000000 		.4byte	0x25
 5076 05d0 0B       		.uleb128 0xb
 5077 05d1 80010000 		.4byte	0x180
 5078 05d5 0C       		.byte	0xc
 5079 05d6 00       		.byte	0x0
 5080 05d7 0A       		.uleb128 0xa
 5081 05d8 E7050000 		.4byte	0x5e7
 5082 05dc 25000000 		.4byte	0x25
 5083 05e0 0B       		.uleb128 0xb
 5084 05e1 80010000 		.4byte	0x180
 5085 05e5 0D       		.byte	0xd
 5086 05e6 00       		.byte	0x0
 5087 05e7 0A       		.uleb128 0xa
 5088 05e8 F7050000 		.4byte	0x5f7
 5089 05ec 25000000 		.4byte	0x25
ARM GAS  /cygdrive/c/Users/Zbyszko/AppData/Local/Temp/ccaXFopk.s 			page 115


 5090 05f0 0B       		.uleb128 0xb
 5091 05f1 80010000 		.4byte	0x180
 5092 05f5 0D       		.byte	0xd
 5093 05f6 00       		.byte	0x0
 5094 05f7 0A       		.uleb128 0xa
 5095 05f8 07060000 		.4byte	0x607
 5096 05fc 25000000 		.4byte	0x25
 5097 0600 0B       		.uleb128 0xb
 5098 0601 80010000 		.4byte	0x180
 5099 0605 08       		.byte	0x8
 5100 0606 00       		.byte	0x0
 5101 0607 0A       		.uleb128 0xa
 5102 0608 17060000 		.4byte	0x617
 5103 060c 25000000 		.4byte	0x25
 5104 0610 0B       		.uleb128 0xb
 5105 0611 80010000 		.4byte	0x180
 5106 0615 0C       		.byte	0xc
 5107 0616 00       		.byte	0x0
 5108 0617 0A       		.uleb128 0xa
 5109 0618 27060000 		.4byte	0x627
 5110 061c 25000000 		.4byte	0x25
 5111 0620 0B       		.uleb128 0xb
 5112 0621 80010000 		.4byte	0x180
 5113 0625 0D       		.byte	0xd
 5114 0626 00       		.byte	0x0
 5115 0627 0A       		.uleb128 0xa
 5116 0628 37060000 		.4byte	0x637
 5117 062c 25000000 		.4byte	0x25
 5118 0630 0B       		.uleb128 0xb
 5119 0631 80010000 		.4byte	0x180
 5120 0635 0E       		.byte	0xe
 5121 0636 00       		.byte	0x0
 5122 0637 0F       		.uleb128 0xf
 5123 0638 A6060000 		.4byte	0x6a6
 5124 063c 9E020000 		.4byte	.LASF73
 5125 0640 01       		.byte	0x1
 5126 0641 C203     		.2byte	0x3c2
 5127 0643 01       		.byte	0x1
 5128 0644 DC030000 		.4byte	.LFB11
 5129 0648 B4040000 		.4byte	.LFE11
 5130 064c 53020000 		.4byte	.LLST19
 5131 0650 18       		.uleb128 0x18
 5132 0651 7D060000 		.4byte	0x67d
 5133 0655 08040000 		.4byte	.LBB4
 5134 0659 46040000 		.4byte	.LBE4
 5135 065d 12       		.uleb128 0x12
 5136 065e 76030000 		.4byte	.LASF68
 5137 0662 01       		.byte	0x1
 5138 0663 CA03     		.2byte	0x3ca
 5139 0665 A6060000 		.4byte	0x6a6
 5140 0669 02       		.byte	0x2
 5141 066a 91       		.byte	0x91
 5142 066b 57       		.sleb128 -41
 5143 066c 12       		.uleb128 0x12
 5144 066d 83030000 		.4byte	.LASF69
 5145 0671 01       		.byte	0x1
 5146 0672 CB03     		.2byte	0x3cb
ARM GAS  /cygdrive/c/Users/Zbyszko/AppData/Local/Temp/ccaXFopk.s 			page 116


 5147 0674 B6060000 		.4byte	0x6b6
 5148 0678 03       		.byte	0x3
 5149 0679 91       		.byte	0x91
 5150 067a BE7F     		.sleb128 -66
 5151 067c 00       		.byte	0x0
 5152 067d 19       		.uleb128 0x19
 5153 067e 46040000 		.4byte	.LBB5
 5154 0682 8C040000 		.4byte	.LBE5
 5155 0686 12       		.uleb128 0x12
 5156 0687 76030000 		.4byte	.LASF68
 5157 068b 01       		.byte	0x1
 5158 068c D603     		.2byte	0x3d6
 5159 068e C6060000 		.4byte	0x6c6
 5160 0692 02       		.byte	0x2
 5161 0693 91       		.byte	0x91
 5162 0694 4B       		.sleb128 -53
 5163 0695 12       		.uleb128 0x12
 5164 0696 83030000 		.4byte	.LASF69
 5165 069a 01       		.byte	0x1
 5166 069b D703     		.2byte	0x3d7
 5167 069d D6060000 		.4byte	0x6d6
 5168 06a1 02       		.byte	0x2
 5169 06a2 91       		.byte	0x91
 5170 06a3 62       		.sleb128 -30
 5171 06a4 00       		.byte	0x0
 5172 06a5 00       		.byte	0x0
 5173 06a6 0A       		.uleb128 0xa
 5174 06a7 B6060000 		.4byte	0x6b6
 5175 06ab 25000000 		.4byte	0x25
 5176 06af 0B       		.uleb128 0xb
 5177 06b0 80010000 		.4byte	0x180
 5178 06b4 0A       		.byte	0xa
 5179 06b5 00       		.byte	0x0
 5180 06b6 0A       		.uleb128 0xa
 5181 06b7 C6060000 		.4byte	0x6c6
 5182 06bb 25000000 		.4byte	0x25
 5183 06bf 0B       		.uleb128 0xb
 5184 06c0 80010000 		.4byte	0x180
 5185 06c4 0C       		.byte	0xc
 5186 06c5 00       		.byte	0x0
 5187 06c6 0A       		.uleb128 0xa
 5188 06c7 D6060000 		.4byte	0x6d6
 5189 06cb 25000000 		.4byte	0x25
 5190 06cf 0B       		.uleb128 0xb
 5191 06d0 80010000 		.4byte	0x180
 5192 06d4 0B       		.byte	0xb
 5193 06d5 00       		.byte	0x0
 5194 06d6 0A       		.uleb128 0xa
 5195 06d7 E6060000 		.4byte	0x6e6
 5196 06db 25000000 		.4byte	0x25
 5197 06df 0B       		.uleb128 0xb
 5198 06e0 80010000 		.4byte	0x180
 5199 06e4 09       		.byte	0x9
 5200 06e5 00       		.byte	0x0
 5201 06e6 1A       		.uleb128 0x1a
 5202 06e7 AC020000 		.4byte	.LASF110
 5203 06eb 01       		.byte	0x1
ARM GAS  /cygdrive/c/Users/Zbyszko/AppData/Local/Temp/ccaXFopk.s 			page 117


 5204 06ec 6804     		.2byte	0x468
 5205 06ee 01       		.byte	0x1
 5206 06ef B4040000 		.4byte	.LFB15
 5207 06f3 78050000 		.4byte	.LFE15
 5208 06f7 7F020000 		.4byte	.LLST20
 5209 06fb 1B       		.uleb128 0x1b
 5210 06fc CA070000 		.4byte	0x7ca
 5211 0700 E0030000 		.4byte	.LASF74
 5212 0704 01       		.byte	0x1
 5213 0705 F6       		.byte	0xf6
 5214 0706 01       		.byte	0x1
 5215 0707 01       		.byte	0x1
 5216 0708 1C       		.uleb128 0x1c
 5217 0709 AC000000 		.4byte	.LASF75
 5218 070d 01       		.byte	0x1
 5219 070e F7       		.byte	0xf7
 5220 070f 25000000 		.4byte	0x25
 5221 0713 1C       		.uleb128 0x1c
 5222 0714 71000000 		.4byte	.LASF76
 5223 0718 01       		.byte	0x1
 5224 0719 F8       		.byte	0xf8
 5225 071a 25000000 		.4byte	0x25
 5226 071e 1C       		.uleb128 0x1c
 5227 071f 4D010000 		.4byte	.LASF77
 5228 0723 01       		.byte	0x1
 5229 0724 F9       		.byte	0xf9
 5230 0725 25000000 		.4byte	0x25
 5231 0729 1C       		.uleb128 0x1c
 5232 072a 71020000 		.4byte	.LASF61
 5233 072e 01       		.byte	0x1
 5234 072f FA       		.byte	0xfa
 5235 0730 25000000 		.4byte	0x25
 5236 0734 1C       		.uleb128 0x1c
 5237 0735 6B040000 		.4byte	.LASF78
 5238 0739 01       		.byte	0x1
 5239 073a FB       		.byte	0xfb
 5240 073b CA070000 		.4byte	0x7ca
 5241 073f 1C       		.uleb128 0x1c
 5242 0740 16010000 		.4byte	.LASF79
 5243 0744 01       		.byte	0x1
 5244 0745 FC       		.byte	0xfc
 5245 0746 25000000 		.4byte	0x25
 5246 074a 1C       		.uleb128 0x1c
 5247 074b DB020000 		.4byte	.LASF58
 5248 074f 01       		.byte	0x1
 5249 0750 FD       		.byte	0xfd
 5250 0751 25000000 		.4byte	0x25
 5251 0755 1C       		.uleb128 0x1c
 5252 0756 B7020000 		.4byte	.LASF80
 5253 075a 01       		.byte	0x1
 5254 075b FE       		.byte	0xfe
 5255 075c CF070000 		.4byte	0x7cf
 5256 0760 1C       		.uleb128 0x1c
 5257 0761 96020000 		.4byte	.LASF81
 5258 0765 01       		.byte	0x1
 5259 0766 FF       		.byte	0xff
 5260 0767 25000000 		.4byte	0x25
ARM GAS  /cygdrive/c/Users/Zbyszko/AppData/Local/Temp/ccaXFopk.s 			page 118


 5261 076b 17       		.uleb128 0x17
 5262 076c 636E7400 		.ascii	"cnt\000"
 5263 0770 01       		.byte	0x1
 5264 0771 0001     		.2byte	0x100
 5265 0773 49000000 		.4byte	0x49
 5266 0777 1D       		.uleb128 0x1d
 5267 0778 FF010000 		.4byte	.LASF82
 5268 077c 01       		.byte	0x1
 5269 077d 0101     		.2byte	0x101
 5270 077f 25000000 		.4byte	0x25
 5271 0783 1E       		.uleb128 0x1e
 5272 0784 1D       		.uleb128 0x1d
 5273 0785 54030000 		.4byte	.LASF83
 5274 0789 01       		.byte	0x1
 5275 078a 8C01     		.2byte	0x18c
 5276 078c 41030000 		.4byte	0x341
 5277 0790 1D       		.uleb128 0x1d
 5278 0791 4F020000 		.4byte	.LASF84
 5279 0795 01       		.byte	0x1
 5280 0796 8D01     		.2byte	0x18d
 5281 0798 70000000 		.4byte	0x70
 5282 079c 1F       		.uleb128 0x1f
 5283 079d BA070000 		.4byte	0x7ba
 5284 07a1 1D       		.uleb128 0x1d
 5285 07a2 05030000 		.4byte	.LASF85
 5286 07a6 01       		.byte	0x1
 5287 07a7 AE01     		.2byte	0x1ae
 5288 07a9 30010000 		.4byte	0x130
 5289 07ad 1E       		.uleb128 0x1e
 5290 07ae 17       		.uleb128 0x17
 5291 07af 6900     		.ascii	"i\000"
 5292 07b1 01       		.byte	0x1
 5293 07b2 B401     		.2byte	0x1b4
 5294 07b4 25000000 		.4byte	0x25
 5295 07b8 00       		.byte	0x0
 5296 07b9 00       		.byte	0x0
 5297 07ba 1E       		.uleb128 0x1e
 5298 07bb 17       		.uleb128 0x17
 5299 07bc 73747200 		.ascii	"str\000"
 5300 07c0 01       		.byte	0x1
 5301 07c1 E201     		.2byte	0x1e2
 5302 07c3 DF070000 		.4byte	0x7df
 5303 07c7 00       		.byte	0x0
 5304 07c8 00       		.byte	0x0
 5305 07c9 00       		.byte	0x0
 5306 07ca 20       		.uleb128 0x20
 5307 07cb 49000000 		.4byte	0x49
 5308 07cf 0A       		.uleb128 0xa
 5309 07d0 DF070000 		.4byte	0x7df
 5310 07d4 25000000 		.4byte	0x25
 5311 07d8 0B       		.uleb128 0xb
 5312 07d9 80010000 		.4byte	0x180
 5313 07dd 1F       		.byte	0x1f
 5314 07de 00       		.byte	0x0
 5315 07df 0A       		.uleb128 0xa
 5316 07e0 EF070000 		.4byte	0x7ef
 5317 07e4 25000000 		.4byte	0x25
ARM GAS  /cygdrive/c/Users/Zbyszko/AppData/Local/Temp/ccaXFopk.s 			page 119


 5318 07e8 0B       		.uleb128 0xb
 5319 07e9 80010000 		.4byte	0x180
 5320 07ed 02       		.byte	0x2
 5321 07ee 00       		.byte	0x0
 5322 07ef 21       		.uleb128 0x21
 5323 07f0 76080000 		.4byte	0x876
 5324 07f4 2B010000 		.4byte	.LASF86
 5325 07f8 01       		.byte	0x1
 5326 07f9 FF02     		.2byte	0x2ff
 5327 07fb 01       		.byte	0x1
 5328 07fc 01       		.byte	0x1
 5329 07fd 1D       		.uleb128 0x1d
 5330 07fe AC000000 		.4byte	.LASF75
 5331 0802 01       		.byte	0x1
 5332 0803 0003     		.2byte	0x300
 5333 0805 25000000 		.4byte	0x25
 5334 0809 1D       		.uleb128 0x1d
 5335 080a 71000000 		.4byte	.LASF76
 5336 080e 01       		.byte	0x1
 5337 080f 0103     		.2byte	0x301
 5338 0811 25000000 		.4byte	0x25
 5339 0815 17       		.uleb128 0x17
 5340 0816 6900     		.ascii	"i\000"
 5341 0818 01       		.byte	0x1
 5342 0819 0203     		.2byte	0x302
 5343 081b 25000000 		.4byte	0x25
 5344 081f 1D       		.uleb128 0x1d
 5345 0820 4D010000 		.4byte	.LASF77
 5346 0824 01       		.byte	0x1
 5347 0825 0303     		.2byte	0x303
 5348 0827 25000000 		.4byte	0x25
 5349 082b 1D       		.uleb128 0x1d
 5350 082c 71020000 		.4byte	.LASF61
 5351 0830 01       		.byte	0x1
 5352 0831 0403     		.2byte	0x304
 5353 0833 25000000 		.4byte	0x25
 5354 0837 1D       		.uleb128 0x1d
 5355 0838 6B040000 		.4byte	.LASF78
 5356 083c 01       		.byte	0x1
 5357 083d 0503     		.2byte	0x305
 5358 083f 49000000 		.4byte	0x49
 5359 0843 1D       		.uleb128 0x1d
 5360 0844 16010000 		.4byte	.LASF79
 5361 0848 01       		.byte	0x1
 5362 0849 0603     		.2byte	0x306
 5363 084b 76080000 		.4byte	0x876
 5364 084f 1D       		.uleb128 0x1d
 5365 0850 DB020000 		.4byte	.LASF58
 5366 0854 01       		.byte	0x1
 5367 0855 0703     		.2byte	0x307
 5368 0857 25000000 		.4byte	0x25
 5369 085b 1D       		.uleb128 0x1d
 5370 085c B7020000 		.4byte	.LASF80
 5371 0860 01       		.byte	0x1
 5372 0861 0803     		.2byte	0x308
 5373 0863 CF070000 		.4byte	0x7cf
 5374 0867 1E       		.uleb128 0x1e
ARM GAS  /cygdrive/c/Users/Zbyszko/AppData/Local/Temp/ccaXFopk.s 			page 120


 5375 0868 1D       		.uleb128 0x1d
 5376 0869 20040000 		.4byte	.LASF87
 5377 086d 01       		.byte	0x1
 5378 086e 5B03     		.2byte	0x35b
 5379 0870 F3020000 		.4byte	0x2f3
 5380 0874 00       		.byte	0x0
 5381 0875 00       		.byte	0x0
 5382 0876 20       		.uleb128 0x20
 5383 0877 25000000 		.4byte	0x25
 5384 087b 21       		.uleb128 0x21
 5385 087c F8080000 		.4byte	0x8f8
 5386 0880 E1020000 		.4byte	.LASF88
 5387 0884 01       		.byte	0x1
 5388 0885 3902     		.2byte	0x239
 5389 0887 01       		.byte	0x1
 5390 0888 01       		.byte	0x1
 5391 0889 1D       		.uleb128 0x1d
 5392 088a AC000000 		.4byte	.LASF75
 5393 088e 01       		.byte	0x1
 5394 088f 3A02     		.2byte	0x23a
 5395 0891 25000000 		.4byte	0x25
 5396 0895 1D       		.uleb128 0x1d
 5397 0896 71000000 		.4byte	.LASF76
 5398 089a 01       		.byte	0x1
 5399 089b 3B02     		.2byte	0x23b
 5400 089d 25000000 		.4byte	0x25
 5401 08a1 1D       		.uleb128 0x1d
 5402 08a2 4D010000 		.4byte	.LASF77
 5403 08a6 01       		.byte	0x1
 5404 08a7 3C02     		.2byte	0x23c
 5405 08a9 25000000 		.4byte	0x25
 5406 08ad 1D       		.uleb128 0x1d
 5407 08ae 71020000 		.4byte	.LASF61
 5408 08b2 01       		.byte	0x1
 5409 08b3 3D02     		.2byte	0x23d
 5410 08b5 25000000 		.4byte	0x25
 5411 08b9 1D       		.uleb128 0x1d
 5412 08ba 6B040000 		.4byte	.LASF78
 5413 08be 01       		.byte	0x1
 5414 08bf 3E02     		.2byte	0x23e
 5415 08c1 49000000 		.4byte	0x49
 5416 08c5 1D       		.uleb128 0x1d
 5417 08c6 B7020000 		.4byte	.LASF80
 5418 08ca 01       		.byte	0x1
 5419 08cb 3F02     		.2byte	0x23f
 5420 08cd CF070000 		.4byte	0x7cf
 5421 08d1 1D       		.uleb128 0x1d
 5422 08d2 16010000 		.4byte	.LASF79
 5423 08d6 01       		.byte	0x1
 5424 08d7 4002     		.2byte	0x240
 5425 08d9 25000000 		.4byte	0x25
 5426 08dd 1D       		.uleb128 0x1d
 5427 08de DB020000 		.4byte	.LASF58
 5428 08e2 01       		.byte	0x1
 5429 08e3 4102     		.2byte	0x241
 5430 08e5 25000000 		.4byte	0x25
 5431 08e9 1E       		.uleb128 0x1e
ARM GAS  /cygdrive/c/Users/Zbyszko/AppData/Local/Temp/ccaXFopk.s 			page 121


 5432 08ea 1D       		.uleb128 0x1d
 5433 08eb 20040000 		.4byte	.LASF87
 5434 08ef 01       		.byte	0x1
 5435 08f0 8E02     		.2byte	0x28e
 5436 08f2 F3020000 		.4byte	0x2f3
 5437 08f6 00       		.byte	0x0
 5438 08f7 00       		.byte	0x0
 5439 08f8 11       		.uleb128 0x11
 5440 08f9 E40A0000 		.4byte	0xae4
 5441 08fd 01       		.byte	0x1
 5442 08fe 86010000 		.4byte	.LASF90
 5443 0902 01       		.byte	0x1
 5444 0903 8E04     		.2byte	0x48e
 5445 0905 01       		.byte	0x1
 5446 0906 78050000 		.4byte	.LFB16
 5447 090a F80F0000 		.4byte	.LFE16
 5448 090e AA020000 		.4byte	.LLST21
 5449 0912 1D       		.uleb128 0x1d
 5450 0913 42000000 		.4byte	.LASF91
 5451 0917 01       		.byte	0x1
 5452 0918 8F04     		.2byte	0x48f
 5453 091a 25000000 		.4byte	0x25
 5454 091e 19       		.uleb128 0x19
 5455 091f 80050000 		.4byte	.LBB19
 5456 0923 9E0F0000 		.4byte	.LBE19
 5457 0927 22       		.uleb128 0x22
 5458 0928 4D010000 		.4byte	.LASF77
 5459 092c 01       		.byte	0x1
 5460 092d 9604     		.2byte	0x496
 5461 092f 25000000 		.4byte	0x25
 5462 0933 D6020000 		.4byte	.LLST22
 5463 0937 23       		.uleb128 0x23
 5464 0938 050A0000 		.4byte	0xa05
 5465 093c FB060000 		.4byte	0x6fb
 5466 0940 00000000 		.4byte	.Ldebug_ranges0+0x0
 5467 0944 01       		.byte	0x1
 5468 0945 A004     		.2byte	0x4a0
 5469 0947 24       		.uleb128 0x24
 5470 0948 B1090000 		.4byte	0x9b1
 5471 094c 18000000 		.4byte	.Ldebug_ranges0+0x18
 5472 0950 25       		.uleb128 0x25
 5473 0951 08070000 		.4byte	0x708
 5474 0955 02       		.byte	0x2
 5475 0956 74       		.byte	0x74
 5476 0957 00       		.sleb128 0
 5477 0958 26       		.uleb128 0x26
 5478 0959 13070000 		.4byte	0x713
 5479 095d 41030000 		.4byte	.LLST23
 5480 0961 26       		.uleb128 0x26
 5481 0962 1E070000 		.4byte	0x71e
 5482 0966 B7030000 		.4byte	.LLST24
 5483 096a 26       		.uleb128 0x26
 5484 096b 29070000 		.4byte	0x729
 5485 096f E0030000 		.4byte	.LLST25
 5486 0973 25       		.uleb128 0x25
 5487 0974 34070000 		.4byte	0x734
 5488 0978 02       		.byte	0x2
ARM GAS  /cygdrive/c/Users/Zbyszko/AppData/Local/Temp/ccaXFopk.s 			page 122


 5489 0979 91       		.byte	0x91
 5490 097a 74       		.sleb128 -12
 5491 097b 26       		.uleb128 0x26
 5492 097c 3F070000 		.4byte	0x73f
 5493 0980 35040000 		.4byte	.LLST26
 5494 0984 25       		.uleb128 0x25
 5495 0985 4A070000 		.4byte	0x74a
 5496 0989 02       		.byte	0x2
 5497 098a 91       		.byte	0x91
 5498 098b 6B       		.sleb128 -21
 5499 098c 25       		.uleb128 0x25
 5500 098d 55070000 		.4byte	0x755
 5501 0991 03       		.byte	0x3
 5502 0992 91       		.byte	0x91
 5503 0993 AF7F     		.sleb128 -81
 5504 0995 26       		.uleb128 0x26
 5505 0996 60070000 		.4byte	0x760
 5506 099a 81040000 		.4byte	.LLST27
 5507 099e 26       		.uleb128 0x26
 5508 099f 6B070000 		.4byte	0x76b
 5509 09a3 CB040000 		.4byte	.LLST28
 5510 09a7 26       		.uleb128 0x26
 5511 09a8 77070000 		.4byte	0x777
 5512 09ac F4040000 		.4byte	.LLST29
 5513 09b0 00       		.byte	0x0
 5514 09b1 24       		.uleb128 0x24
 5515 09b2 CC090000 		.4byte	0x9cc
 5516 09b6 70000000 		.4byte	.Ldebug_ranges0+0x70
 5517 09ba 25       		.uleb128 0x25
 5518 09bb 84070000 		.4byte	0x784
 5519 09bf 02       		.byte	0x2
 5520 09c0 91       		.byte	0x91
 5521 09c1 4F       		.sleb128 -49
 5522 09c2 26       		.uleb128 0x26
 5523 09c3 90070000 		.4byte	0x790
 5524 09c7 3E050000 		.4byte	.LLST30
 5525 09cb 00       		.byte	0x0
 5526 09cc 18       		.uleb128 0x18
 5527 09cd F6090000 		.4byte	0x9f6
 5528 09d1 1A080000 		.4byte	.LBB33
 5529 09d5 62080000 		.4byte	.LBE33
 5530 09d9 26       		.uleb128 0x26
 5531 09da A1070000 		.4byte	0x7a1
 5532 09de 67050000 		.4byte	.LLST31
 5533 09e2 19       		.uleb128 0x19
 5534 09e3 1E080000 		.4byte	.LBB34
 5535 09e7 5A080000 		.4byte	.LBE34
 5536 09eb 26       		.uleb128 0x26
 5537 09ec AE070000 		.4byte	0x7ae
 5538 09f0 85050000 		.4byte	.LLST32
 5539 09f4 00       		.byte	0x0
 5540 09f5 00       		.byte	0x0
 5541 09f6 27       		.uleb128 0x27
 5542 09f7 A0000000 		.4byte	.Ldebug_ranges0+0xa0
 5543 09fb 25       		.uleb128 0x25
 5544 09fc BB070000 		.4byte	0x7bb
 5545 0a00 02       		.byte	0x2
ARM GAS  /cygdrive/c/Users/Zbyszko/AppData/Local/Temp/ccaXFopk.s 			page 123


 5546 0a01 91       		.byte	0x91
 5547 0a02 67       		.sleb128 -25
 5548 0a03 00       		.byte	0x0
 5549 0a04 00       		.byte	0x0
 5550 0a05 23       		.uleb128 0x23
 5551 0a06 7A0A0000 		.4byte	0xa7a
 5552 0a0a EF070000 		.4byte	0x7ef
 5553 0a0e B8000000 		.4byte	.Ldebug_ranges0+0xb8
 5554 0a12 01       		.byte	0x1
 5555 0a13 A104     		.2byte	0x4a1
 5556 0a15 24       		.uleb128 0x24
 5557 0a16 6A0A0000 		.4byte	0xa6a
 5558 0a1a D8000000 		.4byte	.Ldebug_ranges0+0xd8
 5559 0a1e 25       		.uleb128 0x25
 5560 0a1f FD070000 		.4byte	0x7fd
 5561 0a23 02       		.byte	0x2
 5562 0a24 74       		.byte	0x74
 5563 0a25 00       		.sleb128 0
 5564 0a26 28       		.uleb128 0x28
 5565 0a27 09080000 		.4byte	0x809
 5566 0a2b 26       		.uleb128 0x26
 5567 0a2c 15080000 		.4byte	0x815
 5568 0a30 A3050000 		.4byte	.LLST33
 5569 0a34 26       		.uleb128 0x26
 5570 0a35 1F080000 		.4byte	0x81f
 5571 0a39 B6050000 		.4byte	.LLST34
 5572 0a3d 26       		.uleb128 0x26
 5573 0a3e 2B080000 		.4byte	0x82b
 5574 0a42 DF050000 		.4byte	.LLST35
 5575 0a46 26       		.uleb128 0x26
 5576 0a47 37080000 		.4byte	0x837
 5577 0a4b 08060000 		.4byte	.LLST36
 5578 0a4f 26       		.uleb128 0x26
 5579 0a50 43080000 		.4byte	0x843
 5580 0a54 3C060000 		.4byte	.LLST37
 5581 0a58 25       		.uleb128 0x25
 5582 0a59 4F080000 		.4byte	0x84f
 5583 0a5d 02       		.byte	0x2
 5584 0a5e 91       		.byte	0x91
 5585 0a5f 60       		.sleb128 -32
 5586 0a60 25       		.uleb128 0x25
 5587 0a61 5B080000 		.4byte	0x85b
 5588 0a65 03       		.byte	0x3
 5589 0a66 91       		.byte	0x91
 5590 0a67 AF7F     		.sleb128 -81
 5591 0a69 00       		.byte	0x0
 5592 0a6a 27       		.uleb128 0x27
 5593 0a6b 18010000 		.4byte	.Ldebug_ranges0+0x118
 5594 0a6f 25       		.uleb128 0x25
 5595 0a70 68080000 		.4byte	0x868
 5596 0a74 03       		.byte	0x3
 5597 0a75 91       		.byte	0x91
 5598 0a76 FC7E     		.sleb128 -132
 5599 0a78 00       		.byte	0x0
 5600 0a79 00       		.byte	0x0
 5601 0a7a 29       		.uleb128 0x29
 5602 0a7b 7B080000 		.4byte	0x87b
ARM GAS  /cygdrive/c/Users/Zbyszko/AppData/Local/Temp/ccaXFopk.s 			page 124


 5603 0a7f 30010000 		.4byte	.Ldebug_ranges0+0x130
 5604 0a83 01       		.byte	0x1
 5605 0a84 A204     		.2byte	0x4a2
 5606 0a86 24       		.uleb128 0x24
 5607 0a87 D20A0000 		.4byte	0xad2
 5608 0a8b 48010000 		.4byte	.Ldebug_ranges0+0x148
 5609 0a8f 25       		.uleb128 0x25
 5610 0a90 89080000 		.4byte	0x889
 5611 0a94 02       		.byte	0x2
 5612 0a95 74       		.byte	0x74
 5613 0a96 00       		.sleb128 0
 5614 0a97 28       		.uleb128 0x28
 5615 0a98 95080000 		.4byte	0x895
 5616 0a9c 26       		.uleb128 0x26
 5617 0a9d A1080000 		.4byte	0x8a1
 5618 0aa1 0B070000 		.4byte	.LLST38
 5619 0aa5 26       		.uleb128 0x26
 5620 0aa6 AD080000 		.4byte	0x8ad
 5621 0aaa 34070000 		.4byte	.LLST39
 5622 0aae 26       		.uleb128 0x26
 5623 0aaf B9080000 		.4byte	0x8b9
 5624 0ab3 5D070000 		.4byte	.LLST40
 5625 0ab7 25       		.uleb128 0x25
 5626 0ab8 C5080000 		.4byte	0x8c5
 5627 0abc 03       		.byte	0x3
 5628 0abd 91       		.byte	0x91
 5629 0abe AF7F     		.sleb128 -81
 5630 0ac0 26       		.uleb128 0x26
 5631 0ac1 D1080000 		.4byte	0x8d1
 5632 0ac5 86070000 		.4byte	.LLST41
 5633 0ac9 25       		.uleb128 0x25
 5634 0aca DD080000 		.4byte	0x8dd
 5635 0ace 02       		.byte	0x2
 5636 0acf 91       		.byte	0x91
 5637 0ad0 6A       		.sleb128 -22
 5638 0ad1 00       		.byte	0x0
 5639 0ad2 27       		.uleb128 0x27
 5640 0ad3 80010000 		.4byte	.Ldebug_ranges0+0x180
 5641 0ad7 25       		.uleb128 0x25
 5642 0ad8 EA080000 		.4byte	0x8ea
 5643 0adc 03       		.byte	0x3
 5644 0add 91       		.byte	0x91
 5645 0ade FC7E     		.sleb128 -132
 5646 0ae0 00       		.byte	0x0
 5647 0ae1 00       		.byte	0x0
 5648 0ae2 00       		.byte	0x0
 5649 0ae3 00       		.byte	0x0
 5650 0ae4 2A       		.uleb128 0x2a
 5651 0ae5 0C0B0000 		.4byte	0xb0c
 5652 0ae9 01       		.byte	0x1
 5653 0aea F4000000 		.4byte	.LASF92
 5654 0aee 01       		.byte	0x1
 5655 0aef 5A       		.byte	0x5a
 5656 0af0 01       		.byte	0x1
 5657 0af1 F80F0000 		.4byte	.LFB2
 5658 0af5 44100000 		.4byte	.LFE2
 5659 0af9 AF070000 		.4byte	.LLST42
ARM GAS  /cygdrive/c/Users/Zbyszko/AppData/Local/Temp/ccaXFopk.s 			page 125


 5660 0afd 2B       		.uleb128 0x2b
 5661 0afe DB020000 		.4byte	.LASF58
 5662 0b02 01       		.byte	0x1
 5663 0b03 5B       		.byte	0x5b
 5664 0b04 25000000 		.4byte	0x25
 5665 0b08 02       		.byte	0x2
 5666 0b09 91       		.byte	0x91
 5667 0b0a 73       		.sleb128 -13
 5668 0b0b 00       		.byte	0x0
 5669 0b0c 14       		.uleb128 0x14
 5670 0b0d 670B0000 		.4byte	0xb67
 5671 0b11 1A030000 		.4byte	.LASF93
 5672 0b15 01       		.byte	0x1
 5673 0b16 6F       		.byte	0x6f
 5674 0b17 01       		.byte	0x1
 5675 0b18 44100000 		.4byte	.LFB3
 5676 0b1c 38110000 		.4byte	.LFE3
 5677 0b20 DA070000 		.4byte	.LLST43
 5678 0b24 2C       		.uleb128 0x2c
 5679 0b25 61726700 		.ascii	"arg\000"
 5680 0b29 01       		.byte	0x1
 5681 0b2a 6E       		.byte	0x6e
 5682 0b2b F1010000 		.4byte	0x1f1
 5683 0b2f 05080000 		.4byte	.LLST44
 5684 0b33 2B       		.uleb128 0x2b
 5685 0b34 DB020000 		.4byte	.LASF58
 5686 0b38 01       		.byte	0x1
 5687 0b39 70       		.byte	0x70
 5688 0b3a 25000000 		.4byte	0x25
 5689 0b3e 02       		.byte	0x2
 5690 0b3f 91       		.byte	0x91
 5691 0b40 73       		.sleb128 -13
 5692 0b41 19       		.uleb128 0x19
 5693 0b42 C8100000 		.4byte	.LBB63
 5694 0b46 04110000 		.4byte	.LBE63
 5695 0b4a 2B       		.uleb128 0x2b
 5696 0b4b AC000000 		.4byte	.LASF75
 5697 0b4f 01       		.byte	0x1
 5698 0b50 9D       		.byte	0x9d
 5699 0b51 25000000 		.4byte	0x25
 5700 0b55 02       		.byte	0x2
 5701 0b56 74       		.byte	0x74
 5702 0b57 00       		.sleb128 0
 5703 0b58 2B       		.uleb128 0x2b
 5704 0b59 CD030000 		.4byte	.LASF94
 5705 0b5d 01       		.byte	0x1
 5706 0b5e 9E       		.byte	0x9e
 5707 0b5f 25000000 		.4byte	0x25
 5708 0b63 01       		.byte	0x1
 5709 0b64 55       		.byte	0x55
 5710 0b65 00       		.byte	0x0
 5711 0b66 00       		.byte	0x0
 5712 0b67 0A       		.uleb128 0xa
 5713 0b68 780B0000 		.4byte	0xb78
 5714 0b6c 25000000 		.4byte	0x25
 5715 0b70 2D       		.uleb128 0x2d
 5716 0b71 80010000 		.4byte	0x180
ARM GAS  /cygdrive/c/Users/Zbyszko/AppData/Local/Temp/ccaXFopk.s 			page 126


 5717 0b75 1F03     		.2byte	0x31f
 5718 0b77 00       		.byte	0x0
 5719 0b78 2B       		.uleb128 0x2b
 5720 0b79 A8010000 		.4byte	.LASF95
 5721 0b7d 01       		.byte	0x1
 5722 0b7e 33       		.byte	0x33
 5723 0b7f 670B0000 		.4byte	0xb67
 5724 0b83 05       		.byte	0x5
 5725 0b84 03       		.byte	0x3
 5726 0b85 04000000 		.4byte	procBtStack
 5727 0b89 2B       		.uleb128 0x2b
 5728 0b8a C7000000 		.4byte	.LASF96
 5729 0b8e 01       		.byte	0x1
 5730 0b8f 34       		.byte	0x34
 5731 0b90 25000000 		.4byte	0x25
 5732 0b94 05       		.byte	0x5
 5733 0b95 03       		.byte	0x3
 5734 0b96 24030000 		.4byte	pidBt
 5735 0b9a 2B       		.uleb128 0x2b
 5736 0b9b 81040000 		.4byte	.LASF97
 5737 0b9f 01       		.byte	0x1
 5738 0ba0 36       		.byte	0x36
 5739 0ba1 AB0B0000 		.4byte	0xbab
 5740 0ba5 05       		.byte	0x5
 5741 0ba6 03       		.byte	0x3
 5742 0ba7 00000000 		.4byte	stopRecvProc
 5743 0bab 20       		.uleb128 0x20
 5744 0bac 70000000 		.4byte	0x70
 5745 0bb0 2B       		.uleb128 0x2b
 5746 0bb1 B7030000 		.4byte	.LASF98
 5747 0bb5 01       		.byte	0x1
 5748 0bb6 37       		.byte	0x37
 5749 0bb7 E6010000 		.4byte	0x1e6
 5750 0bbb 05       		.byte	0x5
 5751 0bbc 03       		.byte	0x3
 5752 0bbd 28030000 		.4byte	recvSem
 5753 0bc1 2B       		.uleb128 0x2b
 5754 0bc2 FF000000 		.4byte	.LASF99
 5755 0bc6 01       		.byte	0x1
 5756 0bc7 39       		.byte	0x39
 5757 0bc8 25000000 		.4byte	0x25
 5758 0bcc 05       		.byte	0x5
 5759 0bcd 03       		.byte	0x3
 5760 0bce 02000000 		.4byte	btCursor
 5761 0bd2 2B       		.uleb128 0x2b
 5762 0bd3 13040000 		.4byte	.LASF100
 5763 0bd7 01       		.byte	0x1
 5764 0bd8 3B       		.byte	0x3b
 5765 0bd9 70000000 		.4byte	0x70
 5766 0bdd 05       		.byte	0x5
 5767 0bde 03       		.byte	0x3
 5768 0bdf 03000000 		.4byte	btSleepState
 5769 0be3 2B       		.uleb128 0x2b
 5770 0be4 3F010000 		.4byte	.LASF101
 5771 0be8 01       		.byte	0x1
 5772 0be9 3C       		.byte	0x3c
 5773 0bea 70000000 		.4byte	0x70
ARM GAS  /cygdrive/c/Users/Zbyszko/AppData/Local/Temp/ccaXFopk.s 			page 127


 5774 0bee 05       		.byte	0x5
 5775 0bef 03       		.byte	0x3
 5776 0bf0 01000000 		.4byte	btCommandMode
 5777 0bf4 2B       		.uleb128 0x2b
 5778 0bf5 10030000 		.4byte	.LASF102
 5779 0bf9 01       		.byte	0x1
 5780 0bfa 3E       		.byte	0x3e
 5781 0bfb 41030000 		.4byte	0x341
 5782 0bff 05       		.byte	0x5
 5783 0c00 03       		.byte	0x3
 5784 0c01 44030000 		.4byte	localName
 5785 0c05 2B       		.uleb128 0x2b
 5786 0c06 D1020000 		.4byte	.LASF51
 5787 0c0a 01       		.byte	0x1
 5788 0c0b 3F       		.byte	0x3f
 5789 0c0c 31030000 		.4byte	0x331
 5790 0c10 05       		.byte	0x5
 5791 0c11 03       		.byte	0x3
 5792 0c12 55030000 		.4byte	btAddress
 5793 0c16 0A       		.uleb128 0xa
 5794 0c17 260C0000 		.4byte	0xc26
 5795 0c1b 51030000 		.4byte	0x351
 5796 0c1f 0B       		.uleb128 0xb
 5797 0c20 80010000 		.4byte	0x180
 5798 0c24 04       		.byte	0x4
 5799 0c25 00       		.byte	0x0
 5800 0c26 2B       		.uleb128 0x2b
 5801 0c27 1E010000 		.4byte	.LASF103
 5802 0c2b 01       		.byte	0x1
 5803 0c2c 41       		.byte	0x41
 5804 0c2d 160C0000 		.4byte	0xc16
 5805 0c31 05       		.byte	0x5
 5806 0c32 03       		.byte	0x3
 5807 0c33 64030000 		.4byte	foundBtUnits
 5808 0c37 2E       		.uleb128 0x2e
 5809 0c38 E2010000 		.4byte	.LASF104
 5810 0c3c 05       		.byte	0x5
 5811 0c3d 21       		.byte	0x21
 5812 0c3e 70000000 		.4byte	0x70
 5813 0c42 01       		.byte	0x1
 5814 0c43 05       		.byte	0x5
 5815 0c44 03       		.byte	0x3
 5816 0c45 00000000 		.4byte	ver1_0
 5817 0c49 2E       		.uleb128 0x2e
 5818 0c4a ED000000 		.4byte	.LASF105
 5819 0c4e 05       		.byte	0x5
 5820 0c4f 22       		.byte	0x22
 5821 0c50 70000000 		.4byte	0x70
 5822 0c54 01       		.byte	0x1
 5823 0c55 05       		.byte	0x5
 5824 0c56 03       		.byte	0x3
 5825 0c57 00000000 		.4byte	ver1_1
 5826 0c5b 2F       		.uleb128 0x2f
 5827 0c5c 6D7300   		.ascii	"ms\000"
 5828 0c5f 01       		.byte	0x1
 5829 0c60 47       		.byte	0x47
 5830 0c61 CA070000 		.4byte	0x7ca
ARM GAS  /cygdrive/c/Users/Zbyszko/AppData/Local/Temp/ccaXFopk.s 			page 128


 5831 0c65 01       		.byte	0x1
 5832 0c66 01       		.byte	0x1
 5833 0c67 00       		.byte	0x0
 5834              		.section	.debug_abbrev
 5835 0000 01       		.uleb128 0x1
 5836 0001 11       		.uleb128 0x11
 5837 0002 01       		.byte	0x1
 5838 0003 10       		.uleb128 0x10
 5839 0004 06       		.uleb128 0x6
 5840 0005 12       		.uleb128 0x12
 5841 0006 01       		.uleb128 0x1
 5842 0007 11       		.uleb128 0x11
 5843 0008 01       		.uleb128 0x1
 5844 0009 25       		.uleb128 0x25
 5845 000a 0E       		.uleb128 0xe
 5846 000b 13       		.uleb128 0x13
 5847 000c 0B       		.uleb128 0xb
 5848 000d 03       		.uleb128 0x3
 5849 000e 0E       		.uleb128 0xe
 5850 000f 1B       		.uleb128 0x1b
 5851 0010 0E       		.uleb128 0xe
 5852 0011 00       		.byte	0x0
 5853 0012 00       		.byte	0x0
 5854 0013 02       		.uleb128 0x2
 5855 0014 16       		.uleb128 0x16
 5856 0015 00       		.byte	0x0
 5857 0016 03       		.uleb128 0x3
 5858 0017 08       		.uleb128 0x8
 5859 0018 3A       		.uleb128 0x3a
 5860 0019 0B       		.uleb128 0xb
 5861 001a 3B       		.uleb128 0x3b
 5862 001b 0B       		.uleb128 0xb
 5863 001c 49       		.uleb128 0x49
 5864 001d 13       		.uleb128 0x13
 5865 001e 00       		.byte	0x0
 5866 001f 00       		.byte	0x0
 5867 0020 03       		.uleb128 0x3
 5868 0021 24       		.uleb128 0x24
 5869 0022 00       		.byte	0x0
 5870 0023 03       		.uleb128 0x3
 5871 0024 0E       		.uleb128 0xe
 5872 0025 0B       		.uleb128 0xb
 5873 0026 0B       		.uleb128 0xb
 5874 0027 3E       		.uleb128 0x3e
 5875 0028 0B       		.uleb128 0xb
 5876 0029 00       		.byte	0x0
 5877 002a 00       		.byte	0x0
 5878 002b 04       		.uleb128 0x4
 5879 002c 16       		.uleb128 0x16
 5880 002d 00       		.byte	0x0
 5881 002e 03       		.uleb128 0x3
 5882 002f 0E       		.uleb128 0xe
 5883 0030 3A       		.uleb128 0x3a
 5884 0031 0B       		.uleb128 0xb
 5885 0032 3B       		.uleb128 0x3b
 5886 0033 0B       		.uleb128 0xb
 5887 0034 49       		.uleb128 0x49
ARM GAS  /cygdrive/c/Users/Zbyszko/AppData/Local/Temp/ccaXFopk.s 			page 129


 5888 0035 13       		.uleb128 0x13
 5889 0036 00       		.byte	0x0
 5890 0037 00       		.byte	0x0
 5891 0038 05       		.uleb128 0x5
 5892 0039 24       		.uleb128 0x24
 5893 003a 00       		.byte	0x0
 5894 003b 03       		.uleb128 0x3
 5895 003c 08       		.uleb128 0x8
 5896 003d 0B       		.uleb128 0xb
 5897 003e 0B       		.uleb128 0xb
 5898 003f 3E       		.uleb128 0x3e
 5899 0040 0B       		.uleb128 0xb
 5900 0041 00       		.byte	0x0
 5901 0042 00       		.byte	0x0
 5902 0043 06       		.uleb128 0x6
 5903 0044 13       		.uleb128 0x13
 5904 0045 01       		.byte	0x1
 5905 0046 01       		.uleb128 0x1
 5906 0047 13       		.uleb128 0x13
 5907 0048 03       		.uleb128 0x3
 5908 0049 0E       		.uleb128 0xe
 5909 004a 0B       		.uleb128 0xb
 5910 004b 0B       		.uleb128 0xb
 5911 004c 3A       		.uleb128 0x3a
 5912 004d 0B       		.uleb128 0xb
 5913 004e 3B       		.uleb128 0x3b
 5914 004f 0B       		.uleb128 0xb
 5915 0050 00       		.byte	0x0
 5916 0051 00       		.byte	0x0
 5917 0052 07       		.uleb128 0x7
 5918 0053 0D       		.uleb128 0xd
 5919 0054 00       		.byte	0x0
 5920 0055 03       		.uleb128 0x3
 5921 0056 0E       		.uleb128 0xe
 5922 0057 3A       		.uleb128 0x3a
 5923 0058 0B       		.uleb128 0xb
 5924 0059 3B       		.uleb128 0x3b
 5925 005a 0B       		.uleb128 0xb
 5926 005b 49       		.uleb128 0x49
 5927 005c 13       		.uleb128 0x13
 5928 005d 38       		.uleb128 0x38
 5929 005e 0A       		.uleb128 0xa
 5930 005f 00       		.byte	0x0
 5931 0060 00       		.byte	0x0
 5932 0061 08       		.uleb128 0x8
 5933 0062 0D       		.uleb128 0xd
 5934 0063 00       		.byte	0x0
 5935 0064 03       		.uleb128 0x3
 5936 0065 08       		.uleb128 0x8
 5937 0066 3A       		.uleb128 0x3a
 5938 0067 0B       		.uleb128 0xb
 5939 0068 3B       		.uleb128 0x3b
 5940 0069 0B       		.uleb128 0xb
 5941 006a 49       		.uleb128 0x49
 5942 006b 13       		.uleb128 0x13
 5943 006c 38       		.uleb128 0x38
 5944 006d 0A       		.uleb128 0xa
ARM GAS  /cygdrive/c/Users/Zbyszko/AppData/Local/Temp/ccaXFopk.s 			page 130


 5945 006e 00       		.byte	0x0
 5946 006f 00       		.byte	0x0
 5947 0070 09       		.uleb128 0x9
 5948 0071 0F       		.uleb128 0xf
 5949 0072 00       		.byte	0x0
 5950 0073 0B       		.uleb128 0xb
 5951 0074 0B       		.uleb128 0xb
 5952 0075 49       		.uleb128 0x49
 5953 0076 13       		.uleb128 0x13
 5954 0077 00       		.byte	0x0
 5955 0078 00       		.byte	0x0
 5956 0079 0A       		.uleb128 0xa
 5957 007a 01       		.uleb128 0x1
 5958 007b 01       		.byte	0x1
 5959 007c 01       		.uleb128 0x1
 5960 007d 13       		.uleb128 0x13
 5961 007e 49       		.uleb128 0x49
 5962 007f 13       		.uleb128 0x13
 5963 0080 00       		.byte	0x0
 5964 0081 00       		.byte	0x0
 5965 0082 0B       		.uleb128 0xb
 5966 0083 21       		.uleb128 0x21
 5967 0084 00       		.byte	0x0
 5968 0085 49       		.uleb128 0x49
 5969 0086 13       		.uleb128 0x13
 5970 0087 2F       		.uleb128 0x2f
 5971 0088 0B       		.uleb128 0xb
 5972 0089 00       		.byte	0x0
 5973 008a 00       		.byte	0x0
 5974 008b 0C       		.uleb128 0xc
 5975 008c 0F       		.uleb128 0xf
 5976 008d 00       		.byte	0x0
 5977 008e 0B       		.uleb128 0xb
 5978 008f 0B       		.uleb128 0xb
 5979 0090 00       		.byte	0x0
 5980 0091 00       		.byte	0x0
 5981 0092 0D       		.uleb128 0xd
 5982 0093 13       		.uleb128 0x13
 5983 0094 01       		.byte	0x1
 5984 0095 01       		.uleb128 0x1
 5985 0096 13       		.uleb128 0x13
 5986 0097 0B       		.uleb128 0xb
 5987 0098 0B       		.uleb128 0xb
 5988 0099 3A       		.uleb128 0x3a
 5989 009a 0B       		.uleb128 0xb
 5990 009b 3B       		.uleb128 0x3b
 5991 009c 0B       		.uleb128 0xb
 5992 009d 00       		.byte	0x0
 5993 009e 00       		.byte	0x0
 5994 009f 0E       		.uleb128 0xe
 5995 00a0 2E       		.uleb128 0x2e
 5996 00a1 00       		.byte	0x0
 5997 00a2 3F       		.uleb128 0x3f
 5998 00a3 0C       		.uleb128 0xc
 5999 00a4 03       		.uleb128 0x3
 6000 00a5 0E       		.uleb128 0xe
 6001 00a6 3A       		.uleb128 0x3a
ARM GAS  /cygdrive/c/Users/Zbyszko/AppData/Local/Temp/ccaXFopk.s 			page 131


 6002 00a7 0B       		.uleb128 0xb
 6003 00a8 3B       		.uleb128 0x3b
 6004 00a9 05       		.uleb128 0x5
 6005 00aa 27       		.uleb128 0x27
 6006 00ab 0C       		.uleb128 0xc
 6007 00ac 11       		.uleb128 0x11
 6008 00ad 01       		.uleb128 0x1
 6009 00ae 12       		.uleb128 0x12
 6010 00af 01       		.uleb128 0x1
 6011 00b0 40       		.uleb128 0x40
 6012 00b1 06       		.uleb128 0x6
 6013 00b2 00       		.byte	0x0
 6014 00b3 00       		.byte	0x0
 6015 00b4 0F       		.uleb128 0xf
 6016 00b5 2E       		.uleb128 0x2e
 6017 00b6 01       		.byte	0x1
 6018 00b7 01       		.uleb128 0x1
 6019 00b8 13       		.uleb128 0x13
 6020 00b9 03       		.uleb128 0x3
 6021 00ba 0E       		.uleb128 0xe
 6022 00bb 3A       		.uleb128 0x3a
 6023 00bc 0B       		.uleb128 0xb
 6024 00bd 3B       		.uleb128 0x3b
 6025 00be 05       		.uleb128 0x5
 6026 00bf 27       		.uleb128 0x27
 6027 00c0 0C       		.uleb128 0xc
 6028 00c1 11       		.uleb128 0x11
 6029 00c2 01       		.uleb128 0x1
 6030 00c3 12       		.uleb128 0x12
 6031 00c4 01       		.uleb128 0x1
 6032 00c5 40       		.uleb128 0x40
 6033 00c6 06       		.uleb128 0x6
 6034 00c7 00       		.byte	0x0
 6035 00c8 00       		.byte	0x0
 6036 00c9 10       		.uleb128 0x10
 6037 00ca 05       		.uleb128 0x5
 6038 00cb 00       		.byte	0x0
 6039 00cc 03       		.uleb128 0x3
 6040 00cd 0E       		.uleb128 0xe
 6041 00ce 3A       		.uleb128 0x3a
 6042 00cf 0B       		.uleb128 0xb
 6043 00d0 3B       		.uleb128 0x3b
 6044 00d1 05       		.uleb128 0x5
 6045 00d2 49       		.uleb128 0x49
 6046 00d3 13       		.uleb128 0x13
 6047 00d4 02       		.uleb128 0x2
 6048 00d5 06       		.uleb128 0x6
 6049 00d6 00       		.byte	0x0
 6050 00d7 00       		.byte	0x0
 6051 00d8 11       		.uleb128 0x11
 6052 00d9 2E       		.uleb128 0x2e
 6053 00da 01       		.byte	0x1
 6054 00db 01       		.uleb128 0x1
 6055 00dc 13       		.uleb128 0x13
 6056 00dd 3F       		.uleb128 0x3f
 6057 00de 0C       		.uleb128 0xc
 6058 00df 03       		.uleb128 0x3
ARM GAS  /cygdrive/c/Users/Zbyszko/AppData/Local/Temp/ccaXFopk.s 			page 132


 6059 00e0 0E       		.uleb128 0xe
 6060 00e1 3A       		.uleb128 0x3a
 6061 00e2 0B       		.uleb128 0xb
 6062 00e3 3B       		.uleb128 0x3b
 6063 00e4 05       		.uleb128 0x5
 6064 00e5 27       		.uleb128 0x27
 6065 00e6 0C       		.uleb128 0xc
 6066 00e7 11       		.uleb128 0x11
 6067 00e8 01       		.uleb128 0x1
 6068 00e9 12       		.uleb128 0x12
 6069 00ea 01       		.uleb128 0x1
 6070 00eb 40       		.uleb128 0x40
 6071 00ec 06       		.uleb128 0x6
 6072 00ed 00       		.byte	0x0
 6073 00ee 00       		.byte	0x0
 6074 00ef 12       		.uleb128 0x12
 6075 00f0 34       		.uleb128 0x34
 6076 00f1 00       		.byte	0x0
 6077 00f2 03       		.uleb128 0x3
 6078 00f3 0E       		.uleb128 0xe
 6079 00f4 3A       		.uleb128 0x3a
 6080 00f5 0B       		.uleb128 0xb
 6081 00f6 3B       		.uleb128 0x3b
 6082 00f7 05       		.uleb128 0x5
 6083 00f8 49       		.uleb128 0x49
 6084 00f9 13       		.uleb128 0x13
 6085 00fa 02       		.uleb128 0x2
 6086 00fb 0A       		.uleb128 0xa
 6087 00fc 00       		.byte	0x0
 6088 00fd 00       		.byte	0x0
 6089 00fe 13       		.uleb128 0x13
 6090 00ff 34       		.uleb128 0x34
 6091 0100 00       		.byte	0x0
 6092 0101 03       		.uleb128 0x3
 6093 0102 08       		.uleb128 0x8
 6094 0103 3A       		.uleb128 0x3a
 6095 0104 0B       		.uleb128 0xb
 6096 0105 3B       		.uleb128 0x3b
 6097 0106 05       		.uleb128 0x5
 6098 0107 49       		.uleb128 0x49
 6099 0108 13       		.uleb128 0x13
 6100 0109 02       		.uleb128 0x2
 6101 010a 06       		.uleb128 0x6
 6102 010b 00       		.byte	0x0
 6103 010c 00       		.byte	0x0
 6104 010d 14       		.uleb128 0x14
 6105 010e 2E       		.uleb128 0x2e
 6106 010f 01       		.byte	0x1
 6107 0110 01       		.uleb128 0x1
 6108 0111 13       		.uleb128 0x13
 6109 0112 03       		.uleb128 0x3
 6110 0113 0E       		.uleb128 0xe
 6111 0114 3A       		.uleb128 0x3a
 6112 0115 0B       		.uleb128 0xb
 6113 0116 3B       		.uleb128 0x3b
 6114 0117 0B       		.uleb128 0xb
 6115 0118 27       		.uleb128 0x27
ARM GAS  /cygdrive/c/Users/Zbyszko/AppData/Local/Temp/ccaXFopk.s 			page 133


 6116 0119 0C       		.uleb128 0xc
 6117 011a 11       		.uleb128 0x11
 6118 011b 01       		.uleb128 0x1
 6119 011c 12       		.uleb128 0x12
 6120 011d 01       		.uleb128 0x1
 6121 011e 40       		.uleb128 0x40
 6122 011f 06       		.uleb128 0x6
 6123 0120 00       		.byte	0x0
 6124 0121 00       		.byte	0x0
 6125 0122 15       		.uleb128 0x15
 6126 0123 05       		.uleb128 0x5
 6127 0124 00       		.byte	0x0
 6128 0125 03       		.uleb128 0x3
 6129 0126 0E       		.uleb128 0xe
 6130 0127 3A       		.uleb128 0x3a
 6131 0128 0B       		.uleb128 0xb
 6132 0129 3B       		.uleb128 0x3b
 6133 012a 0B       		.uleb128 0xb
 6134 012b 49       		.uleb128 0x49
 6135 012c 13       		.uleb128 0x13
 6136 012d 02       		.uleb128 0x2
 6137 012e 06       		.uleb128 0x6
 6138 012f 00       		.byte	0x0
 6139 0130 00       		.byte	0x0
 6140 0131 16       		.uleb128 0x16
 6141 0132 34       		.uleb128 0x34
 6142 0133 00       		.byte	0x0
 6143 0134 03       		.uleb128 0x3
 6144 0135 08       		.uleb128 0x8
 6145 0136 3A       		.uleb128 0x3a
 6146 0137 0B       		.uleb128 0xb
 6147 0138 3B       		.uleb128 0x3b
 6148 0139 0B       		.uleb128 0xb
 6149 013a 49       		.uleb128 0x49
 6150 013b 13       		.uleb128 0x13
 6151 013c 02       		.uleb128 0x2
 6152 013d 06       		.uleb128 0x6
 6153 013e 00       		.byte	0x0
 6154 013f 00       		.byte	0x0
 6155 0140 17       		.uleb128 0x17
 6156 0141 34       		.uleb128 0x34
 6157 0142 00       		.byte	0x0
 6158 0143 03       		.uleb128 0x3
 6159 0144 08       		.uleb128 0x8
 6160 0145 3A       		.uleb128 0x3a
 6161 0146 0B       		.uleb128 0xb
 6162 0147 3B       		.uleb128 0x3b
 6163 0148 05       		.uleb128 0x5
 6164 0149 49       		.uleb128 0x49
 6165 014a 13       		.uleb128 0x13
 6166 014b 00       		.byte	0x0
 6167 014c 00       		.byte	0x0
 6168 014d 18       		.uleb128 0x18
 6169 014e 0B       		.uleb128 0xb
 6170 014f 01       		.byte	0x1
 6171 0150 01       		.uleb128 0x1
 6172 0151 13       		.uleb128 0x13
ARM GAS  /cygdrive/c/Users/Zbyszko/AppData/Local/Temp/ccaXFopk.s 			page 134


 6173 0152 11       		.uleb128 0x11
 6174 0153 01       		.uleb128 0x1
 6175 0154 12       		.uleb128 0x12
 6176 0155 01       		.uleb128 0x1
 6177 0156 00       		.byte	0x0
 6178 0157 00       		.byte	0x0
 6179 0158 19       		.uleb128 0x19
 6180 0159 0B       		.uleb128 0xb
 6181 015a 01       		.byte	0x1
 6182 015b 11       		.uleb128 0x11
 6183 015c 01       		.uleb128 0x1
 6184 015d 12       		.uleb128 0x12
 6185 015e 01       		.uleb128 0x1
 6186 015f 00       		.byte	0x0
 6187 0160 00       		.byte	0x0
 6188 0161 1A       		.uleb128 0x1a
 6189 0162 2E       		.uleb128 0x2e
 6190 0163 00       		.byte	0x0
 6191 0164 03       		.uleb128 0x3
 6192 0165 0E       		.uleb128 0xe
 6193 0166 3A       		.uleb128 0x3a
 6194 0167 0B       		.uleb128 0xb
 6195 0168 3B       		.uleb128 0x3b
 6196 0169 05       		.uleb128 0x5
 6197 016a 27       		.uleb128 0x27
 6198 016b 0C       		.uleb128 0xc
 6199 016c 11       		.uleb128 0x11
 6200 016d 01       		.uleb128 0x1
 6201 016e 12       		.uleb128 0x12
 6202 016f 01       		.uleb128 0x1
 6203 0170 40       		.uleb128 0x40
 6204 0171 06       		.uleb128 0x6
 6205 0172 00       		.byte	0x0
 6206 0173 00       		.byte	0x0
 6207 0174 1B       		.uleb128 0x1b
 6208 0175 2E       		.uleb128 0x2e
 6209 0176 01       		.byte	0x1
 6210 0177 01       		.uleb128 0x1
 6211 0178 13       		.uleb128 0x13
 6212 0179 03       		.uleb128 0x3
 6213 017a 0E       		.uleb128 0xe
 6214 017b 3A       		.uleb128 0x3a
 6215 017c 0B       		.uleb128 0xb
 6216 017d 3B       		.uleb128 0x3b
 6217 017e 0B       		.uleb128 0xb
 6218 017f 27       		.uleb128 0x27
 6219 0180 0C       		.uleb128 0xc
 6220 0181 20       		.uleb128 0x20
 6221 0182 0B       		.uleb128 0xb
 6222 0183 00       		.byte	0x0
 6223 0184 00       		.byte	0x0
 6224 0185 1C       		.uleb128 0x1c
 6225 0186 34       		.uleb128 0x34
 6226 0187 00       		.byte	0x0
 6227 0188 03       		.uleb128 0x3
 6228 0189 0E       		.uleb128 0xe
 6229 018a 3A       		.uleb128 0x3a
ARM GAS  /cygdrive/c/Users/Zbyszko/AppData/Local/Temp/ccaXFopk.s 			page 135


 6230 018b 0B       		.uleb128 0xb
 6231 018c 3B       		.uleb128 0x3b
 6232 018d 0B       		.uleb128 0xb
 6233 018e 49       		.uleb128 0x49
 6234 018f 13       		.uleb128 0x13
 6235 0190 00       		.byte	0x0
 6236 0191 00       		.byte	0x0
 6237 0192 1D       		.uleb128 0x1d
 6238 0193 34       		.uleb128 0x34
 6239 0194 00       		.byte	0x0
 6240 0195 03       		.uleb128 0x3
 6241 0196 0E       		.uleb128 0xe
 6242 0197 3A       		.uleb128 0x3a
 6243 0198 0B       		.uleb128 0xb
 6244 0199 3B       		.uleb128 0x3b
 6245 019a 05       		.uleb128 0x5
 6246 019b 49       		.uleb128 0x49
 6247 019c 13       		.uleb128 0x13
 6248 019d 00       		.byte	0x0
 6249 019e 00       		.byte	0x0
 6250 019f 1E       		.uleb128 0x1e
 6251 01a0 0B       		.uleb128 0xb
 6252 01a1 01       		.byte	0x1
 6253 01a2 00       		.byte	0x0
 6254 01a3 00       		.byte	0x0
 6255 01a4 1F       		.uleb128 0x1f
 6256 01a5 0B       		.uleb128 0xb
 6257 01a6 01       		.byte	0x1
 6258 01a7 01       		.uleb128 0x1
 6259 01a8 13       		.uleb128 0x13
 6260 01a9 00       		.byte	0x0
 6261 01aa 00       		.byte	0x0
 6262 01ab 20       		.uleb128 0x20
 6263 01ac 35       		.uleb128 0x35
 6264 01ad 00       		.byte	0x0
 6265 01ae 49       		.uleb128 0x49
 6266 01af 13       		.uleb128 0x13
 6267 01b0 00       		.byte	0x0
 6268 01b1 00       		.byte	0x0
 6269 01b2 21       		.uleb128 0x21
 6270 01b3 2E       		.uleb128 0x2e
 6271 01b4 01       		.byte	0x1
 6272 01b5 01       		.uleb128 0x1
 6273 01b6 13       		.uleb128 0x13
 6274 01b7 03       		.uleb128 0x3
 6275 01b8 0E       		.uleb128 0xe
 6276 01b9 3A       		.uleb128 0x3a
 6277 01ba 0B       		.uleb128 0xb
 6278 01bb 3B       		.uleb128 0x3b
 6279 01bc 05       		.uleb128 0x5
 6280 01bd 27       		.uleb128 0x27
 6281 01be 0C       		.uleb128 0xc
 6282 01bf 20       		.uleb128 0x20
 6283 01c0 0B       		.uleb128 0xb
 6284 01c1 00       		.byte	0x0
 6285 01c2 00       		.byte	0x0
 6286 01c3 22       		.uleb128 0x22
ARM GAS  /cygdrive/c/Users/Zbyszko/AppData/Local/Temp/ccaXFopk.s 			page 136


 6287 01c4 34       		.uleb128 0x34
 6288 01c5 00       		.byte	0x0
 6289 01c6 03       		.uleb128 0x3
 6290 01c7 0E       		.uleb128 0xe
 6291 01c8 3A       		.uleb128 0x3a
 6292 01c9 0B       		.uleb128 0xb
 6293 01ca 3B       		.uleb128 0x3b
 6294 01cb 05       		.uleb128 0x5
 6295 01cc 49       		.uleb128 0x49
 6296 01cd 13       		.uleb128 0x13
 6297 01ce 02       		.uleb128 0x2
 6298 01cf 06       		.uleb128 0x6
 6299 01d0 00       		.byte	0x0
 6300 01d1 00       		.byte	0x0
 6301 01d2 23       		.uleb128 0x23
 6302 01d3 1D       		.uleb128 0x1d
 6303 01d4 01       		.byte	0x1
 6304 01d5 01       		.uleb128 0x1
 6305 01d6 13       		.uleb128 0x13
 6306 01d7 31       		.uleb128 0x31
 6307 01d8 13       		.uleb128 0x13
 6308 01d9 55       		.uleb128 0x55
 6309 01da 06       		.uleb128 0x6
 6310 01db 58       		.uleb128 0x58
 6311 01dc 0B       		.uleb128 0xb
 6312 01dd 59       		.uleb128 0x59
 6313 01de 05       		.uleb128 0x5
 6314 01df 00       		.byte	0x0
 6315 01e0 00       		.byte	0x0
 6316 01e1 24       		.uleb128 0x24
 6317 01e2 0B       		.uleb128 0xb
 6318 01e3 01       		.byte	0x1
 6319 01e4 01       		.uleb128 0x1
 6320 01e5 13       		.uleb128 0x13
 6321 01e6 55       		.uleb128 0x55
 6322 01e7 06       		.uleb128 0x6
 6323 01e8 00       		.byte	0x0
 6324 01e9 00       		.byte	0x0
 6325 01ea 25       		.uleb128 0x25
 6326 01eb 34       		.uleb128 0x34
 6327 01ec 00       		.byte	0x0
 6328 01ed 31       		.uleb128 0x31
 6329 01ee 13       		.uleb128 0x13
 6330 01ef 02       		.uleb128 0x2
 6331 01f0 0A       		.uleb128 0xa
 6332 01f1 00       		.byte	0x0
 6333 01f2 00       		.byte	0x0
 6334 01f3 26       		.uleb128 0x26
 6335 01f4 34       		.uleb128 0x34
 6336 01f5 00       		.byte	0x0
 6337 01f6 31       		.uleb128 0x31
 6338 01f7 13       		.uleb128 0x13
 6339 01f8 02       		.uleb128 0x2
 6340 01f9 06       		.uleb128 0x6
 6341 01fa 00       		.byte	0x0
 6342 01fb 00       		.byte	0x0
 6343 01fc 27       		.uleb128 0x27
ARM GAS  /cygdrive/c/Users/Zbyszko/AppData/Local/Temp/ccaXFopk.s 			page 137


 6344 01fd 0B       		.uleb128 0xb
 6345 01fe 01       		.byte	0x1
 6346 01ff 55       		.uleb128 0x55
 6347 0200 06       		.uleb128 0x6
 6348 0201 00       		.byte	0x0
 6349 0202 00       		.byte	0x0
 6350 0203 28       		.uleb128 0x28
 6351 0204 34       		.uleb128 0x34
 6352 0205 00       		.byte	0x0
 6353 0206 31       		.uleb128 0x31
 6354 0207 13       		.uleb128 0x13
 6355 0208 00       		.byte	0x0
 6356 0209 00       		.byte	0x0
 6357 020a 29       		.uleb128 0x29
 6358 020b 1D       		.uleb128 0x1d
 6359 020c 01       		.byte	0x1
 6360 020d 31       		.uleb128 0x31
 6361 020e 13       		.uleb128 0x13
 6362 020f 55       		.uleb128 0x55
 6363 0210 06       		.uleb128 0x6
 6364 0211 58       		.uleb128 0x58
 6365 0212 0B       		.uleb128 0xb
 6366 0213 59       		.uleb128 0x59
 6367 0214 05       		.uleb128 0x5
 6368 0215 00       		.byte	0x0
 6369 0216 00       		.byte	0x0
 6370 0217 2A       		.uleb128 0x2a
 6371 0218 2E       		.uleb128 0x2e
 6372 0219 01       		.byte	0x1
 6373 021a 01       		.uleb128 0x1
 6374 021b 13       		.uleb128 0x13
 6375 021c 3F       		.uleb128 0x3f
 6376 021d 0C       		.uleb128 0xc
 6377 021e 03       		.uleb128 0x3
 6378 021f 0E       		.uleb128 0xe
 6379 0220 3A       		.uleb128 0x3a
 6380 0221 0B       		.uleb128 0xb
 6381 0222 3B       		.uleb128 0x3b
 6382 0223 0B       		.uleb128 0xb
 6383 0224 27       		.uleb128 0x27
 6384 0225 0C       		.uleb128 0xc
 6385 0226 11       		.uleb128 0x11
 6386 0227 01       		.uleb128 0x1
 6387 0228 12       		.uleb128 0x12
 6388 0229 01       		.uleb128 0x1
 6389 022a 40       		.uleb128 0x40
 6390 022b 06       		.uleb128 0x6
 6391 022c 00       		.byte	0x0
 6392 022d 00       		.byte	0x0
 6393 022e 2B       		.uleb128 0x2b
 6394 022f 34       		.uleb128 0x34
 6395 0230 00       		.byte	0x0
 6396 0231 03       		.uleb128 0x3
 6397 0232 0E       		.uleb128 0xe
 6398 0233 3A       		.uleb128 0x3a
 6399 0234 0B       		.uleb128 0xb
 6400 0235 3B       		.uleb128 0x3b
ARM GAS  /cygdrive/c/Users/Zbyszko/AppData/Local/Temp/ccaXFopk.s 			page 138


 6401 0236 0B       		.uleb128 0xb
 6402 0237 49       		.uleb128 0x49
 6403 0238 13       		.uleb128 0x13
 6404 0239 02       		.uleb128 0x2
 6405 023a 0A       		.uleb128 0xa
 6406 023b 00       		.byte	0x0
 6407 023c 00       		.byte	0x0
 6408 023d 2C       		.uleb128 0x2c
 6409 023e 05       		.uleb128 0x5
 6410 023f 00       		.byte	0x0
 6411 0240 03       		.uleb128 0x3
 6412 0241 08       		.uleb128 0x8
 6413 0242 3A       		.uleb128 0x3a
 6414 0243 0B       		.uleb128 0xb
 6415 0244 3B       		.uleb128 0x3b
 6416 0245 0B       		.uleb128 0xb
 6417 0246 49       		.uleb128 0x49
 6418 0247 13       		.uleb128 0x13
 6419 0248 02       		.uleb128 0x2
 6420 0249 06       		.uleb128 0x6
 6421 024a 00       		.byte	0x0
 6422 024b 00       		.byte	0x0
 6423 024c 2D       		.uleb128 0x2d
 6424 024d 21       		.uleb128 0x21
 6425 024e 00       		.byte	0x0
 6426 024f 49       		.uleb128 0x49
 6427 0250 13       		.uleb128 0x13
 6428 0251 2F       		.uleb128 0x2f
 6429 0252 05       		.uleb128 0x5
 6430 0253 00       		.byte	0x0
 6431 0254 00       		.byte	0x0
 6432 0255 2E       		.uleb128 0x2e
 6433 0256 34       		.uleb128 0x34
 6434 0257 00       		.byte	0x0
 6435 0258 03       		.uleb128 0x3
 6436 0259 0E       		.uleb128 0xe
 6437 025a 3A       		.uleb128 0x3a
 6438 025b 0B       		.uleb128 0xb
 6439 025c 3B       		.uleb128 0x3b
 6440 025d 0B       		.uleb128 0xb
 6441 025e 49       		.uleb128 0x49
 6442 025f 13       		.uleb128 0x13
 6443 0260 3F       		.uleb128 0x3f
 6444 0261 0C       		.uleb128 0xc
 6445 0262 02       		.uleb128 0x2
 6446 0263 0A       		.uleb128 0xa
 6447 0264 00       		.byte	0x0
 6448 0265 00       		.byte	0x0
 6449 0266 2F       		.uleb128 0x2f
 6450 0267 34       		.uleb128 0x34
 6451 0268 00       		.byte	0x0
 6452 0269 03       		.uleb128 0x3
 6453 026a 08       		.uleb128 0x8
 6454 026b 3A       		.uleb128 0x3a
 6455 026c 0B       		.uleb128 0xb
 6456 026d 3B       		.uleb128 0x3b
 6457 026e 0B       		.uleb128 0xb
ARM GAS  /cygdrive/c/Users/Zbyszko/AppData/Local/Temp/ccaXFopk.s 			page 139


 6458 026f 49       		.uleb128 0x49
 6459 0270 13       		.uleb128 0x13
 6460 0271 3F       		.uleb128 0x3f
 6461 0272 0C       		.uleb128 0xc
 6462 0273 3C       		.uleb128 0x3c
 6463 0274 0C       		.uleb128 0xc
 6464 0275 00       		.byte	0x0
 6465 0276 00       		.byte	0x0
 6466 0277 00       		.byte	0x0
 6467              		.section	.debug_pubnames,"",%progbits
 6468 0000 63000000 		.4byte	0x63
 6469 0004 0200     		.2byte	0x2
 6470 0006 00000000 		.4byte	.Ldebug_info0
 6471 000a 680C0000 		.4byte	0xc68
 6472 000e 5C030000 		.4byte	0x35c
 6473 0012 626C6F63 		.ascii	"blockBtProc\000"
 6473      6B427450 
 6473      726F6300 
 6474 001e 9C030000 		.4byte	0x39c
 6475 0022 61637469 		.ascii	"activateBtProc\000"
 6475      76617465 
 6475      42745072 
 6475      6F6300
 6476 0031 F8080000 		.4byte	0x8f8
 6477 0035 68616E64 		.ascii	"handleBt\000"
 6477      6C654274 
 6477      00
 6478 003e E40A0000 		.4byte	0xae4
 6479 0042 696E6974 		.ascii	"initBtProc\000"
 6479      42745072 
 6479      6F6300
 6480 004d 370C0000 		.4byte	0xc37
 6481 0051 76657231 		.ascii	"ver1_0\000"
 6481      5F3000
 6482 0058 490C0000 		.4byte	0xc49
 6483 005c 76657231 		.ascii	"ver1_1\000"
 6483      5F3100
 6484 0063 00000000 		.4byte	0x0
 6485              		.section	.debug_aranges,"",%progbits
 6486 0000 1C000000 		.4byte	0x1c
 6487 0004 0200     		.2byte	0x2
 6488 0006 00000000 		.4byte	.Ldebug_info0
 6489 000a 04       		.byte	0x4
 6490 000b 00       		.byte	0x0
 6491 000c 0000     		.2byte	0x0
 6492 000e 0000     		.2byte	0x0
 6493 0010 00000000 		.4byte	.Ltext0
 6494 0014 38110000 		.4byte	.Letext0-.Ltext0
 6495 0018 00000000 		.4byte	0x0
 6496 001c 00000000 		.4byte	0x0
 6497              		.section	.debug_ranges,"",%progbits
 6498              	.Ldebug_ranges0:
 6499 0000 AE050000 		.4byte	.LBB20-.Ltext0
 6500 0004 3C0A0000 		.4byte	.LBE20-.Ltext0
 6501 0008 580F0000 		.4byte	.LBB55-.Ltext0
 6502 000c 6C0F0000 		.4byte	.LBE55-.Ltext0
 6503 0010 00000000 		.4byte	0x0
ARM GAS  /cygdrive/c/Users/Zbyszko/AppData/Local/Temp/ccaXFopk.s 			page 140


 6504 0014 00000000 		.4byte	0x0
 6505 0018 AE050000 		.4byte	.LBB21-.Ltext0
 6506 001c 12060000 		.4byte	.LBE21-.Ltext0
 6507 0020 580F0000 		.4byte	.LBB56-.Ltext0
 6508 0024 6C0F0000 		.4byte	.LBE56-.Ltext0
 6509 0028 100A0000 		.4byte	.LBB37-.Ltext0
 6510 002c 3C0A0000 		.4byte	.LBE37-.Ltext0
 6511 0030 1A080000 		.4byte	.LBB31-.Ltext0
 6512 0034 0A0A0000 		.4byte	.LBE31-.Ltext0
 6513 0038 06080000 		.4byte	.LBB29-.Ltext0
 6514 003c 10080000 		.4byte	.LBE29-.Ltext0
 6515 0040 BE070000 		.4byte	.LBB27-.Ltext0
 6516 0044 E0070000 		.4byte	.LBE27-.Ltext0
 6517 0048 4C070000 		.4byte	.LBB25-.Ltext0
 6518 004c B4070000 		.4byte	.LBE25-.Ltext0
 6519 0050 A2060000 		.4byte	.LBB24-.Ltext0
 6520 0054 48070000 		.4byte	.LBE24-.Ltext0
 6521 0058 4C060000 		.4byte	.LBB23-.Ltext0
 6522 005c 8E060000 		.4byte	.LBE23-.Ltext0
 6523 0060 1C060000 		.4byte	.LBB22-.Ltext0
 6524 0064 3C060000 		.4byte	.LBE22-.Ltext0
 6525 0068 00000000 		.4byte	0x0
 6526 006c 00000000 		.4byte	0x0
 6527 0070 8A070000 		.4byte	.LBB26-.Ltext0
 6528 0074 B4070000 		.4byte	.LBE26-.Ltext0
 6529 0078 100A0000 		.4byte	.LBB38-.Ltext0
 6530 007c 1A0A0000 		.4byte	.LBE38-.Ltext0
 6531 0080 1A080000 		.4byte	.LBB32-.Ltext0
 6532 0084 0A0A0000 		.4byte	.LBE32-.Ltext0
 6533 0088 06080000 		.4byte	.LBB30-.Ltext0
 6534 008c 10080000 		.4byte	.LBE30-.Ltext0
 6535 0090 BE070000 		.4byte	.LBB28-.Ltext0
 6536 0094 E0070000 		.4byte	.LBE28-.Ltext0
 6537 0098 00000000 		.4byte	0x0
 6538 009c 00000000 		.4byte	0x0
 6539 00a0 70090000 		.4byte	.LBB35-.Ltext0
 6540 00a4 9C090000 		.4byte	.LBE35-.Ltext0
 6541 00a8 AC090000 		.4byte	.LBB36-.Ltext0
 6542 00ac BA090000 		.4byte	.LBE36-.Ltext0
 6543 00b0 00000000 		.4byte	0x0
 6544 00b4 00000000 		.4byte	0x0
 6545 00b8 3C0A0000 		.4byte	.LBB39-.Ltext0
 6546 00bc 1E0D0000 		.4byte	.LBE39-.Ltext0
 6547 00c0 7C0F0000 		.4byte	.LBB61-.Ltext0
 6548 00c4 860F0000 		.4byte	.LBE61-.Ltext0
 6549 00c8 6C0F0000 		.4byte	.LBB57-.Ltext0
 6550 00cc 740F0000 		.4byte	.LBE57-.Ltext0
 6551 00d0 00000000 		.4byte	0x0
 6552 00d4 00000000 		.4byte	0x0
 6553 00d8 3C0A0000 		.4byte	.LBB40-.Ltext0
 6554 00dc AE0A0000 		.4byte	.LBE40-.Ltext0
 6555 00e0 7C0F0000 		.4byte	.LBB62-.Ltext0
 6556 00e4 860F0000 		.4byte	.LBE62-.Ltext0
 6557 00e8 6C0F0000 		.4byte	.LBB58-.Ltext0
 6558 00ec 740F0000 		.4byte	.LBE58-.Ltext0
 6559 00f0 FC0B0000 		.4byte	.LBB45-.Ltext0
 6560 00f4 1E0D0000 		.4byte	.LBE45-.Ltext0
ARM GAS  /cygdrive/c/Users/Zbyszko/AppData/Local/Temp/ccaXFopk.s 			page 141


 6561 00f8 8E0B0000 		.4byte	.LBB43-.Ltext0
 6562 00fc E20B0000 		.4byte	.LBE43-.Ltext0
 6563 0100 F00A0000 		.4byte	.LBB42-.Ltext0
 6564 0104 8A0B0000 		.4byte	.LBE42-.Ltext0
 6565 0108 B80A0000 		.4byte	.LBB41-.Ltext0
 6566 010c E00A0000 		.4byte	.LBE41-.Ltext0
 6567 0110 00000000 		.4byte	0x0
 6568 0114 00000000 		.4byte	0x0
 6569 0118 980B0000 		.4byte	.LBB44-.Ltext0
 6570 011c E20B0000 		.4byte	.LBE44-.Ltext0
 6571 0120 FC0B0000 		.4byte	.LBB46-.Ltext0
 6572 0124 360C0000 		.4byte	.LBE46-.Ltext0
 6573 0128 00000000 		.4byte	0x0
 6574 012c 00000000 		.4byte	0x0
 6575 0130 1E0D0000 		.4byte	.LBB47-.Ltext0
 6576 0134 1A0F0000 		.4byte	.LBE47-.Ltext0
 6577 0138 740F0000 		.4byte	.LBB59-.Ltext0
 6578 013c 7C0F0000 		.4byte	.LBE59-.Ltext0
 6579 0140 00000000 		.4byte	0x0
 6580 0144 00000000 		.4byte	0x0
 6581 0148 1E0D0000 		.4byte	.LBB48-.Ltext0
 6582 014c 900D0000 		.4byte	.LBE48-.Ltext0
 6583 0150 740F0000 		.4byte	.LBB60-.Ltext0
 6584 0154 7C0F0000 		.4byte	.LBE60-.Ltext0
 6585 0158 900E0000 		.4byte	.LBB53-.Ltext0
 6586 015c 1A0F0000 		.4byte	.LBE53-.Ltext0
 6587 0160 220E0000 		.4byte	.LBB51-.Ltext0
 6588 0164 760E0000 		.4byte	.LBE51-.Ltext0
 6589 0168 C80D0000 		.4byte	.LBB50-.Ltext0
 6590 016c 1E0E0000 		.4byte	.LBE50-.Ltext0
 6591 0170 980D0000 		.4byte	.LBB49-.Ltext0
 6592 0174 B80D0000 		.4byte	.LBE49-.Ltext0
 6593 0178 00000000 		.4byte	0x0
 6594 017c 00000000 		.4byte	0x0
 6595 0180 2C0E0000 		.4byte	.LBB52-.Ltext0
 6596 0184 760E0000 		.4byte	.LBE52-.Ltext0
 6597 0188 900E0000 		.4byte	.LBB54-.Ltext0
 6598 018c AA0E0000 		.4byte	.LBE54-.Ltext0
 6599 0190 00000000 		.4byte	0x0
 6600 0194 00000000 		.4byte	0x0
 6601              		.section	.debug_str,"MS",%progbits,1
 6602              	.LASF13:
 6603 0000 704E6578 		.ascii	"pNextTimeQueue\000"
 6603      7454696D 
 6603      65517565 
 6603      756500
 6604              	.LASF89:
 6605 000f 61637469 		.ascii	"activateBtProc\000"
 6605      76617465 
 6605      42745072 
 6605      6F6300
 6606              	.LASF30:
 6607 001e 74436E74 		.ascii	"tCntSem\000"
 6607      53656D00 
 6608              	.LASF20:
 6609 0026 5F744F53 		.ascii	"_tOSPCB__\000"
 6609      5043425F 
ARM GAS  /cygdrive/c/Users/Zbyszko/AppData/Local/Temp/ccaXFopk.s 			page 142


 6609      5F00
 6610              	.LASF14:
 6611 0030 7072696F 		.ascii	"prio\000"
 6611      00
 6612              	.LASF70:
 6613 0035 6D657373 		.ascii	"messagePart3\000"
 6613      61676550 
 6613      61727433 
 6613      00
 6614              	.LASF91:
 6615 0042 65786974 		.ascii	"exit\000"
 6615      00
 6616              	.LASF9:
 6617 0047 704E6578 		.ascii	"pNextPrioQueueReady\000"
 6617      74507269 
 6617      6F517565 
 6617      75655265 
 6617      61647900 
 6618              	.LASF5:
 6619 005b 7369676E 		.ascii	"signed char\000"
 6619      65642063 
 6619      68617200 
 6620              	.LASF53:
 6621 0067 74427452 		.ascii	"tBtRecord\000"
 6621      65636F72 
 6621      6400
 6622              	.LASF76:
 6623 0071 646F6E65 		.ascii	"done\000"
 6623      00
 6624              	.LASF55:
 6625 0076 64726177 		.ascii	"drawBtMenuCursor\000"
 6625      42744D65 
 6625      6E754375 
 6625      72736F72 
 6625      00
 6626              	.LASF34:
 6627 0087 6C6F6E67 		.ascii	"long long unsigned int\000"
 6627      206C6F6E 
 6627      6720756E 
 6627      7369676E 
 6627      65642069 
 6628              	.LASF48:
 6629 009e 73656C65 		.ascii	"selectedColor\000"
 6629      63746564 
 6629      436F6C6F 
 6629      7200
 6630              	.LASF75:
 6631 00ac 72784368 		.ascii	"rxChar\000"
 6631      617200
 6632              	.LASF19:
 6633 00b3 744F5350 		.ascii	"tOSPCB\000"
 6633      434200
 6634              	.LASF21:
 6635 00ba 5F745072 		.ascii	"_tPrioQueue_\000"
 6635      696F5175 
 6635      6575655F 
 6635      00
ARM GAS  /cygdrive/c/Users/Zbyszko/AppData/Local/Temp/ccaXFopk.s 			page 143


 6636              	.LASF96:
 6637 00c7 70696442 		.ascii	"pidBt\000"
 6637      7400
 6638              	.LASF45:
 6639 00cd 626F7264 		.ascii	"borderColor\000"
 6639      6572436F 
 6639      6C6F7200 
 6640              	.LASF32:
 6641 00d9 6C6F6E67 		.ascii	"long long int\000"
 6641      206C6F6E 
 6641      6720696E 
 6641      7400
 6642              	.LASF7:
 6643 00e7 74426F6F 		.ascii	"tBool\000"
 6643      6C00
 6644              	.LASF105:
 6645 00ed 76657231 		.ascii	"ver1_1\000"
 6645      5F3100
 6646              	.LASF92:
 6647 00f4 696E6974 		.ascii	"initBtProc\000"
 6647      42745072 
 6647      6F6300
 6648              	.LASF99:
 6649 00ff 62744375 		.ascii	"btCursor\000"
 6649      72736F72 
 6649      00
 6650              	.LASF0:
 6651 0108 74553136 		.ascii	"tU16\000"
 6651      00
 6652              	.LASF31:
 6653 010d 6C6F6E67 		.ascii	"long int\000"
 6653      20696E74 
 6653      00
 6654              	.LASF79:
 6655 0116 72656376 		.ascii	"recvPos\000"
 6655      506F7300 
 6656              	.LASF103:
 6657 011e 666F756E 		.ascii	"foundBtUnits\000"
 6657      64427455 
 6657      6E697473 
 6657      00
 6658              	.LASF86:
 6659 012b 62745365 		.ascii	"btSetName\000"
 6659      744E616D 
 6659      6500
 6660              	.LASF107:
 6661 0135 62742E63 		.ascii	"bt.c\000"
 6661      00
 6662              	.LASF38:
 6663 013a 794C656E 		.ascii	"yLen\000"
 6663      00
 6664              	.LASF101:
 6665 013f 6274436F 		.ascii	"btCommandMode\000"
 6665      6D6D616E 
 6665      644D6F64 
 6665      6500
 6666              	.LASF77:
ARM GAS  /cygdrive/c/Users/Zbyszko/AppData/Local/Temp/ccaXFopk.s 			page 144


 6667 014d 616E794B 		.ascii	"anyKey\000"
 6667      657900
 6668              	.LASF64:
 6669 0154 64697370 		.ascii	"displayMessage\000"
 6669      6C61794D 
 6669      65737361 
 6669      676500
 6670              	.LASF108:
 6671 0163 2F637967 		.ascii	"/cygdrive/c/eclipse/workspace/2138\000"
 6671      64726976 
 6671      652F632F 
 6671      65636C69 
 6671      7073652F 
 6672              	.LASF90:
 6673 0186 68616E64 		.ascii	"handleBt\000"
 6673      6C654274 
 6673      00
 6674              	.LASF59:
 6675 018f 64726177 		.ascii	"drawBtsFound\000"
 6675      42747346 
 6675      6F756E64 
 6675      00
 6676              	.LASF39:
 6677 019c 6E6F4F66 		.ascii	"noOfChoices\000"
 6677      43686F69 
 6677      63657300 
 6678              	.LASF95:
 6679 01a8 70726F63 		.ascii	"procBtStack\000"
 6679      42745374 
 6679      61636B00 
 6680              	.LASF47:
 6681 01b4 63686F69 		.ascii	"choicesColor\000"
 6681      63657343 
 6681      6F6C6F72 
 6681      00
 6682              	.LASF40:
 6683 01c1 696E6974 		.ascii	"initialChoice\000"
 6683      69616C43 
 6683      686F6963 
 6683      6500
 6684              	.LASF27:
 6685 01cf 77616974 		.ascii	"waitQ\000"
 6685      5100
 6686              	.LASF4:
 6687 01d5 756E7369 		.ascii	"unsigned int\000"
 6687      676E6564 
 6687      20696E74 
 6687      00
 6688              	.LASF104:
 6689 01e2 76657231 		.ascii	"ver1_0\000"
 6689      5F3000
 6690              	.LASF50:
 6691 01e9 61637469 		.ascii	"active\000"
 6691      766500
 6692              	.LASF42:
 6693 01f0 68656164 		.ascii	"headerTextXpos\000"
 6693      65725465 
ARM GAS  /cygdrive/c/Users/Zbyszko/AppData/Local/Temp/ccaXFopk.s 			page 145


 6693      78745870 
 6693      6F7300
 6694              	.LASF82:
 6695 01ff 6E756D53 		.ascii	"numServices\000"
 6695      65727669 
 6695      63657300 
 6696              	.LASF24:
 6697 020b 6C6F6E67 		.ascii	"long unsigned int\000"
 6697      20756E73 
 6697      69676E65 
 6697      6420696E 
 6697      7400
 6698              	.LASF72:
 6699 021d 6D657373 		.ascii	"messagePart5\000"
 6699      61676550 
 6699      61727435 
 6699      00
 6700              	.LASF56:
 6701 022a 636F6D6D 		.ascii	"commandMode\000"
 6701      616E644D 
 6701      6F646500 
 6702              	.LASF2:
 6703 0236 73686F72 		.ascii	"short unsigned int\000"
 6703      7420756E 
 6703      7369676E 
 6703      65642069 
 6703      6E7400
 6704              	.LASF16:
 6705 0249 736C6565 		.ascii	"sleep\000"
 6705      7000
 6706              	.LASF84:
 6707 024f 6C6F6E67 		.ascii	"longName\000"
 6707      4E616D65 
 6707      00
 6708              	.LASF3:
 6709 0258 74553332 		.ascii	"tU32\000"
 6709      00
 6710              	.LASF11:
 6711 025d 704E6578 		.ascii	"pNextPrioQueueEvent\000"
 6711      74507269 
 6711      6F517565 
 6711      75654576 
 6711      656E7400 
 6712              	.LASF61:
 6713 0271 63757273 		.ascii	"cursorPos\000"
 6713      6F72506F 
 6713      7300
 6714              	.LASF26:
 6715 027b 5F744F53 		.ascii	"_tOSEvent_\000"
 6715      4576656E 
 6715      745F00
 6716              	.LASF43:
 6717 0286 7043686F 		.ascii	"pChoice\000"
 6717      69636500 
 6718              	.LASF44:
 6719 028e 6267436F 		.ascii	"bgColor\000"
 6719      6C6F7200 
ARM GAS  /cygdrive/c/Users/Zbyszko/AppData/Local/Temp/ccaXFopk.s 			page 146


 6720              	.LASF81:
 6721 0296 666F756E 		.ascii	"foundBt\000"
 6721      64427400 
 6722              	.LASF73:
 6723 029e 62744163 		.ascii	"btActiveSleep\000"
 6723      74697665 
 6723      536C6565 
 6723      7000
 6724              	.LASF110:
 6725 02ac 64726177 		.ascii	"drawBtMenu\000"
 6725      42744D65 
 6725      6E7500
 6726              	.LASF80:
 6727 02b7 72656376 		.ascii	"recvBuf\000"
 6727      42756600 
 6728              	.LASF62:
 6729 02bf 64726177 		.ascii	"drawBtName\000"
 6729      42744E61 
 6729      6D6500
 6730              	.LASF57:
 6731 02ca 63757273 		.ascii	"cursor\000"
 6731      6F7200
 6732              	.LASF51:
 6733 02d1 62744164 		.ascii	"btAddress\000"
 6733      64726573 
 6733      7300
 6734              	.LASF58:
 6735 02db 6572726F 		.ascii	"error\000"
 6735      7200
 6736              	.LASF88:
 6737 02e1 62745365 		.ascii	"btSetAddress\000"
 6737      74416464 
 6737      72657373 
 6737      00
 6738              	.LASF54:
 6739 02ee 62745365 		.ascii	"btSetMode\000"
 6739      744D6F64 
 6739      6500
 6740              	.LASF17:
 6741 02f8 7053746B 		.ascii	"pStkOrg\000"
 6741      4F726700 
 6742              	.LASF8:
 6743 0300 7053746B 		.ascii	"pStk\000"
 6743      00
 6744              	.LASF85:
 6745 0305 70537472 		.ascii	"pStr\000"
 6745      00
 6746              	.LASF49:
 6747 030a 744D656E 		.ascii	"tMenu\000"
 6747      7500
 6748              	.LASF102:
 6749 0310 6C6F6361 		.ascii	"localName\000"
 6749      6C4E616D 
 6749      6500
 6750              	.LASF93:
 6751 031a 70726F63 		.ascii	"procBt\000"
 6751      427400
ARM GAS  /cygdrive/c/Users/Zbyszko/AppData/Local/Temp/ccaXFopk.s 			page 147


 6752              	.LASF1:
 6753 0321 756E7369 		.ascii	"unsigned char\000"
 6753      676E6564 
 6753      20636861 
 6753      7200
 6754              	.LASF106:
 6755 032f 474E5520 		.ascii	"GNU C 4.1.1\000"
 6755      4320342E 
 6755      312E3100 
 6756              	.LASF6:
 6757 033b 73686F72 		.ascii	"short int\000"
 6757      7420696E 
 6757      7400
 6758              	.LASF37:
 6759 0345 784C656E 		.ascii	"xLen\000"
 6759      00
 6760              	.LASF15:
 6761 034a 666C6167 		.ascii	"flag\000"
 6761      00
 6762              	.LASF33:
 6763 034f 63686172 		.ascii	"char\000"
 6763      00
 6764              	.LASF83:
 6765 0354 73657276 		.ascii	"serviceName\000"
 6765      6963654E 
 6765      616D6500 
 6766              	.LASF18:
 6767 0360 73746163 		.ascii	"stackSize\000"
 6767      6B53697A 
 6767      6500
 6768              	.LASF109:
 6769 036a 626C6F63 		.ascii	"blockBtProc\000"
 6769      6B427450 
 6769      726F6300 
 6770              	.LASF68:
 6771 0376 6D657373 		.ascii	"messagePart1\000"
 6771      61676550 
 6771      61727431 
 6771      00
 6772              	.LASF69:
 6773 0383 6D657373 		.ascii	"messagePart2\000"
 6773      61676550 
 6773      61727432 
 6773      00
 6774              	.LASF65:
 6775 0390 704D6573 		.ascii	"pMessage\000"
 6775      73616765 
 6775      00
 6776              	.LASF71:
 6777 0399 6D657373 		.ascii	"messagePart4\000"
 6777      61676550 
 6777      61727434 
 6777      00
 6778              	.LASF22:
 6779 03a6 70507269 		.ascii	"pPrioList\000"
 6779      6F4C6973 
 6779      7400
ARM GAS  /cygdrive/c/Users/Zbyszko/AppData/Local/Temp/ccaXFopk.s 			page 148


 6780              	.LASF67:
 6781 03b0 62744D6F 		.ascii	"btMode\000"
 6781      646500
 6782              	.LASF98:
 6783 03b7 72656376 		.ascii	"recvSem\000"
 6783      53656D00 
 6784              	.LASF63:
 6785 03bf 64726177 		.ascii	"drawBtAddress\000"
 6785      42744164 
 6785      64726573 
 6785      7300
 6786              	.LASF94:
 6787 03cd 6E6F7468 		.ascii	"nothing\000"
 6787      696E6700 
 6788              	.LASF36:
 6789 03d5 79506F73 		.ascii	"yPos\000"
 6789      00
 6790              	.LASF23:
 6791 03da 70504342 		.ascii	"pPCBs\000"
 6791      7300
 6792              	.LASF74:
 6793 03e0 6274496E 		.ascii	"btInquiry\000"
 6793      71756972 
 6793      7900
 6794              	.LASF46:
 6795 03ea 68656164 		.ascii	"headerColor\000"
 6795      6572436F 
 6795      6C6F7200 
 6796              	.LASF28:
 6797 03f6 744F5345 		.ascii	"tOSEvent\000"
 6797      76656E74 
 6797      00
 6798              	.LASF12:
 6799 03ff 70507265 		.ascii	"pPrevPrioQueueEvent\000"
 6799      76507269 
 6799      6F517565 
 6799      75654576 
 6799      656E7400 
 6800              	.LASF100:
 6801 0413 6274536C 		.ascii	"btSleepState\000"
 6801      65657053 
 6801      74617465 
 6801      00
 6802              	.LASF87:
 6803 0420 6D656E75 		.ascii	"menu\000"
 6803      00
 6804              	.LASF60:
 6805 0425 64726177 		.ascii	"drawCursor\000"
 6805      43757273 
 6805      6F7200
 6806              	.LASF25:
 6807 0430 74507269 		.ascii	"tPrioQueue\000"
 6807      6F517565 
 6807      756500
 6808              	.LASF66:
 6809 043b 73706565 		.ascii	"speed\000"
 6809      6400
ARM GAS  /cygdrive/c/Users/Zbyszko/AppData/Local/Temp/ccaXFopk.s 			page 149


 6810              	.LASF35:
 6811 0441 78506F73 		.ascii	"xPos\000"
 6811      00
 6812              	.LASF29:
 6813 0446 5F74436E 		.ascii	"_tCntSem_\000"
 6813      7453656D 
 6813      5F00
 6814              	.LASF10:
 6815 0450 70507265 		.ascii	"pPrevPrioQueueReady\000"
 6815      76507269 
 6815      6F517565 
 6815      75655265 
 6815      61647900 
 6816              	.LASF52:
 6817 0464 62744E61 		.ascii	"btName\000"
 6817      6D6500
 6818              	.LASF78:
 6819 046b 74696D65 		.ascii	"timeStamp\000"
 6819      5374616D 
 6819      7000
 6820              	.LASF41:
 6821 0475 70486561 		.ascii	"pHeaderText\000"
 6821      64657254 
 6821      65787400 
 6822              	.LASF97:
 6823 0481 73746F70 		.ascii	"stopRecvProc\000"
 6823      52656376 
 6823      50726F63 
 6823      00
 6824              		.ident	"GCC: (GNU) 4.1.1"
ARM GAS  /cygdrive/c/Users/Zbyszko/AppData/Local/Temp/ccaXFopk.s 			page 150


DEFINED SYMBOLS
                            *ABS*:00000000 bt.c
/cygdrive/c/Users/Zbyszko/AppData/Local/Temp/ccaXFopk.s:1      .text:00000000 $t
/cygdrive/c/Users/Zbyszko/AppData/Local/Temp/ccaXFopk.s:16     .text:00000000 blockBtProc
/cygdrive/c/Users/Zbyszko/AppData/Local/Temp/ccaXFopk.s:36     .text:00000014 $d
/cygdrive/c/Users/Zbyszko/AppData/Local/Temp/ccaXFopk.s:3238   .bss:00000000 stopRecvProc
/cygdrive/c/Users/Zbyszko/AppData/Local/Temp/ccaXFopk.s:48     .text:00000018 $t
/cygdrive/c/Users/Zbyszko/AppData/Local/Temp/ccaXFopk.s:51     .text:00000018 btSetMode
/cygdrive/c/Users/Zbyszko/AppData/Local/Temp/ccaXFopk.s:101    .text:00000058 $d
/cygdrive/c/Users/Zbyszko/AppData/Local/Temp/ccaXFopk.s:110    .text:00000060 activateBtProc
/cygdrive/c/Users/Zbyszko/AppData/Local/Temp/ccaXFopk.s:107    .text:00000060 $t
/cygdrive/c/Users/Zbyszko/AppData/Local/Temp/ccaXFopk.s:143    .text:00000088 $d
/cygdrive/c/Users/Zbyszko/AppData/Local/Temp/ccaXFopk.s:3251   .bss:00000328 recvSem
/cygdrive/c/Users/Zbyszko/AppData/Local/Temp/ccaXFopk.s:3240   .bss:00000001 btCommandMode
/cygdrive/c/Users/Zbyszko/AppData/Local/Temp/ccaXFopk.s:175    .text:00000094 $t
/cygdrive/c/Users/Zbyszko/AppData/Local/Temp/ccaXFopk.s:178    .text:00000094 drawBtMenuCursor
/cygdrive/c/Users/Zbyszko/AppData/Local/Temp/ccaXFopk.s:225    .rodata:00000000 $d
/cygdrive/c/Users/Zbyszko/AppData/Local/Temp/ccaXFopk.s:290    .text:00000114 $d
/cygdrive/c/Users/Zbyszko/AppData/Local/Temp/ccaXFopk.s:3242   .bss:00000002 btCursor
/cygdrive/c/Users/Zbyszko/AppData/Local/Temp/ccaXFopk.s:3244   .bss:00000003 btSleepState
/cygdrive/c/Users/Zbyszko/AppData/Local/Temp/ccaXFopk.s:310    .text:00000144 $t
/cygdrive/c/Users/Zbyszko/AppData/Local/Temp/ccaXFopk.s:313    .text:00000144 drawBtsFound
/cygdrive/c/Users/Zbyszko/AppData/Local/Temp/ccaXFopk.s:406    .text:000001b8 $d
/cygdrive/c/Users/Zbyszko/AppData/Local/Temp/ccaXFopk.s:3258   .bss:00000364 foundBtUnits
/cygdrive/c/Users/Zbyszko/AppData/Local/Temp/ccaXFopk.s:411    .text:000001c0 $t
/cygdrive/c/Users/Zbyszko/AppData/Local/Temp/ccaXFopk.s:414    .text:000001c0 drawBtName
/cygdrive/c/Users/Zbyszko/AppData/Local/Temp/ccaXFopk.s:466    .text:000001fc $d
/cygdrive/c/Users/Zbyszko/AppData/Local/Temp/ccaXFopk.s:3253   .bss:00000344 localName
/cygdrive/c/Users/Zbyszko/AppData/Local/Temp/ccaXFopk.s:471    .text:00000204 $t
/cygdrive/c/Users/Zbyszko/AppData/Local/Temp/ccaXFopk.s:474    .text:00000204 drawBtAddress
/cygdrive/c/Users/Zbyszko/AppData/Local/Temp/ccaXFopk.s:526    .text:00000240 $d
/cygdrive/c/Users/Zbyszko/AppData/Local/Temp/ccaXFopk.s:3255   .bss:00000355 btAddress
/cygdrive/c/Users/Zbyszko/AppData/Local/Temp/ccaXFopk.s:531    .text:00000248 $t
/cygdrive/c/Users/Zbyszko/AppData/Local/Temp/ccaXFopk.s:534    .text:00000248 displayMessage
/cygdrive/c/Users/Zbyszko/AppData/Local/Temp/ccaXFopk.s:602    .text:0000026c btMode
/cygdrive/c/Users/Zbyszko/AppData/Local/Temp/ccaXFopk.s:798    .text:000003b8 $d
/cygdrive/c/Users/Zbyszko/AppData/Local/Temp/ccaXFopk.s:821    .text:000003dc $t
/cygdrive/c/Users/Zbyszko/AppData/Local/Temp/ccaXFopk.s:824    .text:000003dc btActiveSleep
/cygdrive/c/Users/Zbyszko/AppData/Local/Temp/ccaXFopk.s:946    .text:0000049c $d
/cygdrive/c/Users/Zbyszko/AppData/Local/Temp/ccaXFopk.s:975    .text:000004b4 $t
/cygdrive/c/Users/Zbyszko/AppData/Local/Temp/ccaXFopk.s:978    .text:000004b4 drawBtMenu
/cygdrive/c/Users/Zbyszko/AppData/Local/Temp/ccaXFopk.s:1075   .text:00000554 $d
/cygdrive/c/Users/Zbyszko/AppData/Local/Temp/ccaXFopk.s:1224   .text:00000578 handleBt
/cygdrive/c/Users/Zbyszko/AppData/Local/Temp/ccaXFopk.s:1221   .text:00000578 $t
/cygdrive/c/Users/Zbyszko/AppData/Local/Temp/ccaXFopk.s:1820   .text:000008b0 $d
/cygdrive/c/Users/Zbyszko/AppData/Local/Temp/ccaXFopk.s:1844   .text:0000090c $t
/cygdrive/c/Users/Zbyszko/AppData/Local/Temp/ccaXFopk.s:2452   .text:00000c78 $d
/cygdrive/c/Users/Zbyszko/AppData/Local/Temp/ccaXFopk.s:2484   .text:00000cf0 $t
/cygdrive/c/Users/Zbyszko/AppData/Local/Temp/ccaXFopk.s:3017   .text:00000fa8 $d
/cygdrive/c/Users/Zbyszko/AppData/Local/Temp/ccaXFopk.s:3044   .text:00000ff8 initBtProc
/cygdrive/c/Users/Zbyszko/AppData/Local/Temp/ccaXFopk.s:3041   .text:00000ff8 $t
/cygdrive/c/Users/Zbyszko/AppData/Local/Temp/ccaXFopk.s:3083   .text:00001034 $d
/cygdrive/c/Users/Zbyszko/AppData/Local/Temp/ccaXFopk.s:3248   .bss:00000324 pidBt
/cygdrive/c/Users/Zbyszko/AppData/Local/Temp/ccaXFopk.s:3101   .text:00001044 procBt
/cygdrive/c/Users/Zbyszko/AppData/Local/Temp/ccaXFopk.s:3246   .bss:00000004 procBtStack
/cygdrive/c/Users/Zbyszko/AppData/Local/Temp/ccaXFopk.s:3098   .text:00001044 $t
/cygdrive/c/Users/Zbyszko/AppData/Local/Temp/ccaXFopk.s:3226   .text:00001114 $d
ARM GAS  /cygdrive/c/Users/Zbyszko/AppData/Local/Temp/ccaXFopk.s 			page 151


                            *COM*:00000001 ver1_0
                            *COM*:00000001 ver1_1

UNDEFINED SYMBOLS
osSleep
uart1SendString
osSemGive
lcdGotoxy
lcdColor
lcdPuts
lcdPutchar
lcdRect
memcpy
resetBT
lcdClrscr
__umodsi3
__udivsi3
checkKey
uart1GetChar
simplePrintf
memcmp
strchr
ms
drawMenu
osSemInit
osCreateProcess
osStartProcess
initUart1
osSemTake
consolGetChar
uart1SendChar
