ARM GAS  /cygdrive/c/Users/Zbyszko/AppData/Local/Temp/ccMUFlgb.s 			page 1


   1              		.file	"irqUart.c"
   8 0000 CE000000 		.text
   8      02007800 
   8      00000201 
   8      FB0E0D00 
   8      01010101 
   9              	.Ltext0:
  10              		.align	2
  11              		.global	disIrq
  12              		.type	disIrq, %function
  13              	disIrq:
  14              	.LFB3:
  15              		.file 1 "irqUart.c"
   1:irqUart.c     **** /******************************************************************************
   2:irqUart.c     ****  *
   3:irqUart.c     ****  * File:
   4:irqUart.c     ****  *    irqUart.c
   5:irqUart.c     ****  *
   6:irqUart.c     ****  * Description:
   7:irqUart.c     ****  *    Sample irq code, that must be compiled in ARM code.
   8:irqUart.c     ****  *
   9:irqUart.c     ****  *****************************************************************************/
  10:irqUart.c     **** 
  11:irqUart.c     **** /******************************************************************************
  12:irqUart.c     ****  * Includes
  13:irqUart.c     ****  *****************************************************************************/
  14:irqUart.c     **** #include "../pre_emptive_os/api/osapi.h"
  15:irqUart.c     **** #include <lpc2xxx.h>
  16:irqUart.c     **** #include "irqUart.h"
  17:irqUart.c     **** #include "../uart.h"
  18:irqUart.c     **** 
  19:irqUart.c     **** extern tCntSem receiveSem;
  20:irqUart.c     **** 
  21:irqUart.c     **** /*****************************************************************************
  22:irqUart.c     ****  * Public function prototypes
  23:irqUart.c     ****  ****************************************************************************/
  24:irqUart.c     **** //void uart1ISR(void) __attribute__ ((interrupt));
  25:irqUart.c     **** 
  26:irqUart.c     **** 
  27:irqUart.c     **** /*****************************************************************************
  28:irqUart.c     ****  * Implementation of public functions
  29:irqUart.c     ****  ****************************************************************************/
  30:irqUart.c     **** 
  31:irqUart.c     **** /*****************************************************************************
  32:irqUart.c     ****  *
  33:irqUart.c     ****  * Description:
  34:irqUart.c     ****  *    Actual uart #1 ISR that is called whenever the uart generated an interrupt.
  35:irqUart.c     ****  *
  36:irqUart.c     ****  ****************************************************************************/
  37:irqUart.c     **** void
  38:irqUart.c     **** uart1ISR(void)
ARM GAS  /cygdrive/c/Users/Zbyszko/AppData/Local/Temp/ccMUFlgb.s 			page 2


  39:irqUart.c     **** {
  40:irqUart.c     ****   volatile tU8  statusReg;
  41:irqUart.c     ****   volatile tU8  dummy;
  42:irqUart.c     ****   volatile tU32 tmpHead;
  43:irqUart.c     ****   volatile tU32 tmpTail;
  44:irqUart.c     ****            tU8  error;
  45:irqUart.c     **** 
  46:irqUart.c     ****   //loop until not more interrupt sources
  47:irqUart.c     ****   while (((statusReg = U1IIR) & 0x01) == 0)
  48:irqUart.c     ****   {
  49:irqUart.c     ****     //identify and process the highest priority interrupt
  50:irqUart.c     ****     switch (statusReg & 0x0E)
  51:irqUart.c     ****     {
  52:irqUart.c     ****       case 0x06:  //Receive Line Status
  53:irqUart.c     ****       dummy = U1LSR;  //read LSR to clear bits
  54:irqUart.c     ****       break;
  55:irqUart.c     **** 
  56:irqUart.c     ****       case 0x0c:  //Character Timeout Indicator
  57:irqUart.c     ****       case 0x04:  //Receive Data Available
  58:irqUart.c     ****       do
  59:irqUart.c     ****       {
  60:irqUart.c     ****         tmpHead     = (uart1RxHead + 1) & RX_BUFFER_MASK;
  61:irqUart.c     ****         uart1RxHead = tmpHead;
  62:irqUart.c     **** 
  63:irqUart.c     ****         if(tmpHead == uart1RxTail)
  64:irqUart.c     ****           tmpHead = U1RBR;              //dummy read to reset IRQ flag
  65:irqUart.c     ****         else
  66:irqUart.c     ****         {
  67:irqUart.c     ****           uart1RxBuf[tmpHead] = U1RBR;  //will reset IRQ flag
  68:irqUart.c     **** 
  69:irqUart.c     **** uart1RxInBuff++;
  70:irqUart.c     **** if(uart1RxInBuff > (RX_BUFFER_SIZE - RX_BUFFER_LIMIT))
  71:irqUart.c     **** {
  72:irqUart.c     ****   //pull RTS low = other side should stop sending
  73:irqUart.c     ****   UART1_MCR = 0x00;
  74:irqUart.c     **** //  RTSlow = TRUE;
  75:irqUart.c     **** }
  76:irqUart.c     **** 
  77:irqUart.c     **** osSemGive(&receiveSem, &error);
  78:irqUart.c     **** 
  79:irqUart.c     ****         }
  80:irqUart.c     **** 
  81:irqUart.c     ****       } while (U1LSR & 0x01);
  82:irqUart.c     ****       break;
  83:irqUart.c     **** 
  84:irqUart.c     ****       case 0x02:  //Transmit Holding Register Empty
  85:irqUart.c     ****       //check if all data is transmitted
  86:irqUart.c     ****       if (uart1TxHead != uart1TxTail)
  87:irqUart.c     ****       {
  88:irqUart.c     ****       	tU32 bytesToSend;
  89:irqUart.c     ****       	
  90:irqUart.c     ****       	if (statusReg & 0xc0)
  91:irqUart.c     ****       	  bytesToSend = 16;    //FIFO enabled
  92:irqUart.c     ****       	else
  93:irqUart.c     ****       	  bytesToSend = 1;     //no FIFO enabled
  94:irqUart.c     **** 
  95:irqUart.c     ****       	do
ARM GAS  /cygdrive/c/Users/Zbyszko/AppData/Local/Temp/ccMUFlgb.s 			page 3


  96:irqUart.c     ****       	{
  97:irqUart.c     ****           //calculate buffer index
  98:irqUart.c     ****           tmpTail = (uart1TxTail + 1) & TX_BUFFER_MASK;
  99:irqUart.c     **** 
 100:irqUart.c     ****           uart1TxTail = tmpTail;
 101:irqUart.c     ****           U1THR = uart1TxBuf[tmpTail]; 
 102:irqUart.c     ****         } while((uart1TxHead != uart1TxTail) && --bytesToSend);
 103:irqUart.c     ****       }
 104:irqUart.c     **** 
 105:irqUart.c     ****       //all data has been transmitted
 106:irqUart.c     ****       else
 107:irqUart.c     ****       {
 108:irqUart.c     ****         uart1TxRunning = FALSE;
 109:irqUart.c     ****         U1IER &= ~0x02;        //disable TX IRQ
 110:irqUart.c     ****       }
 111:irqUart.c     ****       break;
 112:irqUart.c     **** 
 113:irqUart.c     ****       case 0x00:  //Modem signal IRQ
 114:irqUart.c     ****       {
 115:irqUart.c     ****       tU8 cause = UART1_MSR;
 116:irqUart.c     ****       
 117:irqUart.c     ****       //check if change on CTS
 118:irqUart.c     ****       if((cause & 0x01) == 0x01)
 119:irqUart.c     ****       {
 120:irqUart.c     ****         //check if CTS is low = allowed to send (register value is inverse of signal at pin)
 121:irqUart.c     ****         if((cause & 0x10) == 0x10)
 122:irqUart.c     ****         {
 123:irqUart.c     **** //CTShigh = TRUE;
 124:irqUart.c     ****           /* check if data to be transmitted */
 125:irqUart.c     ****           if((uart1TxHead != uart1TxTail) && (uart1TxRunning == FALSE))
 126:irqUart.c     ****           {
 127:irqUart.c     ****             /* calculate buffer index */
 128:irqUart.c     ****             tmpTail = (uart1TxTail + 1) & TX_BUFFER_MASK;
 129:irqUart.c     **** 
 130:irqUart.c     ****             uart1TxTail = tmpTail;
 131:irqUart.c     ****             U1THR = uart1TxBuf[tmpTail]; 
 132:irqUart.c     ****             uart1TxRunning = TRUE;
 133:irqUart.c     ****             U1IER = 0x0f;          /* enable TX IRQ, and RX IRQ still enabled (and modem) */
 134:irqUart.c     ****           }
 135:irqUart.c     ****         }
 136:irqUart.c     **** 
 137:irqUart.c     ****         //CTS is high = NOT allowed to send
 138:irqUart.c     ****         else
 139:irqUart.c     ****         {
 140:irqUart.c     **** //CTSlow = TRUE;
 141:irqUart.c     ****           uart1TxRunning = FALSE;
 142:irqUart.c     ****           U1IER &= ~0x02;        //disable TX IRQ
 143:irqUart.c     ****         }
 144:irqUart.c     ****       }
 145:irqUart.c     ****       }
 146:irqUart.c     ****       break;
 147:irqUart.c     **** 
 148:irqUart.c     ****       default:  //unknown
 149:irqUart.c     ****       dummy = U1LSR;
 150:irqUart.c     ****       dummy = U1RBR;
 151:irqUart.c     ****       break;
 152:irqUart.c     ****     }
ARM GAS  /cygdrive/c/Users/Zbyszko/AppData/Local/Temp/ccMUFlgb.s 			page 4


 153:irqUart.c     ****   }
 154:irqUart.c     **** 
 155:irqUart.c     ****   VICVectAddr = 0x00000000;    //dummy write to VIC to signal end of interrupt
 156:irqUart.c     **** }
 157:irqUart.c     **** 
 158:irqUart.c     **** /*****************************************************************************
 159:irqUart.c     ****  *
 160:irqUart.c     ****  * Description:
 161:irqUart.c     ****  *    Disable interrupts 
 162:irqUart.c     ****  *
 163:irqUart.c     ****  * Returns:
 164:irqUart.c     ****  *    The current status register, before disabling interrupts. 
 165:irqUart.c     ****  *
 166:irqUart.c     ****  ****************************************************************************/
 167:irqUart.c     **** tU32
 168:irqUart.c     **** disIrq(void)
 169:irqUart.c     **** {
  16              		.loc 1 169 0
  17              		@ Function supports interworking.
  18              		@ args = 0, pretend = 0, frame = 0
  19              		@ frame_needed = 0, uses_anonymous_args = 0
  20              		@ link register save eliminated.
  21              		@ lr needed for prologue
 170:irqUart.c     ****   tU32 returnReg;
 171:irqUart.c     **** 
 172:irqUart.c     ****   asm volatile ("disIrq1: mrs %0, cpsr  \n\t"
 173:irqUart.c     ****                 "orr r1, %0, #0xC0      \n\t"
 174:irqUart.c     ****                 "msr cpsr_c, r1         \n\t"
 175:irqUart.c     ****                 "mrs r1, cpsr           \n\t"
 176:irqUart.c     ****                 "and r1, r1, #0xC0      \n\t"
 177:irqUart.c     ****                 "cmp r1, #0xC0          \n\t"
 178:irqUart.c     ****                 "bne disIrq1            \n\t"
 179:irqUart.c     ****                 : "=r"(returnReg)
 180:irqUart.c     ****                 :
 181:irqUart.c     ****                 : "r1"
 182:irqUart.c     ****                );
 183:irqUart.c     ****   return returnReg;
 184:irqUart.c     **** }
  22              		.loc 1 184 0
  23 0000 00000FE1 		disIrq1: mrs r0, cpsr  
  24 0004 C01080E3 		orr r1, r0, #0xC0      
  25 0008 01F021E1 		msr cpsr_c, r1         
  26 000c 00100FE1 		mrs r1, cpsr           
  27 0010 C01001E2 		and r1, r1, #0xC0      
  28 0014 C00051E3 		cmp r1, #0xC0          
  29 0018 F8FFFF1A 		bne disIrq1            
  30              		
  31 001c 1EFF2FE1 		bx	lr
  32              	.LFE3:
  33              		.size	disIrq, .-disIrq
  34              		.align	2
  35              		.global	restoreIrq
  36              		.type	restoreIrq, %function
  37              	restoreIrq:
  38              	.LFB4:
 185:irqUart.c     **** 
 186:irqUart.c     **** /*****************************************************************************
ARM GAS  /cygdrive/c/Users/Zbyszko/AppData/Local/Temp/ccMUFlgb.s 			page 5


 187:irqUart.c     ****  *
 188:irqUart.c     ****  * Description:
 189:irqUart.c     ****  *    Restore interrupt state. 
 190:irqUart.c     ****  *
 191:irqUart.c     ****  * Params:
 192:irqUart.c     ****  *    [in] restoreValue - The value of the new status register. 
 193:irqUart.c     ****  *
 194:irqUart.c     ****  ****************************************************************************/
 195:irqUart.c     **** void
 196:irqUart.c     **** restoreIrq(tU32 restoreValue)
 197:irqUart.c     **** {
  39              		.loc 1 197 0
  40              		@ Function supports interworking.
  41              		@ args = 0, pretend = 0, frame = 0
  42              		@ frame_needed = 0, uses_anonymous_args = 0
  43              		@ link register save eliminated.
  44              	.LVL0:
  45              		@ lr needed for prologue
 198:irqUart.c     ****   asm volatile ("msr cpsr_c, %0  \n\t"
  46              		.loc 1 198 0
  47 0020 00F021E1 		msr cpsr_c, r0  
  48              		
 199:irqUart.c     ****                 :
 200:irqUart.c     ****                 : "r" (restoreValue)
 201:irqUart.c     ****                 : "r1"
 202:irqUart.c     ****                );
 203:irqUart.c     **** }
  49              		.loc 1 203 0
  50 0024 1EFF2FE1 		bx	lr
  51              	.LFE4:
  52              		.size	restoreIrq, .-restoreIrq
  53              		.align	2
  54              		.global	uart1ISR
  55              		.type	uart1ISR, %function
  56              	uart1ISR:
  57              	.LFB2:
  58              		.loc 1 39 0
  59              		@ Function supports interworking.
  60              		@ args = 0, pretend = 0, frame = 12
  61              		@ frame_needed = 0, uses_anonymous_args = 0
  62 0028 10402DE9 		stmfd	sp!, {r4, lr}
  63              	.LCFI0:
  64 002c 0CD04DE2 		sub	sp, sp, #12
  65              	.LCFI1:
  66 0030 8A0000EA 		b	.L42
  67              	.LVL1:
  68              	.L7:
  69              		.loc 1 50 0
  70 0034 0B30DDE5 		ldrb	r3, [sp, #11]	@ zero_extendqisi2
  71 0038 0E3003E2 		and	r3, r3, #14
  72              	.LVL2:
  73 003c 0C0053E3 		cmp	r3, #12
  74 0040 03F19F97 		ldrls	pc, [pc, r3, asl #2]
  75 0044 7E0000EA 		b	.L8
  76              		.p2align 2
  77              	.L13:
  78 0048 B4010000 		.word	.L9
ARM GAS  /cygdrive/c/Users/Zbyszko/AppData/Local/Temp/ccMUFlgb.s 			page 6


  79 004c 44020000 		.word	.L8
  80 0050 1C010000 		.word	.L10
  81 0054 44020000 		.word	.L8
  82 0058 88000000 		.word	.L35
  83 005c 44020000 		.word	.L8
  84 0060 7C000000 		.word	.L12
  85 0064 44020000 		.word	.L8
  86 0068 44020000 		.word	.L8
  87 006c 44020000 		.word	.L8
  88 0070 44020000 		.word	.L8
  89 0074 44020000 		.word	.L8
  90 0078 88000000 		.word	.L35
  91              	.L12:
  92              		.loc 1 53 0
  93 007c 10329FE5 		ldr	r3, .L43
  94 0080 143093E5 		ldr	r3, [r3, #20]
  95 0084 730000EA 		b	.L40
  96              	.L35:
  97              		.loc 1 60 0
  98 0088 08229FE5 		ldr	r2, .L43+4
  99 008c 003092E5 		ldr	r3, [r2, #0]
 100 0090 013083E2 		add	r3, r3, #1
 101 0094 033BA0E1 		mov	r3, r3, asl #22
 102 0098 233BA0E1 		mov	r3, r3, lsr #22
 103 009c 04308DE5 		str	r3, [sp, #4]
 104              		.loc 1 61 0
 105 00a0 04309DE5 		ldr	r3, [sp, #4]
 106 00a4 003082E5 		str	r3, [r2, #0]
 107              		.loc 1 63 0
 108 00a8 EC319FE5 		ldr	r3, .L43+8
 109 00ac 04209DE5 		ldr	r2, [sp, #4]
 110 00b0 003093E5 		ldr	r3, [r3, #0]
 111              		.loc 1 67 0
 112 00b4 D8419FE5 		ldr	r4, .L43
 113              		.loc 1 63 0
 114 00b8 030052E1 		cmp	r2, r3
 115              		.loc 1 64 0
 116 00bc 0430A001 		moveq	r3, r4
 117 00c0 00309305 		ldreq	r3, [r3, #0]
 118              		.loc 1 69 0
 119 00c4 D4E19FE5 		ldr	lr, .L43+12
 120              		.loc 1 77 0
 121 00c8 D4019FE5 		ldr	r0, .L43+16
 122              	.LVL3:
 123 00cc 09108DE2 		add	r1, sp, #9
 124              		.loc 1 64 0
 125 00d0 04308D05 		streq	r3, [sp, #4]
 126              		.loc 1 63 0
 127 00d4 0B00000A 		beq	.L16
 128              		.loc 1 67 0
 129 00d8 04C09DE5 		ldr	ip, [sp, #4]
 130 00dc 002094E5 		ldr	r2, [r4, #0]
 131              		.loc 1 69 0
 132 00e0 00309EE5 		ldr	r3, [lr, #0]
 133 00e4 013083E2 		add	r3, r3, #1
 134 00e8 00308EE5 		str	r3, [lr, #0]
 135              		.loc 1 70 0
ARM GAS  /cygdrive/c/Users/Zbyszko/AppData/Local/Temp/ccMUFlgb.s 			page 7


 136 00ec 00309EE5 		ldr	r3, [lr, #0]
 137 00f0 0F0D53E3 		cmp	r3, #960
 138              		.loc 1 67 0
 139 00f4 AC319FE5 		ldr	r3, .L43+20
 140 00f8 0C20C3E7 		strb	r2, [r3, ip]
 141              		.loc 1 73 0
 142 00fc 0030A083 		movhi	r3, #0
 143 0100 10308485 		strhi	r3, [r4, #16]
 144              		.loc 1 77 0
 145 0104 FEFFFFEB 		bl	osSemGive
 146              	.L16:
 147              		.loc 1 81 0
 148 0108 84319FE5 		ldr	r3, .L43
 149 010c 143093E5 		ldr	r3, [r3, #20]
 150 0110 010013E3 		tst	r3, #1
 151 0114 5100000A 		beq	.L42
 152 0118 DAFFFFEA 		b	.L35
 153              	.LVL4:
 154              	.L10:
 155              		.loc 1 86 0
 156 011c 88319FE5 		ldr	r3, .L43+24
 157 0120 002093E5 		ldr	r2, [r3, #0]
 158 0124 84319FE5 		ldr	r3, .L43+28
 159 0128 003093E5 		ldr	r3, [r3, #0]
 160 012c 030052E1 		cmp	r2, r3
 161 0130 1700000A 		beq	.L19
 162              	.LBB2:
 163              		.loc 1 90 0
 164 0134 0B30DDE5 		ldrb	r3, [sp, #11]	@ zero_extendqisi2
 165 0138 C00013E3 		tst	r3, #192
 166 013c 0100A003 		moveq	r0, #1
 167 0140 1000A013 		movne	r0, #16
 168              	.L23:
 169              		.loc 1 98 0
 170 0144 64119FE5 		ldr	r1, .L43+28
 171 0148 003091E5 		ldr	r3, [r1, #0]
 172 014c 013083E2 		add	r3, r3, #1
 173 0150 FF3003E2 		and	r3, r3, #255
 174 0154 00308DE5 		str	r3, [sp, #0]
 175              		.loc 1 100 0
 176 0158 00309DE5 		ldr	r3, [sp, #0]
 177 015c 003081E5 		str	r3, [r1, #0]
 178              		.loc 1 101 0
 179 0160 00209DE5 		ldr	r2, [sp, #0]
 180 0164 48319FE5 		ldr	r3, .L43+32
 181 0168 0220D3E7 		ldrb	r2, [r3, r2]	@ zero_extendqisi2
 182 016c 20319FE5 		ldr	r3, .L43
 183 0170 002083E5 		str	r2, [r3, #0]
 184              		.loc 1 102 0
 185 0174 30319FE5 		ldr	r3, .L43+24
 186 0178 002093E5 		ldr	r2, [r3, #0]
 187 017c 003091E5 		ldr	r3, [r1, #0]
 188 0180 030052E1 		cmp	r2, r3
 189 0184 3500000A 		beq	.L42
 190 0188 010050E2 		subs	r0, r0, #1
 191 018c 3300000A 		beq	.L42
 192 0190 EBFFFFEA 		b	.L23
ARM GAS  /cygdrive/c/Users/Zbyszko/AppData/Local/Temp/ccMUFlgb.s 			page 8


 193              	.L19:
 194              	.LBE2:
 195              		.loc 1 108 0
 196 0194 1C319FE5 		ldr	r3, .L43+36
 197 0198 0020A0E3 		mov	r2, #0
 198 019c 0020C3E5 		strb	r2, [r3, #0]
 199              		.loc 1 109 0
 200 01a0 EC209FE5 		ldr	r2, .L43
 201 01a4 043092E5 		ldr	r3, [r2, #4]
 202 01a8 0230C3E3 		bic	r3, r3, #2
 203 01ac 043082E5 		str	r3, [r2, #4]
 204 01b0 2A0000EA 		b	.L42
 205              	.L9:
 206              	.LBB3:
 207              		.loc 1 115 0
 208 01b4 D8009FE5 		ldr	r0, .L43
 209              	.LVL5:
 210 01b8 183090E5 		ldr	r3, [r0, #24]
 211              		.loc 1 118 0
 212 01bc 010013E3 		tst	r3, #1
 213 01c0 2600000A 		beq	.L42
 214              		.loc 1 121 0
 215 01c4 102013E2 		ands	r2, r3, #16
 216 01c8 1700000A 		beq	.L26
 217              		.loc 1 125 0
 218 01cc D8309FE5 		ldr	r3, .L43+24
 219 01d0 D8109FE5 		ldr	r1, .L43+28
 220 01d4 002093E5 		ldr	r2, [r3, #0]
 221 01d8 003091E5 		ldr	r3, [r1, #0]
 222 01dc 030052E1 		cmp	r2, r3
 223 01e0 1E00000A 		beq	.L42
 224 01e4 CCC09FE5 		ldr	ip, .L43+36
 225 01e8 0030DCE5 		ldrb	r3, [ip, #0]	@ zero_extendqisi2
 226 01ec 000053E3 		cmp	r3, #0
 227 01f0 1A00001A 		bne	.L42
 228              		.loc 1 128 0
 229 01f4 003091E5 		ldr	r3, [r1, #0]
 230 01f8 013083E2 		add	r3, r3, #1
 231 01fc FF3003E2 		and	r3, r3, #255
 232 0200 00308DE5 		str	r3, [sp, #0]
 233              		.loc 1 130 0
 234 0204 00309DE5 		ldr	r3, [sp, #0]
 235 0208 003081E5 		str	r3, [r1, #0]
 236              		.loc 1 131 0
 237 020c 00209DE5 		ldr	r2, [sp, #0]
 238 0210 9C309FE5 		ldr	r3, .L43+32
 239 0214 0230D3E7 		ldrb	r3, [r3, r2]	@ zero_extendqisi2
 240 0218 003080E5 		str	r3, [r0, #0]
 241              		.loc 1 132 0
 242 021c 0130A0E3 		mov	r3, #1
 243 0220 0030CCE5 		strb	r3, [ip, #0]
 244              		.loc 1 133 0
 245 0224 0E3083E2 		add	r3, r3, #14
 246 0228 030000EA 		b	.L41
 247              	.L26:
 248              		.loc 1 141 0
 249 022c 84309FE5 		ldr	r3, .L43+36
ARM GAS  /cygdrive/c/Users/Zbyszko/AppData/Local/Temp/ccMUFlgb.s 			page 9


 250 0230 0020C3E5 		strb	r2, [r3, #0]
 251              		.loc 1 142 0
 252 0234 043090E5 		ldr	r3, [r0, #4]
 253 0238 0230C3E3 		bic	r3, r3, #2
 254              	.L41:
 255 023c 043080E5 		str	r3, [r0, #4]
 256 0240 060000EA 		b	.L42
 257              	.LVL6:
 258              	.L8:
 259              	.LBE3:
 260              		.loc 1 149 0
 261 0244 48309FE5 		ldr	r3, .L43
 262 0248 142093E5 		ldr	r2, [r3, #20]
 263 024c FF2002E2 		and	r2, r2, #255
 264 0250 0A20CDE5 		strb	r2, [sp, #10]
 265              		.loc 1 150 0
 266 0254 003093E5 		ldr	r3, [r3, #0]
 267              	.L40:
 268 0258 FF3003E2 		and	r3, r3, #255
 269 025c 0A30CDE5 		strb	r3, [sp, #10]
 270              	.L42:
 271              		.loc 1 47 0
 272 0260 2C309FE5 		ldr	r3, .L43
 273 0264 083093E5 		ldr	r3, [r3, #8]
 274 0268 FF3003E2 		and	r3, r3, #255
 275 026c 0B30CDE5 		strb	r3, [sp, #11]
 276 0270 0B30DDE5 		ldrb	r3, [sp, #11]	@ zero_extendqisi2
 277 0274 010013E3 		tst	r3, #1
 278 0278 6DFFFF0A 		beq	.L7
 279              	.LVL7:
 280              		.loc 1 155 0
 281 027c 0020A0E3 		mov	r2, #0
 282 0280 0030E0E3 		mvn	r3, #0
 283              	.LVL8:
 284 0284 CF2F03E5 		str	r2, [r3, #-4047]
 285              		.loc 1 156 0
 286 0288 0CD08DE2 		add	sp, sp, #12
 287 028c 1040BDE8 		ldmfd	sp!, {r4, lr}
 288 0290 1EFF2FE1 		bx	lr
 289              	.L44:
 290              		.align	2
 291              	.L43:
 292 0294 000001E0 		.word	-536805376
 293 0298 00000000 		.word	uart1RxHead
 294 029c 00000000 		.word	uart1RxTail
 295 02a0 00000000 		.word	uart1RxInBuff
 296 02a4 00000000 		.word	receiveSem
 297 02a8 00000000 		.word	uart1RxBuf
 298 02ac 00000000 		.word	uart1TxHead
 299 02b0 00000000 		.word	uart1TxTail
 300 02b4 00000000 		.word	uart1TxBuf
 301 02b8 00000000 		.word	uart1TxRunning
 302              	.LFE2:
 303              		.size	uart1ISR, .-uart1ISR
 304              		.section	.debug_frame,"",%progbits
 305              	.Lframe0:
 306 0000 0C000000 		.4byte	.LECIE0-.LSCIE0
ARM GAS  /cygdrive/c/Users/Zbyszko/AppData/Local/Temp/ccMUFlgb.s 			page 10


 307              	.LSCIE0:
 308 0004 FFFFFFFF 		.4byte	0xffffffff
 309 0008 01       		.byte	0x1
 310 0009 00       		.ascii	"\000"
 311 000a 01       		.uleb128 0x1
 312 000b 7C       		.sleb128 -4
 313 000c 0E       		.byte	0xe
 314 000d 0C       		.byte	0xc
 315 000e 0D       		.uleb128 0xd
 316 000f 00       		.uleb128 0x0
 317              		.align	2
 318              	.LECIE0:
 319              	.LSFDE0:
 320 0010 0C000000 		.4byte	.LEFDE0-.LASFDE0
 321              	.LASFDE0:
 322 0014 00000000 		.4byte	.Lframe0
 323 0018 00000000 		.4byte	.LFB3
 324 001c 20000000 		.4byte	.LFE3-.LFB3
 325              		.align	2
 326              	.LEFDE0:
 327              	.LSFDE2:
 328 0020 0C000000 		.4byte	.LEFDE2-.LASFDE2
 329              	.LASFDE2:
 330 0024 00000000 		.4byte	.Lframe0
 331 0028 20000000 		.4byte	.LFB4
 332 002c 08000000 		.4byte	.LFE4-.LFB4
 333              		.align	2
 334              	.LEFDE2:
 335              	.LSFDE4:
 336 0030 18000000 		.4byte	.LEFDE4-.LASFDE4
 337              	.LASFDE4:
 338 0034 00000000 		.4byte	.Lframe0
 339 0038 28000000 		.4byte	.LFB2
 340 003c 94020000 		.4byte	.LFE2-.LFB2
 341 0040 44       		.byte	0x4
 342              		.4byte	.LCFI0-.LFB2
 343 0041 0E       		.byte	0xe
 344 0042 08       		.uleb128 0x8
 345 0043 44       		.byte	0x4
 346              		.4byte	.LCFI1-.LCFI0
 347 0044 0E       		.byte	0xe
 348 0045 14       		.uleb128 0x14
 349 0046 8E       		.byte	0x8e
 350 0047 01       		.uleb128 0x1
 351 0048 84       		.byte	0x84
 352 0049 02       		.uleb128 0x2
 353 004a 0000     		.align	2
 354              	.LEFDE4:
 355              		.file 2 "../pre_emptive_os/api/../api/general.h"
 356              		.file 3 "irqUart.h"
 357              		.file 4 "../pre_emptive_os/api/osapi.h"
 358              		.text
 359              	.Letext0: